 TlsClient

 Timestamp is 65eb45a8 (Fri Mar  8 10:06:48 2024)

 Preferred load address is 0000000140000000

 Start         Length     Name                   Class
 0001:00000000 0003a2ccH .text                   CODE
 0001:0003a2cc 00000064H .text$di                CODE
 0001:0003a330 000254a0H .text$mn                CODE
 0001:0005f7d0 00000040H .text$mn$00             CODE
 0001:0005f810 00000b50H .text$mn$21             CODE
 0001:00060360 000007b0H .text$x                 CODE
 0001:00060b10 000000f4H .text$yd                CODE
 0002:00000000 00000378H .idata$5                DATA
 0002:00000378 00000038H .00cfg                  DATA
 0002:000003b0 00000008H .CRT$XCA                DATA
 0002:000003b8 00000008H .CRT$XCAA               DATA
 0002:000003c0 00000018H .CRT$XCC                DATA
 0002:000003d8 00000010H .CRT$XCL                DATA
 0002:000003e8 00000008H .CRT$XCU                DATA
 0002:000003f0 00000008H .CRT$XCZ                DATA
 0002:000003f8 00000008H .CRT$XIA                DATA
 0002:00000400 00000008H .CRT$XIAA               DATA
 0002:00000408 00000008H .CRT$XIAC               DATA
 0002:00000410 00000030H .CRT$XIC                DATA
 0002:00000440 00000008H .CRT$XIZ                DATA
 0002:00000448 00000008H .CRT$XLA                DATA
 0002:00000450 00000008H .CRT$XLZ                DATA
 0002:00000458 00000008H .CRT$XPA                DATA
 0002:00000460 00000010H .CRT$XPX                DATA
 0002:00000470 00000008H .CRT$XPXA               DATA
 0002:00000478 00000008H .CRT$XPZ                DATA
 0002:00000480 00000008H .CRT$XTA                DATA
 0002:00000488 00000018H .CRT$XTZ                DATA
 0002:00000490 00000000H .gehcont$y              DATA
 0002:00000490 00000000H .gfids$y                DATA
 0002:000004a0 00036570H .rdata                  DATA
 0002:00036a10 00000170H .rdata$00               DATA
 0002:00036b80 00000000H .rdata$CastGuardVftablesA DATA
 0002:00036b80 00000000H .rdata$CastGuardVftablesC DATA
 0002:00036b80 00000028H .rdata$T                DATA
 0002:00036ba8 00000314H .rdata$r                DATA
 0002:00036ebc 00000428H .rdata$voltmd           DATA
 0002:000372e4 0000042cH .rdata$zzzdbg           DATA
 0002:00037710 00000008H .rtc$IAA                DATA
 0002:00037718 00000008H .rtc$IZZ                DATA
 0002:00037720 00000008H .rtc$TAA                DATA
 0002:00037728 00000008H .rtc$TZZ                DATA
 0002:00037730 00000004H .tls                    DATA
 0002:00037734 00000004H .tls$                   DATA
 0002:00037738 00000008H .tls$ZZZ                DATA
 0002:00037740 0000d528H .xdata                  DATA
 0002:00044c68 000001c4H .xdata$x                DATA
 0002:00044e2c 00000000H .edata                  DATA
 0002:00044e2c 00000028H .idata$2                DATA
 0002:00044e54 00000014H .idata$3                DATA
 0002:00044e68 00000378H .idata$4                DATA
 0002:000451e0 0000071eH .idata$6                DATA
 0003:00000000 00101320H .data                   DATA
 0003:00101320 000000a0H .data$r                 DATA
 0003:001013c0 00000050H .data$rs                DATA
 0003:00101410 00001724H .bss                    DATA
 0004:00000000 000059d0H .pdata                  DATA
 0005:00000000 000001f4H _RDATA                  DATA

  Address         Publics by Value              Rva+Base               Lib:Object

 0000:00000000       __AbsoluteZero             0000000000000000     <absolute>
 0000:00000000       ___safe_se_handler_count   0000000000000000     <absolute>
 0000:00000000       ___safe_se_handler_table   0000000000000000     <absolute>
 0000:00000000       __arm64x_extra_rfe_table   0000000000000000     <absolute>
 0000:00000000       __arm64x_extra_rfe_table_size 0000000000000000     <absolute>
 0000:00000000       __arm64x_native_entrypoint 0000000000000000     <absolute>
 0000:00000000       __arm64x_redirection_metadata 0000000000000000     <absolute>
 0000:00000000       __arm64x_redirection_metadata_count 0000000000000000     <absolute>
 0000:00000000       __dynamic_value_reloc_table 0000000000000000     <absolute>
 0000:00000000       __enclave_config           0000000000000000     <absolute>
 0000:00000000       __guard_check_icall_a64n_fptr 0000000000000000     <absolute>
 0000:00000000       __guard_eh_cont_count      0000000000000000     <absolute>
 0000:00000000       __guard_eh_cont_table      0000000000000000     <absolute>
 0000:00000000       __guard_fids_count         0000000000000000     <absolute>
 0000:00000000       __guard_fids_table         0000000000000000     <absolute>
 0000:00000000       __guard_iat_count          0000000000000000     <absolute>
 0000:00000000       __guard_iat_table          0000000000000000     <absolute>
 0000:00000000       __guard_longjmp_count      0000000000000000     <absolute>
 0000:00000000       __guard_longjmp_table      0000000000000000     <absolute>
 0000:00000000       __hybrid_auxiliary_delayload_iat 0000000000000000     <absolute>
 0000:00000000       __hybrid_auxiliary_delayload_iat_copy 0000000000000000     <absolute>
 0000:00000000       __hybrid_auxiliary_iat     0000000000000000     <absolute>
 0000:00000000       __hybrid_auxiliary_iat_copy 0000000000000000     <absolute>
 0000:00000000       __hybrid_code_map          0000000000000000     <absolute>
 0000:00000000       __hybrid_code_map_count    0000000000000000     <absolute>
 0000:00000000       __hybrid_image_info_bitfield 0000000000000000     <absolute>
 0000:00000000       __x64_code_ranges_to_entry_points 0000000000000000     <absolute>
 0000:00000000       __x64_code_ranges_to_entry_points_count 0000000000000000     <absolute>
 0000:00000100       __guard_flags              0000000000000100     <absolute>
 0000:00000000       __ImageBase                0000000140000000     <linker-defined>
 0001:00000000       main                       0000000140001000 f   main-e350db.o
 0001:00000080       ??0MainApp@@QEAA@XZ        0000000140001080 f i main-e350db.o
 0001:000007c0       ??1MainApp@@QEAA@XZ        00000001400017c0 f i main-e350db.o
 0001:000008c0       ??0FindFacSm@@QEAA@XZ      00000001400018c0 f i main-e350db.o
 0001:000009a0       ??0CrtMath@@QEAA@XZ        00000001400019a0 f i main-e350db.o
 0001:00000b80       ??1GarnerCrt@@QEAA@XZ      0000000140001b80 f i main-e350db.o
 0001:00000bc0       ??1CrtMath@@QEAA@XZ        0000000140001bc0 f i main-e350db.o
 0001:00000c30       ??1FindFacSm@@QEAA@XZ      0000000140001c30 f i main-e350db.o
 0001:00000c60       ??0CrtBuf@@QEAA@XZ         0000000140001c60 f i main-e350db.o
 0001:00000d20       ?mainLoop@MainApp@@QEAAHXZ 0000000140001d20 f   MainApp-2f7bab.o
 0001:00000ea0       ?testTls@MainApp@@QEAAXXZ  0000000140001ea0 f   MainApp-2f7bab.o
 0001:00001060       ?testSockets@MainApp@@QEAAXXZ 0000000140002060 f   MainApp-2f7bab.o
 0001:000010e0       ??0TlsMainCl@@QEAA@XZ      00000001400020e0 f i MainApp-2f7bab.o
 0001:00001580       ??0TlsMain@@QEAA@XZ        0000000140002580 f i MainApp-2f7bab.o
 0001:00001f10       ??0EncryptTls@@QEAA@XZ     0000000140002f10 f i MainApp-2f7bab.o
 0001:000024b0       ??1EncryptTls@@QEAA@XZ     00000001400034b0 f i MainApp-2f7bab.o
 0001:00002510       ??1TlsMain@@QEAA@XZ        0000000140003510 f i MainApp-2f7bab.o
 0001:00002610       ??1Sha256@@QEAA@XZ         0000000140003610 f i MainApp-2f7bab.o
 0001:00002640       ??1TlsMainCl@@QEAA@XZ      0000000140003640 f i MainApp-2f7bab.o
 0001:00002710       ?sqroot@MathC@@SANN@Z      0000000140003710 f   MathC-13a42b.o
 0001:00002720       ?roundF64@MathC@@SANN@Z    0000000140003720 f   MathC-13a42b.o
 0001:00002730       ?roundI64@MathC@@SA_JN@Z   0000000140003730 f   MathC-13a42b.o
 0001:00002740       ?roundI32@MathC@@SAHN@Z    0000000140003740 f   MathC-13a42b.o
 0001:00002770       ??0Base10Number@@QEAA@AEBVCharBuf@@@Z 0000000140003770 f   Base10Number-950c4f.o
 0001:000027b0       ?setFromCharBuf@Base10Number@@QEAAXAEBVCharBuf@@@Z 00000001400037b0 f   Base10Number-950c4f.o
 0001:000028b0       ??0Base10Number@@QEAA@AEBV0@@Z 00000001400038b0 f   Base10Number-950c4f.o
 0001:000028f0       ??1Base10Number@@QEAA@XZ   00000001400038f0 f   Base10Number-950c4f.o
 0001:00002900       ?shortDivide@Division@@SA_NAEBVInteger@@0AEAV2@1AEAVIntegerMath@@@Z 0000000140003900 f   Division-e9e53c.o
 0001:00002d70       ?shortDivideRem@Division@@SA_JAEBVInteger@@_JAEAV2@@Z 0000000140003d70 f   Division-e9e53c.o
 0001:00002fe0       ?divide@Division@@SAXAEBVInteger@@0AEAV2@1AEAVIntegerMath@@@Z 0000000140003fe0 f   Division-e9e53c.o
 0001:000032f0       ?longDivide3@Division@@SAXAEBVInteger@@0AEAV2@1AEAVIntegerMath@@@Z 00000001400042f0 f   Division-e9e53c.o
 0001:00003b60       ?longDivide1@Division@@SA_NAEBVInteger@@0AEAV2@1AEAVIntegerMath@@@Z 0000000140004b60 f   Division-e9e53c.o
 0001:00003d70       ?testDivideBits@Division@@SAX_J_NHAEBVInteger@@2AEAV2@AEAVIntegerMath@@@Z 0000000140004d70 f   Division-e9e53c.o
 0001:00003f20       ?longDivide2@Division@@SA_NAEBVInteger@@0AEAV2@1AEAVIntegerMath@@@Z 0000000140004f20 f   Division-e9e53c.o
 0001:00004280       ?findShiftBy@Division@@SAH_J@Z 0000000140005280 f   Division-e9e53c.o
 0001:000042e0       ??0Exponents@@QEAA@XZ      00000001400052e0 f   Exponents-7f5d2d.o
 0001:00004470       ??0Exponents@@QEAA@AEBV0@@Z 0000000140005470 f   Exponents-7f5d2d.o
 0001:00004640       ??1Exponents@@QEAA@XZ      0000000140005640 f   Exponents-7f5d2d.o
 0001:00004670       ?setupBases@Exponents@@QEAAXAEBVInteger@@0AEAVIntegerMath@@@Z 0000000140005670 f   Exponents-7f5d2d.o
 0001:00004820       ?toPower@Exponents@@QEAAXAEAVInteger@@AEBV2@1AEAVIntegerMath@@@Z 0000000140005820 f   Exponents-7f5d2d.o
 0001:00004b90       ?multiply@Int56@@QEAAXAEBV1@0@Z 0000000140005b90 f   Int56-9f6d7a.o
 0001:00004ce0       ?divide@Int56@@QEAA_NAEBV1@0AEAV1@@Z 0000000140005ce0 f   Int56-9f6d7a.o
 0001:00004f20       ?isDivisibleBySmallPrime@Int56@@QEBAHAEBVSPrimes@@@Z 0000000140005f20 f   Int56-9f6d7a.o
 0001:00005040       ?setIndex@Integer@@QEAAXH@Z 0000000140006040 f   Integer-cd7539.o
 0001:00005080       ?copy@Integer@@QEAAXAEBV1@@Z 0000000140006080 f   Integer-cd7539.o
 0001:00005100       ?copyUpTo@Integer@@QEAAXAEBV1@H@Z 0000000140006100 f   Integer-cd7539.o
 0001:000051b0       ?getD@Integer@@QEBA_JH@Z   00000001400061b0 f   Integer-cd7539.o
 0001:000051f0       ?setD@Integer@@QEAAXH_J@Z  00000001400061f0 f   Integer-cd7539.o
 0001:00005250       ?setD48@Integer@@QEAAXH_J@Z 0000000140006250 f   Integer-cd7539.o
 0001:000052b0       ?setFromInt24@Integer@@QEAAXH@Z 00000001400062b0 f   Integer-cd7539.o
 0001:00005300       ?setFromLong48@Integer@@QEAAX_J@Z 0000000140006300 f   Integer-cd7539.o
 0001:00005370       ?isEqual@Integer@@QEBA_NAEBV1@@Z 0000000140006370 f   Integer-cd7539.o
 0001:00005400       ?paramIsGreater@Integer@@QEBA_NAEBV1@@Z 0000000140006400 f   Integer-cd7539.o
 0001:00005450       ?paramIsGreaterOrEq@Integer@@QEBA_NAEBV1@@Z 0000000140006450 f   Integer-cd7539.o
 0001:00005510       ?carry@Integer@@QEAAXXZ    0000000140006510 f   Integer-cd7539.o
 0001:00005600       ?increment@Integer@@QEAAXXZ 0000000140006600 f   Integer-cd7539.o
 0001:00005730       ?decrement@Integer@@QEAAXXZ 0000000140006730 f   Integer-cd7539.o
 0001:00005800       ?borrow@Integer@@QEAAXXZ   0000000140006800 f   Integer-cd7539.o
 0001:000058b0       ?addLong48@Integer@@QEAAX_J@Z 00000001400068b0 f   Integer-cd7539.o
 0001:00005a70       ?add@Integer@@QEAAXAEBV1@@Z 0000000140006a70 f   Integer-cd7539.o
 0001:00005cc0       ?andBits@Integer@@QEAAXAEBV1@0@Z 0000000140006cc0 f   Integer-cd7539.o
 0001:00005d60       ?shiftLeft@Integer@@QEAAXH@Z 0000000140006d60 f   Integer-cd7539.o
 0001:00005e50       ?shiftDigitsLeft@Integer@@QEAAXH@Z 0000000140006e50 f   Integer-cd7539.o
 0001:00005f00       ?shiftRight@Integer@@QEAAXH@Z 0000000140006f00 f   Integer-cd7539.o
 0001:00005fc0       ?setDigitAndClear@Integer@@QEAAXH_J@Z 0000000140006fc0 f   Integer-cd7539.o
 0001:00006070       ?makeRandomOdd@Integer@@QEAA_NH@Z 0000000140007070 f   Integer-cd7539.o
 0001:000062b0       ?setFromBigEndianCharBuf@Integer@@QEAAXAEBVCharBuf@@@Z 00000001400072b0 f   Integer-cd7539.o
 0001:00006540       ?subtract@Integer@@QEAAXAEBV1@@Z 0000000140007540 f   Integer-cd7539.o
 0001:000066d0       ?multiply24@Integer@@QEAAX_J@Z 00000001400076d0 f   Integer-cd7539.o
 0001:000068b0       ?getModDestruct@Integer@@QEAAH_J@Z 00000001400078b0 f   Integer-cd7539.o
 0001:00006a40       ?find64SqrRoot@IntegerMath@@SA_J_J@Z 0000000140007a40 f   IntegerMath-44b507.o
 0001:00006d20       ?isDivisibleBySmallPrime@IntegerMath@@QEAAHAEBVInteger@@AEBVSPrimes@@@Z 0000000140007d20 f   IntegerMath-44b507.o
 0001:00006dc0       ?getMod24@IntegerMath@@QEAAHAEBVInteger@@_J@Z 0000000140007dc0 f   IntegerMath-44b507.o
 0001:00006ee0       ?add@IntegerMath@@QEAAXAEAVInteger@@AEBV2@@Z 0000000140007ee0 f   IntegerMath-44b507.o
 0001:00007160       ?subtract@IntegerMath@@QEAAXAEAVInteger@@AEBV2@@Z 0000000140008160 f   IntegerMath-44b507.o
 0001:000073d0       ?multiplyLong48@IntegerMath@@QEAAXAEAVInteger@@_J@Z 00000001400083d0 f   IntegerMath-44b507.o
 0001:00007570       ?setMultiplySign@IntegerMath@@AEAAXAEAVInteger@@AEBV2@@Z 0000000140008570 f   IntegerMath-44b507.o
 0001:000075d0       ?multiply@IntegerMath@@QEAAXAEAVInteger@@AEBV2@@Z 00000001400085d0 f   IntegerMath-44b507.o
 0001:000078b0       ?setFromStr@IntegerMath@@QEAAXAEAVInteger@@AEBVCharBuf@@@Z 00000001400088b0 f   IntegerMath-44b507.o
 0001:00007aa0       ?toString10@IntegerMath@@QEAAXAEBVInteger@@AEAVCharBuf@@@Z 0000000140008aa0 f   IntegerMath-44b507.o
 0001:00007ee0       ?multiplyTop@IntegerMath@@QEAAXAEAVInteger@@AEBV2@@Z 0000000140008ee0 f   IntegerMath-44b507.o
 0001:00008110       ?multiplyTopOne@IntegerMath@@QEAAXAEAVInteger@@AEBV2@@Z 0000000140009110 f   IntegerMath-44b507.o
 0001:000081d0       ?setsqrRootTop@IntegerMath@@QEAAXAEBVInteger@@AEAV2@@Z 00000001400091d0 f   IntegerMath-44b507.o
 0001:00008280       ?squareRoot@IntegerMath@@QEAA_NAEBVInteger@@AEAV2@@Z 0000000140009280 f   IntegerMath-44b507.o
 0001:00008550       ?searchSqrtXPart@IntegerMath@@AEAAXHAEBVInteger@@AEAV2@@Z 0000000140009550 f   IntegerMath-44b507.o
 0001:000088a0       ?setNegative@Integer@@QEAAX_N@Z 00000001400098a0 f i IntegerMath-44b507.o
 0001:000088e0       ?reduce@Mod@@QEAAXAEAVInteger@@AEBV2@1AEAVIntegerMath@@@Z 00000001400098e0 f   Mod-60f3f2.o
 0001:000088f0       ?makeExact@Mod@@QEAAXAEAVInteger@@AEBV2@AEAVIntegerMath@@@Z 00000001400098f0 f   Mod-60f3f2.o
 0001:000089c0       ?toPower@Mod@@QEAAXAEAVInteger@@AEBV2@1AEAVIntegerMath@@@Z 00000001400099c0 f   Mod-60f3f2.o
 0001:00008df0       ?verifyInBaseRange@Mod@@QEAAXAEBVInteger@@0PEBD@Z 0000000140009df0 f   Mod-60f3f2.o
 0001:00008e60       ?verifyMoreThanZero@Mod@@QEAAXAEBVInteger@@@Z 0000000140009e60 f   Mod-60f3f2.o
 0001:00008ec0       ?add@Mod@@QEAAXAEAVInteger@@AEBV2@1AEAVIntegerMath@@@Z 0000000140009ec0 f   Mod-60f3f2.o
 0001:00009030       ?addL@Mod@@QEAAXAEAVInteger@@_JAEBV2@AEAVIntegerMath@@@Z 000000014000a030 f   Mod-60f3f2.o
 0001:00009180       ?negate@Mod@@QEAAXAEAVInteger@@AEBV2@AEAVIntegerMath@@@Z 000000014000a180 f   Mod-60f3f2.o
 0001:00009220       ?subtract@Mod@@QEAAXAEAVInteger@@AEBV2@1AEAVIntegerMath@@@Z 000000014000a220 f   Mod-60f3f2.o
 0001:00009330       ?multiply@Mod@@QEAAXAEAVInteger@@AEBV2@1AEAVIntegerMath@@@Z 000000014000a330 f   Mod-60f3f2.o
 0001:00009510       ?multiplyL@Mod@@QEAAXAEAVInteger@@_JAEBV2@AEAVIntegerMath@@@Z 000000014000a510 f   Mod-60f3f2.o
 0001:000096c0       ?divide@Mod@@QEAA_NAEAVInteger@@AEBV2@110AEAVIntegerMath@@@Z 000000014000a6c0 f   Mod-60f3f2.o
 0001:000099e0       ??0NumbSys@@QEAA@XZ        000000014000a9e0 f   NumbSys-66456f.o
 0001:00009ae0       ??0NumbSys@@QEAA@AEBV0@@Z  000000014000aae0 f   NumbSys-66456f.o
 0001:00009c10       ??1NumbSys@@QEAA@XZ        000000014000ac10 f   NumbSys-66456f.o
 0001:00009c30       ?setupBaseArray@NumbSys@@AEAAXAEBVInteger@@AEAVIntegerMath@@@Z 000000014000ac30 f   NumbSys-66456f.o
 0001:00009df0       ?reduce@NumbSys@@QEAAXAEAVInteger@@AEBV2@1AEAVIntegerMath@@@Z 000000014000adf0 f   NumbSys-66456f.o
 0001:00009f40       ??0CharBuf@@QEAA@PEBD@Z    000000014000af40 f   CharBuf-d39804.o
 0001:00009fd0       ?setFromCharPoint@CharBuf@@QEAAXPEBD@Z 000000014000afd0 f   CharBuf-d39804.o
 0001:0000a120       ?setSize@CharBuf@@QEAAXH@Z 000000014000b120 f   CharBuf-d39804.o
 0001:0000a190       ?setFromInt64@CharBuf@@QEAAX_J@Z 000000014000b190 f   CharBuf-d39804.o
 0001:0000a530       ?appendChar@CharBuf@@QEAAXD@Z 000000014000b530 f   CharBuf-d39804.o
 0001:0000a5b0       ?setFromUint64@CharBuf@@QEAAX_K@Z 000000014000b5b0 f   CharBuf-d39804.o
 0001:0000a8e0       ??0CharBuf@@QEAA@AEBV0@@Z  000000014000b8e0 f   CharBuf-d39804.o
 0001:0000a980       ?increaseSize@CharBuf@@AEAAXH@Z 000000014000b980 f   CharBuf-d39804.o
 0001:0000a990       ?appendU8@CharBuf@@QEAAXI@Z 000000014000b990 f   CharBuf-d39804.o
 0001:0000aa10       ?appendU16@CharBuf@@QEAAXI@Z 000000014000ba10 f   CharBuf-d39804.o
 0001:0000aac0       ?appendU32@CharBuf@@QEAAXI@Z 000000014000bac0 f   CharBuf-d39804.o
 0001:0000ac40       ?appendU64@CharBuf@@QEAAX_K@Z 000000014000bc40 f   CharBuf-d39804.o
 0001:0000af30       ?getU32@CharBuf@@QEBAIH@Z  000000014000bf30 f   CharBuf-d39804.o
 0001:0000aff0       ?getU64@CharBuf@@QEBA_KH@Z 000000014000bff0 f   CharBuf-d39804.o
 0001:0000b180       ?get24Bits@CharBuf@@QEBAIH@Z 000000014000c180 f   CharBuf-d39804.o
 0001:0000b210       ?get16Bits@CharBuf@@QEBAIH@Z 000000014000c210 f   CharBuf-d39804.o
 0001:0000b290       ?append24Bits@CharBuf@@QEAAXI@Z 000000014000c290 f   CharBuf-d39804.o
 0001:0000b3c0       ?appendCharArray@CharBuf@@QEAAXAEBVByteArray@@H@Z 000000014000c3c0 f   CharBuf-d39804.o
 0001:0000b490       ?appendCharBuf@CharBuf@@QEAAXAEBV1@@Z 000000014000c490 f   CharBuf-d39804.o
 0001:0000b570       ?copy@CharBuf@@QEAAXAEBV1@@Z 000000014000c570 f   CharBuf-d39804.o
 0001:0000b590       ?copyToCharArray@CharBuf@@QEAAXAEAVByteArray@@@Z 000000014000c590 f   CharBuf-d39804.o
 0001:0000b680       ?copyToOpenCharArrayNoNull@CharBuf@@QEBAXAEAVOpenCharArray@@@Z 000000014000c680 f   CharBuf-d39804.o
 0001:0000b770       ?copyToOpenCharArrayNull@CharBuf@@QEBAXAEAVOpenCharArray@@@Z 000000014000c770 f   CharBuf-d39804.o
 0001:0000b8b0       ?copyFromOpenCharArrayNoNull@CharBuf@@QEAAXAEBVOpenCharArray@@@Z 000000014000c8b0 f   CharBuf-d39804.o
 0001:0000b9d0       ?copyFromOpenCharArrayNull@CharBuf@@QEAAXAEBVOpenCharArray@@@Z 000000014000c9d0 f   CharBuf-d39804.o
 0001:0000bb40       ?testBasics@CharBuf@@QEAAXXZ 000000014000cb40 f   CharBuf-d39804.o
 0001:0000bbd0       ?findChar@CharBuf@@QEAAHHD@Z 000000014000cbd0 f   CharBuf-d39804.o
 0001:0000bc50       ?isEqual@CharBuf@@QEBA_NAEBV1@@Z 000000014000cc50 f   CharBuf-d39804.o
 0001:0000bd20       ?appendCharPt@CharBuf@@QEAAXPEBD@Z 000000014000cd20 f   CharBuf-d39804.o
 0001:0000be60       ?reverse@CharBuf@@QEAAXXZ  000000014000ce60 f   CharBuf-d39804.o
 0001:0000c090       ?showHex@CharBuf@@QEBAXXZ  000000014000d090 f   CharBuf-d39804.o
 0001:0000c140       ?setFromHexTo256@CharBuf@@QEAAXAEBV1@@Z 000000014000d140 f   CharBuf-d39804.o
 0001:0000c720       ?increaseSize@ByteArray@@QEAAXH@Z 000000014000d720 f i CharBuf-d39804.o
 0001:0000c8e0       ?copy@ByteArray@@QEAAXAEBV1@HH@Z 000000014000d8e0 f i CharBuf-d39804.o
 0001:0000ca50       ?writeAll@FileIO@@SA_NPEBDAEBVCharBuf@@@Z 000000014000da50 f   FileIO-8f83e6.o
 0001:0000ccd0       ?readAll@FileIO@@SA_NPEBDAEAVCharBuf@@@Z 000000014000dcd0 f   FileIO-8f83e6.o
 0001:0000d090       ?exists@FileIO@@SA_NPEBD@Z 000000014000e090 f   FileIO-8f83e6.o
 0001:0000d1a0       ?copy@FileIO@@SA_NPEBD0@Z  000000014000e1a0 f   FileIO-8f83e6.o
 0001:0000d2a0       ??0?$basic_ofstream@DU?$char_traits@D@std@@@std@@QEAA@PEBDHH@Z 000000014000e2a0 f i FileIO-8f83e6.o
 0001:0000d600       ?write@?$basic_ostream@DU?$char_traits@D@std@@@std@@QEAAAEAV12@PEBD_J@Z 000000014000e600 f i FileIO-8f83e6.o
 0001:0000d870       ??_D?$basic_ofstream@DU?$char_traits@D@std@@@std@@QEAAXXZ 000000014000e870 f i FileIO-8f83e6.o
 0001:0000d900       ??0?$basic_ifstream@DU?$char_traits@D@std@@@std@@QEAA@PEBDHH@Z 000000014000e900 f i FileIO-8f83e6.o
 0001:0000dc70       ?seekg@?$basic_istream@DU?$char_traits@D@std@@@std@@QEAAAEAV12@_JH@Z 000000014000ec70 f i FileIO-8f83e6.o
 0001:0000df30       ?tellg@?$basic_istream@DU?$char_traits@D@std@@@std@@QEAA?AV?$fpos@U_Mbstatet@@@2@XZ 000000014000ef30 f i FileIO-8f83e6.o
 0001:0000e0c0       ?seekg@?$basic_istream@DU?$char_traits@D@std@@@std@@QEAAAEAV12@V?$fpos@U_Mbstatet@@@2@@Z 000000014000f0c0 f i FileIO-8f83e6.o
 0001:0000e380       ?read@?$basic_istream@DU?$char_traits@D@std@@@std@@QEAAAEAV12@PEAD_J@Z 000000014000f380 f i FileIO-8f83e6.o
 0001:0000e5b0       ??_D?$basic_ifstream@DU?$char_traits@D@std@@@std@@QEAAXXZ 000000014000f5b0 f i FileIO-8f83e6.o
 0001:0000e640       ??__E?id@?$codecvt@DDU_Mbstatet@@@std@@2V0locale@2@A@@YAXXZ 000000014000f640 f i FileIO-8f83e6.o
 0001:0000e650       ??1?$basic_filebuf@DU?$char_traits@D@std@@@std@@UEAA@XZ 000000014000f650 f i FileIO-8f83e6.o
 0001:0000e730       ??_E?$basic_ofstream@DU?$char_traits@D@std@@@std@@$4PPPPPPPM@A@EAAPEAXI@Z 000000014000f730 f i FileIO-8f83e6.o
 0001:0000e800       ?close@?$basic_filebuf@DU?$char_traits@D@std@@@std@@QEAAPEAV12@XZ 000000014000f800 f i FileIO-8f83e6.o
 0001:0000e970       ??_G?$basic_filebuf@DU?$char_traits@D@std@@@std@@UEAAPEAXI@Z 000000014000f970 f i FileIO-8f83e6.o
 0001:0000e9a0       ?_Lock@?$basic_filebuf@DU?$char_traits@D@std@@@std@@UEAAXXZ 000000014000f9a0 f i FileIO-8f83e6.o
 0001:0000e9c0       ?_Unlock@?$basic_filebuf@DU?$char_traits@D@std@@@std@@UEAAXXZ 000000014000f9c0 f i FileIO-8f83e6.o
 0001:0000e9e0       ?overflow@?$basic_filebuf@DU?$char_traits@D@std@@@std@@MEAAHH@Z 000000014000f9e0 f i FileIO-8f83e6.o
 0001:0000eb70       ?pbackfail@?$basic_filebuf@DU?$char_traits@D@std@@@std@@MEAAHH@Z 000000014000fb70 f i FileIO-8f83e6.o
 0001:0000ec60       ?showmanyc@?$basic_streambuf@DU?$char_traits@D@std@@@std@@MEAA_JXZ 000000014000fc60 f i FileIO-8f83e6.o
 0001:0000ec60       ?sync@?$basic_streambuf@DU?$char_traits@D@std@@@std@@MEAAHXZ 000000014000fc60 f i FileIO-8f83e6.o
 0001:0000ec70       ?underflow@?$basic_filebuf@DU?$char_traits@D@std@@@std@@MEAAHXZ 000000014000fc70 f i FileIO-8f83e6.o
 0001:0000ecc0       ?uflow@?$basic_filebuf@DU?$char_traits@D@std@@@std@@MEAAHXZ 000000014000fcc0 f i FileIO-8f83e6.o
 0001:0000f020       ?xsgetn@?$basic_filebuf@DU?$char_traits@D@std@@@std@@MEAA_JPEAD_J@Z 0000000140010020 f i FileIO-8f83e6.o
 0001:0000f1e0       ?xsputn@?$basic_filebuf@DU?$char_traits@D@std@@@std@@MEAA_JPEBD_J@Z 00000001400101e0 f i FileIO-8f83e6.o
 0001:0000f320       ?seekoff@?$basic_filebuf@DU?$char_traits@D@std@@@std@@MEAA?AV?$fpos@U_Mbstatet@@@2@_JHH@Z 0000000140010320 f i FileIO-8f83e6.o
 0001:0000f4a0       ?seekpos@?$basic_filebuf@DU?$char_traits@D@std@@@std@@MEAA?AV?$fpos@U_Mbstatet@@@2@V32@H@Z 00000001400104a0 f i FileIO-8f83e6.o
 0001:0000f5f0       ?setbuf@?$basic_filebuf@DU?$char_traits@D@std@@@std@@MEAAPEAV?$basic_streambuf@DU?$char_traits@D@std@@@2@PEAD_J@Z 00000001400105f0 f i FileIO-8f83e6.o
 0001:0000f730       ?sync@?$basic_filebuf@DU?$char_traits@D@std@@@std@@MEAAHXZ 0000000140010730 f i FileIO-8f83e6.o
 0001:0000f770       ?imbue@?$basic_filebuf@DU?$char_traits@D@std@@@std@@MEAAXAEBVlocale@2@@Z 0000000140010770 f i FileIO-8f83e6.o
 0001:0000f7f0       ??_G?$basic_streambuf@DU?$char_traits@D@std@@@std@@UEAAPEAXI@Z 00000001400107f0 f i FileIO-8f83e6.o
 0001:0000f850       ?_Lock@?$basic_streambuf@DU?$char_traits@D@std@@@std@@UEAAXXZ 0000000140010850 f i FileIO-8f83e6.o
 0001:0000f850       ?_Unlock@?$basic_streambuf@DU?$char_traits@D@std@@@std@@UEAAXXZ 0000000140010850 f i FileIO-8f83e6.o
 0001:0000f850       ?imbue@?$basic_streambuf@DU?$char_traits@D@std@@@std@@MEAAXAEBVlocale@2@@Z 0000000140010850 f i FileIO-8f83e6.o
 0001:0000f860       ?overflow@?$basic_streambuf@DU?$char_traits@D@std@@@std@@MEAAHH@Z 0000000140010860 f i FileIO-8f83e6.o
 0001:0000f860       ?pbackfail@?$basic_streambuf@DU?$char_traits@D@std@@@std@@MEAAHH@Z 0000000140010860 f i FileIO-8f83e6.o
 0001:0000f860       ?underflow@?$basic_streambuf@DU?$char_traits@D@std@@@std@@MEAAHXZ 0000000140010860 f i FileIO-8f83e6.o
 0001:0000f870       ?uflow@?$basic_streambuf@DU?$char_traits@D@std@@@std@@MEAAHXZ 0000000140010870 f i FileIO-8f83e6.o
 0001:0000f8c0       ?xsgetn@?$basic_streambuf@DU?$char_traits@D@std@@@std@@MEAA_JPEAD_J@Z 00000001400108c0 f i FileIO-8f83e6.o
 0001:0000f980       ?xsputn@?$basic_streambuf@DU?$char_traits@D@std@@@std@@MEAA_JPEBD_J@Z 0000000140010980 f i FileIO-8f83e6.o
 0001:0000fa40       ?seekoff@?$basic_streambuf@DU?$char_traits@D@std@@@std@@MEAA?AV?$fpos@U_Mbstatet@@@2@_JHH@Z 0000000140010a40 f i FileIO-8f83e6.o
 0001:0000fa40       ?seekpos@?$basic_streambuf@DU?$char_traits@D@std@@@std@@MEAA?AV?$fpos@U_Mbstatet@@@2@V32@H@Z 0000000140010a40 f i FileIO-8f83e6.o
 0001:0000fa60       ?setbuf@?$basic_streambuf@DU?$char_traits@D@std@@@std@@MEAAPEAV12@PEAD_J@Z 0000000140010a60 f i FileIO-8f83e6.o
 0001:0000fa70       ??1?$basic_string@DU?$char_traits@D@std@@V?$allocator@D@2@@std@@QEAA@XZ 0000000140010a70 f i FileIO-8f83e6.o
 0001:0000fb00       ??$_Reallocate_grow_by@V<lambda_1>@?0??push_back@?$basic_string@DU?$char_traits@D@std@@V?$allocator@D@2@@std@@QEAAXD@Z@D@?$basic_string@DU?$char_traits@D@std@@V?$allocator@D@2@@std@@AEAAAEAV01@_KV<lambda_1>@?0??push_back@01@QEAAXD@Z@D@Z 0000000140010b00 f i FileIO-8f83e6.o
 0001:0000fc80       ?_Xlen_string@std@@YAXXZ   0000000140010c80 f i FileIO-8f83e6.o
 0001:0000fca0       ?_Throw_bad_array_new_length@std@@YAXXZ 0000000140010ca0 f i FileIO-8f83e6.o
 0001:0000fce0       ??0bad_array_new_length@std@@QEAA@AEBV01@@Z 0000000140010ce0 f i FileIO-8f83e6.o
 0001:0000fd50       ??0bad_alloc@std@@QEAA@AEBV01@@Z 0000000140010d50 f i FileIO-8f83e6.o
 0001:0000fdc0       ??0exception@std@@QEAA@AEBV01@@Z 0000000140010dc0 f i FileIO-8f83e6.o
 0001:0000fe30       ??_E_System_error@std@@UEAAPEAXI@Z 0000000140010e30 f i FileIO-8f83e6.o
 0001:0000fe30       ??_Ebad_alloc@std@@UEAAPEAXI@Z 0000000140010e30 f i FileIO-8f83e6.o
 0001:0000fe30       ??_Ebad_array_new_length@std@@UEAAPEAXI@Z 0000000140010e30 f i FileIO-8f83e6.o
 0001:0000fe30       ??_Eexception@std@@UEAAPEAXI@Z 0000000140010e30 f i FileIO-8f83e6.o
 0001:0000fe30       ??_Efailure@ios_base@std@@UEAAPEAXI@Z 0000000140010e30 f i FileIO-8f83e6.o
 0001:0000fe30       ??_Eruntime_error@std@@UEAAPEAXI@Z 0000000140010e30 f i FileIO-8f83e6.o
 0001:0000fe30       ??_Esystem_error@std@@UEAAPEAXI@Z 0000000140010e30 f i FileIO-8f83e6.o
 0001:0000fe30       ??_G_System_error@std@@UEAAPEAXI@Z 0000000140010e30 f i FileIO-8f83e6.o
 0001:0000fe30       ??_Gbad_alloc@std@@UEAAPEAXI@Z 0000000140010e30 f i FileIO-8f83e6.o
 0001:0000fe30       ??_Gbad_array_new_length@std@@UEAAPEAXI@Z 0000000140010e30 f i FileIO-8f83e6.o
 0001:0000fe30       ??_Gexception@std@@UEAAPEAXI@Z 0000000140010e30 f i FileIO-8f83e6.o
 0001:0000fe30       ??_Gfailure@ios_base@std@@UEAAPEAXI@Z 0000000140010e30 f i FileIO-8f83e6.o
 0001:0000fe30       ??_Gruntime_error@std@@UEAAPEAXI@Z 0000000140010e30 f i FileIO-8f83e6.o
 0001:0000fe30       ??_Gsystem_error@std@@UEAAPEAXI@Z 0000000140010e30 f i FileIO-8f83e6.o
 0001:0000fea0       ?what@exception@std@@UEBAPEBDXZ 0000000140010ea0 f i FileIO-8f83e6.o
 0001:0000fec0       ??$use_facet@V?$codecvt@DDU_Mbstatet@@@std@@@std@@YAAEBV?$codecvt@DDU_Mbstatet@@@0@AEBVlocale@0@@Z 0000000140010ec0 f i FileIO-8f83e6.o
 0001:000100b0       ??0_Locinfo@std@@QEAA@PEBD@Z 00000001400110b0 f i FileIO-8f83e6.o
 0001:00010210       ??1_Locinfo@std@@QEAA@XZ   0000000140011210 f i FileIO-8f83e6.o
 0001:000102e0       ??_E?$codecvt@DDU_Mbstatet@@@std@@MEAAPEAXI@Z 00000001400112e0 f i FileIO-8f83e6.o
 0001:000102e0       ??_E_Iostream_error_category2@std@@UEAAPEAXI@Z 00000001400112e0 f i FileIO-8f83e6.o
 0001:000102e0       ??_G?$codecvt@DDU_Mbstatet@@@std@@MEAAPEAXI@Z 00000001400112e0 f i FileIO-8f83e6.o
 0001:000102e0       ??_G_Iostream_error_category2@std@@UEAAPEAXI@Z 00000001400112e0 f i FileIO-8f83e6.o
 0001:00010300       ?_Incref@facet@locale@std@@UEAAXXZ 0000000140011300 f i FileIO-8f83e6.o
 0001:00010310       ?_Decref@facet@locale@std@@UEAAPEAV_Facet_base@3@XZ 0000000140011310 f i FileIO-8f83e6.o
 0001:00010320       ?do_always_noconv@?$codecvt@DDU_Mbstatet@@@std@@MEBA_NXZ 0000000140011320 f i FileIO-8f83e6.o
 0001:00010320       __acrt_uninitialize_command_line 0000000140011320 f i libucrt:argv_data.obj
 0001:00010320       _should_initialize_environment 0000000140011320 f i libcmt:env_mode.obj
 0001:00010330       ?do_encoding@codecvt_base@std@@MEBAHXZ 0000000140011330 f i FileIO-8f83e6.o
 0001:00010330       ?do_max_length@codecvt_base@std@@MEBAHXZ 0000000140011330 f i FileIO-8f83e6.o
 0001:00010330       _get_startup_argv_mode     0000000140011330 f i libcmt:argv_mode.obj
 0001:00010340       ?do_in@?$codecvt@DDU_Mbstatet@@@std@@MEBAHAEAU_Mbstatet@@PEBD1AEAPEBDPEAD3AEAPEAD@Z 0000000140011340 f i FileIO-8f83e6.o
 0001:00010340       ?do_out@?$codecvt@DDU_Mbstatet@@@std@@MEBAHAEAU_Mbstatet@@PEBD1AEAPEBDPEAD3AEAPEAD@Z 0000000140011340 f i FileIO-8f83e6.o
 0001:00010360       ?do_unshift@?$codecvt@DDU_Mbstatet@@@std@@MEBAHAEAU_Mbstatet@@PEAD1AEAPEAD@Z 0000000140011360 f i FileIO-8f83e6.o
 0001:00010370       ?do_length@?$codecvt@DDU_Mbstatet@@@std@@MEBAHAEAU_Mbstatet@@PEBD1_K@Z 0000000140011370 f i FileIO-8f83e6.o
 0001:00010390       ??_E_Facet_base@std@@UEAAPEAXI@Z 0000000140011390 f i FileIO-8f83e6.o
 0001:00010390       ??_G_Facet_base@std@@UEAAPEAXI@Z 0000000140011390 f i FileIO-8f83e6.o
 0001:000103a0       ??_G?$basic_ios@DU?$char_traits@D@std@@@std@@UEAAPEAXI@Z 00000001400113a0 f i FileIO-8f83e6.o
 0001:000103a0       ??_Gios_base@std@@UEAAPEAXI@Z 00000001400113a0 f i FileIO-8f83e6.o
 0001:00010400       ??_E?$basic_ifstream@DU?$char_traits@D@std@@@std@@$4PPPPPPPM@A@EAAPEAXI@Z 0000000140011400 f i FileIO-8f83e6.o
 0001:000104d0       ?open@?$basic_filebuf@DU?$char_traits@D@std@@@std@@QEAAPEAV12@PEBDHH@Z 00000001400114d0 f i FileIO-8f83e6.o
 0001:000106f0       ?setstate@?$basic_ios@DU?$char_traits@D@std@@@std@@QEAAXH_N@Z 00000001400116f0 f i FileIO-8f83e6.o
 0001:00010790       ?init@?$basic_ios@DU?$char_traits@D@std@@@std@@IEAAXPEAV?$basic_streambuf@DU?$char_traits@D@std@@@2@_N@Z 0000000140011790 f i FileIO-8f83e6.o
 0001:00010940       ??_E?$basic_ostream@DU?$char_traits@D@std@@@std@@$4PPPPPPPM@A@EAAPEAXI@Z 0000000140011940 f i FileIO-8f83e6.o
 0001:000109c0       ?make_error_code@std@@YA?AVerror_code@1@W4io_errc@1@@Z 00000001400119c0 f i FileIO-8f83e6.o
 0001:00010a40       ??0failure@ios_base@std@@QEAA@PEBDAEBVerror_code@2@@Z 0000000140011a40 f i FileIO-8f83e6.o
 0001:00010a80       ??0failure@ios_base@std@@QEAA@AEBV012@@Z 0000000140011a80 f i FileIO-8f83e6.o
 0001:00010b00       ??0system_error@std@@QEAA@AEBV01@@Z 0000000140011b00 f i FileIO-8f83e6.o
 0001:00010b80       ??0_System_error@std@@QEAA@AEBV01@@Z 0000000140011b80 f i FileIO-8f83e6.o
 0001:00010c00       ??0runtime_error@std@@QEAA@AEBV01@@Z 0000000140011c00 f i FileIO-8f83e6.o
 0001:00010c70       ??1exception@std@@UEAA@XZ  0000000140011c70 f i FileIO-8f83e6.o
 0001:00010cc0       ?name@_Iostream_error_category2@std@@UEBAPEBDXZ 0000000140011cc0 f i FileIO-8f83e6.o
 0001:00010cd0       ?message@_Iostream_error_category2@std@@UEBA?AV?$basic_string@DU?$char_traits@D@std@@V?$allocator@D@2@@2@H@Z 0000000140011cd0 f i FileIO-8f83e6.o
 0001:00010e00       ?default_error_condition@error_category@std@@UEBA?AVerror_condition@2@H@Z 0000000140011e00 f i FileIO-8f83e6.o
 0001:00010e10       ?equivalent@error_category@std@@UEBA_NAEBVerror_code@2@H@Z 0000000140011e10 f i FileIO-8f83e6.o
 0001:00010e30       ?equivalent@error_category@std@@UEBA_NHAEBVerror_condition@2@@Z 0000000140011e30 f i FileIO-8f83e6.o
 0001:00010e70       ??0system_error@std@@QEAA@Verror_code@1@PEBD@Z 0000000140011e70 f i FileIO-8f83e6.o
 0001:00011010       ??0_System_error@std@@IEAA@Verror_code@1@AEBV?$basic_string@DU?$char_traits@D@std@@V?$allocator@D@2@@1@@Z 0000000140012010 f i FileIO-8f83e6.o
 0001:000111d0       ?_Makestr@_System_error@std@@CA?AV?$basic_string@DU?$char_traits@D@std@@V?$allocator@D@2@@2@Verror_code@2@V32@@Z 00000001400121d0 f i FileIO-8f83e6.o
 0001:000113c0       ??$_Reallocate_grow_by@V<lambda_1>@?0??append@?$basic_string@DU?$char_traits@D@std@@V?$allocator@D@2@@std@@QEAAAEAV34@QEBD_K@Z@PEBD_K@?$basic_string@DU?$char_traits@D@std@@V?$allocator@D@2@@std@@AEAAAEAV01@_KV<lambda_1>@?0??append@01@QEAAAEAV01@QEBD0@Z@PEBD_K@Z 00000001400123c0 f i FileIO-8f83e6.o
 0001:00011560       ??$use_facet@V?$ctype@D@std@@@std@@YAAEBV?$ctype@D@0@AEBVlocale@0@@Z 0000000140012560 f i FileIO-8f83e6.o
 0001:00011760       ??_E?$ctype@D@std@@MEAAPEAXI@Z 0000000140012760 f i FileIO-8f83e6.o
 0001:00011760       ??_G?$ctype@D@std@@MEAAPEAXI@Z 0000000140012760 f i FileIO-8f83e6.o
 0001:000117c0       ?do_tolower@?$ctype@D@std@@MEBAPEBDPEADPEBD@Z 00000001400127c0 f i FileIO-8f83e6.o
 0001:00011810       ?do_tolower@?$ctype@D@std@@MEBADD@Z 0000000140012810 f i FileIO-8f83e6.o
 0001:00011820       ?do_toupper@?$ctype@D@std@@MEBAPEBDPEADPEBD@Z 0000000140012820 f i FileIO-8f83e6.o
 0001:00011870       ?do_toupper@?$ctype@D@std@@MEBADD@Z 0000000140012870 f i FileIO-8f83e6.o
 0001:00011880       ?do_widen@?$ctype@D@std@@MEBAPEBDPEBD0PEAD@Z 0000000140012880 f i FileIO-8f83e6.o
 0001:000118a0       ?do_narrow@?$ctype@D@std@@MEBADDD@Z 00000001400128a0 f i FileIO-8f83e6.o
 0001:000118a0       ?do_widen@?$ctype@D@std@@MEBADD@Z 00000001400128a0 f i FileIO-8f83e6.o
 0001:000118b0       ?do_narrow@?$ctype@D@std@@MEBAPEBDPEBD0DPEAD@Z 00000001400128b0 f i FileIO-8f83e6.o
 0001:000118d0       ??1sentry@?$basic_ostream@DU?$char_traits@D@std@@@std@@QEAA@XZ 00000001400128d0 f i FileIO-8f83e6.o
 0001:00011940       ?flush@?$basic_ostream@DU?$char_traits@D@std@@@std@@QEAAAEAV12@XZ 0000000140012940 f i FileIO-8f83e6.o
 0001:00011b90       ??1_Sentry_base@?$basic_istream@DU?$char_traits@D@std@@@std@@QEAA@XZ 0000000140012b90 f i FileIO-8f83e6.o
 0001:00011b90       ??1_Sentry_base@?$basic_ostream@DU?$char_traits@D@std@@@std@@QEAA@XZ 0000000140012b90 f i FileIO-8f83e6.o
 0001:00011bf0       ?_Osfx@?$basic_ostream@DU?$char_traits@D@std@@@std@@QEAAXXZ 0000000140012bf0 f i FileIO-8f83e6.o
 0001:00011d00       ??_E?$basic_istream@DU?$char_traits@D@std@@@std@@$4PPPPPPPM@A@EAAPEAXI@Z 0000000140012d00 f i FileIO-8f83e6.o
 0001:00011d80       ?_Ipfx@?$basic_istream@DU?$char_traits@D@std@@@std@@QEAA_N_N@Z 0000000140012d80 f i FileIO-8f83e6.o
 0001:00012070       ?printFStack@StIO@@SAXXZ   0000000140013070 f   StIO-3fea2d.o
 0001:000120b0       ?printF@StIO@@SAXPEBD@Z    00000001400130b0 f   StIO-3fea2d.o
 0001:000120d0       ?putS@StIO@@SAXPEBD@Z      00000001400130d0 f   StIO-3fea2d.o
 0001:000120e0       ?printFD@StIO@@SAX_J@Z     00000001400130e0 f   StIO-3fea2d.o
 0001:00012100       ?printFUD@StIO@@SAX_K@Z    0000000140013100 f   StIO-3fea2d.o
 0001:00012120       ?printFX@StIO@@SAXI@Z      0000000140013120 f   StIO-3fea2d.o
 0001:00012140       ?putChar@StIO@@SAXH@Z      0000000140013140 f   StIO-3fea2d.o
 0001:00012150       ?putLF@StIO@@SAXXZ         0000000140013150 f   StIO-3fea2d.o
 0001:00012160       ?putWChar@StIO@@SAXG@Z     0000000140013160 f   StIO-3fea2d.o
 0001:00012170       ?putCharBuf@StIO@@SAXAEBVCharBuf@@@Z 0000000140013170 f   StIO-3fea2d.o
 0001:000121f0       printf                     00000001400131f0 f i StIO-3fea2d.o
 0001:00012250       __local_stdio_printf_options 0000000140013250 f i StIO-3fea2d.o
 0001:00012260       ?sleep@Threads@@SAXH@Z     0000000140013260 f   Threads-1f69c9.o
 0001:00012280       ??$sleep_for@_JU?$ratio@$00$0DOI@@std@@@this_thread@std@@YAXAEBV?$duration@_JU?$ratio@$00$0DOI@@std@@@chrono@1@@Z 0000000140013280 f i Threads-1f69c9.o
 0001:000123c0       ??$sleep_until@Usteady_clock@chrono@std@@V?$duration@_JU?$ratio@$00$0DLJKMKAA@@std@@@23@@this_thread@std@@YAXAEBV?$time_point@Usteady_clock@chrono@std@@V?$duration@_JU?$ratio@$00$0DLJKMKAA@@std@@@23@@chrono@1@@Z 00000001400133c0 f i Threads-1f69c9.o
 0001:00012530       ?setSize@Uint16Buf@@QEAAXH@Z 0000000140013530 f   Uint16Buf-9ce39c.o
 0001:00012590       ?increaseSize@Uint16Buf@@AEAAXH@Z 0000000140013590 f   Uint16Buf-9ce39c.o
 0001:000125a0       ?copy@Uint16Buf@@QEAAXAEBV1@@Z 00000001400135a0 f   Uint16Buf-9ce39c.o
 0001:000125c0       ?appendU16@Uint16Buf@@QEAAXG@Z 00000001400135c0 f   Uint16Buf-9ce39c.o
 0001:00012640       ?appendCharBuf@Uint16Buf@@QEAAXAEBVCharBuf@@@Z 0000000140013640 f   Uint16Buf-9ce39c.o
 0001:000127a0       ?increaseSize@Uint16Array@@QEAAXH@Z 00000001400137a0 f i Uint16Buf-9ce39c.o
 0001:00012930       ?copy@Uint16Array@@QEAAXAEBV1@HH@Z 0000000140013930 f i Uint16Buf-9ce39c.o
 0001:00012ac0       ?u16BufToCharBuf@UTF8Str@@SAXAEBVUint16Buf@@AEAVCharBuf@@@Z 0000000140013ac0 f   UTF8Str-a526aa.o
 0001:00012bd0       ?charBufToU16Buf@UTF8Str@@QEAAXAEBVCharBuf@@AEAVUint16Buf@@@Z 0000000140013bd0 f   UTF8Str-a526aa.o
 0001:00012d80       ?parseOneExten@CertExten@@QEAA_NAEBVCharBuf@@AEAV2@@Z 0000000140013d80 f   CertExten-605d09.o
 0001:00013440       ?parseBasicConstraints@CertExten@@QEAA_N_N@Z 0000000140014440 f   CertExten-605d09.o
 0001:00013460       ?parseKeyUsage@CertExten@@QEAA_N_N@Z 0000000140014460 f   CertExten-605d09.o
 0001:00013480       ?parseOneCert@Certificate@@QEAAIAEBVCharBuf@@AEAVTlsMain@@@Z 0000000140014480 f   Certificate-25f9b2.o
 0001:00013d30       ?parseTbsCert@Certificate@@QEAAIAEBVCharBuf@@AEAVTlsMain@@@Z 0000000140014d30 f   Certificate-25f9b2.o
 0001:00013e20       ?parseAlgID@Certificate@@QEAAIAEBVCharBuf@@@Z 0000000140014e20 f   Certificate-25f9b2.o
 0001:00013e70       ?parseVersion@Certificate@@QEAAHAEBVCharBuf@@@Z 0000000140014e70 f   Certificate-25f9b2.o
 0001:00014170       ?parseSerialNum@Certificate@@QEAAHAEBVCharBuf@@HAEAVTlsMain@@@Z 0000000140015170 f   Certificate-25f9b2.o
 0001:00014480       ?parseTbsSigAlgID@Certificate@@QEAAHAEBVCharBuf@@H@Z 0000000140015480 f   Certificate-25f9b2.o
 0001:00014960       ?parseIssuer@Certificate@@QEAAHAEBVCharBuf@@H@Z 0000000140015960 f   Certificate-25f9b2.o
 0001:00015110       ?parseValidity@Certificate@@QEAAHAEBVCharBuf@@H@Z 0000000140016110 f   Certificate-25f9b2.o
 0001:00015540       ?parseSubject@Certificate@@QEAAHAEBVCharBuf@@H@Z 0000000140016540 f   Certificate-25f9b2.o
 0001:00015cb0       ?parseSubjectPubKey@Certificate@@QEAAHAEBVCharBuf@@HAEAVTlsMain@@@Z 0000000140016cb0 f   Certificate-25f9b2.o
 0001:00016620       ?parseUniqueID@Certificate@@QEAAHAEBVCharBuf@@H@Z 0000000140017620 f   Certificate-25f9b2.o
 0001:000168b0       ?parseExtensions@Certificate@@QEAAHAEBVCharBuf@@H@Z 00000001400178b0 f   Certificate-25f9b2.o
 0001:00016f30       ??0CertExten@@QEAA@XZ      0000000140017f30 f i Certificate-25f9b2.o
 0001:00017630       ??1CertExten@@QEAA@XZ      0000000140018630 f i Certificate-25f9b2.o
 0001:000176d0       ?parseCertMsg@CertMesg@@QEAAIAEBVCharBuf@@AEAVTlsMain@@@Z 00000001400186d0 f   CertMesg-a4ef86.o
 0001:00017f00       ?parseCertVerMsg@CertVerMesg@@QEAAIAEBVCharBuf@@AEAVTlsMain@@@Z 0000000140018f00 f   CertVerMesg-c5b315.o
 0001:00017f60       ??0ClientHello@@QEAA@XZ    0000000140018f60 f   ClientHello-c57bea.o
 0001:00018000       ??0ClientHello@@QEAA@AEBV0@@Z 0000000140019000 f   ClientHello-c57bea.o
 0001:000180f0       ??1ClientHello@@QEAA@XZ    00000001400190f0 f   ClientHello-c57bea.o
 0001:00018100       ?parseBuffer@ClientHello@@QEAAIAEBVCharBuf@@AEAVTlsMain@@AEAVEncryptTls@@@Z 0000000140019100 f   ClientHello-c57bea.o
 0001:000188f0       ?makeHelloBuf@ClientHello@@QEAAXAEAVCharBuf@@AEAVTlsMain@@AEAVEncryptTls@@@Z 00000001400198f0 f   ClientHello-c57bea.o
 0001:00019190       ?startTestVecHandshake@ClientTls@@QEAA_NAEBVCharBuf@@0@Z 000000014001a190 f   ClientTls-8977a0.o
 0001:000191a0       ?startHandshake@ClientTls@@QEAA_NAEBVCharBuf@@0@Z 000000014001a1a0 f   ClientTls-8977a0.o
 0001:000191b0       ?processData@ClientTls@@QEAAHXZ 000000014001a1b0 f   ClientTls-8977a0.o
 0001:00019280       ?getValue@DerEncode@@QEBAXAEAVCharBuf@@@Z 000000014001a280 f   DerEncode-6ee611.o
 0001:00019290       ?readOneTag@DerEncode@@QEAAHAEBVCharBuf@@HAEA_NAEAV2@H@Z 000000014001a290 f   DerEncode-6ee611.o
 0001:00019a30       ?showTag@DerEncode@@QEAAXIIAEAVCharBuf@@@Z 000000014001aa30 f   DerEncode-6ee611.o
 0001:00019de0       ?readAllTags@DerEncodeLoop@@QEAAHAEBVCharBuf@@HAEAV2@H@Z 000000014001ade0 f   DerEncodeLoop-71fc1e.o
 0001:0001a080       ?makeFromCharBuf@DerObjID@@SAXAEBVCharBuf@@AEAV2@@Z 000000014001b080 f   DerObjID-cf3353.o
 0001:0001a7c0       ?getOneNumber@DerObjID@@SA_KAEAVCharBuf@@@Z 000000014001b7c0 f   DerObjID-cf3353.o
 0001:0001a9b0       ?extract@EncryptTls@@AEAAXAEAVCharBuf@@AEBV2@1@Z 000000014001b9b0 f   EncryptTls-97e3d9.o
 0001:0001a9c0       ?expand@EncryptTls@@AEAAXAEAVCharBuf@@AEBV2@1@Z 000000014001b9c0 f   EncryptTls-97e3d9.o
 0001:0001ab10       ?hkdfExpandLabel@EncryptTls@@AEAAXAEAVCharBuf@@AEBV2@11H@Z 000000014001bb10 f   EncryptTls-97e3d9.o
 0001:0001ad90       ?deriveSecret@EncryptTls@@AEAAXAEAVCharBuf@@AEBV2@11@Z 000000014001bd90 f   EncryptTls-97e3d9.o
 0001:0001aee0       ?setHandshakeKeys@EncryptTls@@QEAAXAEAVTlsMain@@AEAVInteger@@@Z 000000014001bee0 f   EncryptTls-97e3d9.o
 0001:0001c6f0       ?makeMsgTranscript2@EncryptTls@@AEAAXAEAVCharBuf@@AEAVTlsMain@@@Z 000000014001d6f0 f   EncryptTls-97e3d9.o
 0001:0001ce20       ?setAppDataKeys@EncryptTls@@QEAAXAEAVTlsMain@@@Z 000000014001de20 f   EncryptTls-97e3d9.o
 0001:0001dc90       ?setDiffHelmOnClient@EncryptTls@@QEAAXAEAVTlsMain@@AEAVInteger@@@Z 000000014001ec90 f   EncryptTls-97e3d9.o
 0001:0001ded0       ?setDiffHelmOnServer@EncryptTls@@QEAAXAEAVTlsMain@@AEAVInteger@@@Z 000000014001eed0 f   EncryptTls-97e3d9.o
 0001:0001e110       ?srvWriteDecryptCharBuf@EncryptTls@@QEAAXAEBVCharBuf@@AEAV2@@Z 000000014001f110 f   EncryptTls-97e3d9.o
 0001:0001e480       ?clWriteDecryptCharBuf@EncryptTls@@QEAAXAEBVCharBuf@@AEAV2@@Z 000000014001f480 f   EncryptTls-97e3d9.o
 0001:0001e7f0       ?makeClFinishedMsg@EncryptTls@@QEAAXAEAVTlsMain@@AEAVCharBuf@@@Z 000000014001f7f0 f   EncryptTls-97e3d9.o
 0001:0001e800       ?xorFrom@CharBuf@@QEAAXAEBV1@@Z 000000014001f800 f i EncryptTls-97e3d9.o
 0001:0001e8c0       ?setFromMsg@ExtenList@@QEAAIAEBVCharBuf@@HAEAVTlsMain@@_NAEAVEncryptTls@@@Z 000000014001f8c0 f   ExtenList-52deab.o
 0001:0001eff0       ?setOneExt@ExtenList@@AEAAIIAEBVCharBuf@@AEAVTlsMain@@_NAEAVEncryptTls@@@Z 000000014001fff0 f   ExtenList-52deab.o
 0001:0001f2e0       ?makeClHelloBuf@ExtenList@@QEAA_NAEAVCharBuf@@AEAVTlsMain@@AEAVEncryptTls@@@Z 00000001400202e0 f   ExtenList-52deab.o
 0001:0001f860       ?makeSrvHelloBuf@ExtenList@@QEAA_NAEAVCharBuf@@AEAVTlsMain@@AEAVEncryptTls@@@Z 0000000140020860 f   ExtenList-52deab.o
 0001:0001fb50       ?sessionTicket@Extension@@QEAAIXZ 0000000140020b50 f   Extension-75d7f9.o
 0001:0001fb70       ?serverName@Extension@@QEAAIAEBVCharBuf@@AEAVTlsMain@@@Z 0000000140020b70 f   Extension-75d7f9.o
 0001:0001fe90       ?supportedVersions@Extension@@QEAAIAEBVCharBuf@@AEAVTlsMain@@_N@Z 0000000140020e90 f   Extension-75d7f9.o
 0001:000200e0       ?supportedGroups@Extension@@QEAAIAEBVCharBuf@@AEAVTlsMain@@@Z 00000001400210e0 f   Extension-75d7f9.o
 0001:000202b0       ?signatureAlgorithms@Extension@@QEAAIAEBVCharBuf@@AEAVTlsMain@@@Z 00000001400212b0 f   Extension-75d7f9.o
 0001:00020410       ?signatureAlgorithmsCert@Extension@@QEAAIAEBVCharBuf@@AEAVTlsMain@@@Z 0000000140021410 f   Extension-75d7f9.o
 0001:00020460       ?keyShare@Extension@@QEAAIAEBVCharBuf@@AEAVTlsMain@@_NAEAVEncryptTls@@@Z 0000000140021460 f   Extension-75d7f9.o
 0001:000208f0       ?parseMsg@FinishedMesg@@QEAAIAEBVCharBuf@@AEAVTlsMain@@@Z 00000001400218f0 f   FinishedMesg-8cddce.o
 0001:00020940       ??0HandshakeCl@@QEAA@XZ    0000000140021940 f   HandshakeCl-e7316f.o
 0001:00020bc0       ??0HandshakeCl@@QEAA@AEBV0@@Z 0000000140021bc0 f   HandshakeCl-e7316f.o
 0001:00020e00       ??1HandshakeCl@@QEAA@XZ    0000000140021e00 f   HandshakeCl-e7316f.o
 0001:00020e50       ?accumByte@HandshakeCl@@AEAAIE@Z 0000000140021e50 f   HandshakeCl-e7316f.o
 0001:00021070       ?parseMessage@HandshakeCl@@AEAAIAEAVTlsMain@@AEAEAEAVEncryptTls@@@Z 0000000140022070 f   HandshakeCl-e7316f.o
 0001:00021590       ?processInBuf@HandshakeCl@@QEAAIAEBVCharBuf@@AEAVTlsMain@@AEAEAEAVEncryptTls@@@Z 0000000140022590 f   HandshakeCl-e7316f.o
 0001:00021800       ?makeClHelloBuf@HandshakeCl@@QEAAXAEAVCharBuf@@AEAVTlsMain@@AEAVEncryptTls@@@Z 0000000140022800 f   HandshakeCl-e7316f.o
 0001:00021a60       ??0HandshakeSrv@@QEAA@XZ   0000000140022a60 f   HandshakeSrv-eaa349.o
 0001:00021ce0       ??0HandshakeSrv@@QEAA@AEBV0@@Z 0000000140022ce0 f   HandshakeSrv-eaa349.o
 0001:00021f20       ??1HandshakeSrv@@QEAA@XZ   0000000140022f20 f   HandshakeSrv-eaa349.o
 0001:00021f70       ?accumByte@HandshakeSrv@@AEAAIE@Z 0000000140022f70 f   HandshakeSrv-eaa349.o
 0001:00022190       ?parseMessage@HandshakeSrv@@AEAAIAEAVTlsMain@@AEAEAEAVEncryptTls@@@Z 0000000140023190 f   HandshakeSrv-eaa349.o
 0001:00022460       ?processInBuf@HandshakeSrv@@QEAAIAEBVCharBuf@@AEAVTlsMain@@AEAEAEAVEncryptTls@@@Z 0000000140023460 f   HandshakeSrv-eaa349.o
 0001:000226d0       ?makeSrvHelloBuf@HandshakeSrv@@QEAAXAEAVCharBuf@@AEAVTlsMain@@AEAVEncryptTls@@@Z 00000001400236d0 f   HandshakeSrv-eaa349.o
 0001:00022940       ??0NetClient@@QEAA@XZ      0000000140023940 f   NetClient-bca97d.o
 0001:00022960       ??0NetClient@@QEAA@AEBV0@@Z 0000000140023960 f   NetClient-bca97d.o
 0001:000229b0       ??1NetClient@@QEAA@XZ      00000001400239b0 f   NetClient-bca97d.o
 0001:00022a10       ?closeSocket@NetClient@@QEAAXXZ 0000000140023a10 f   NetClient-bca97d.o
 0001:00022a40       ?connect@NetClient@@QEAA_NAEBVCharBuf@@0@Z 0000000140023a40 f   NetClient-bca97d.o
 0001:00022a80       ?sendCharBuf@NetClient@@QEAAHAEBVCharBuf@@@Z 0000000140023a80 f   NetClient-bca97d.o
 0001:00022aa0       ?receiveCharBuf@NetClient@@QEAA_NAEAVCharBuf@@@Z 0000000140023aa0 f   NetClient-bca97d.o
 0001:00022af0       ??0SClientArray@@QEAA@XZ   0000000140023af0 f   SClientArray-44ad03.o
 0001:00022b60       ??0SClientArray@@QEAA@AEBV0@@Z 0000000140023b60 f   SClientArray-44ad03.o
 0001:00022c00       ??1SClientArray@@QEAA@XZ   0000000140023c00 f   SClientArray-44ad03.o
 0001:00022c10       ?addNewClient@SClientArray@@QEAA_NPEAVSrvClient@@@Z 0000000140023c10 f   SClientArray-44ad03.o
 0001:00022c80       ?closeAllSockets@SClientArray@@QEAAXXZ 0000000140023c80 f   SClientArray-44ad03.o
 0001:00022ce0       ?processData@SClientArray@@QEAAXXZ 0000000140023ce0 f   SClientArray-44ad03.o
 0001:00022d70       ??0Server@@QEAA@XZ         0000000140023d70 f   Server-6b994e.o
 0001:00022da0       ??0Server@@QEAA@AEBV0@@Z   0000000140023da0 f   Server-6b994e.o
 0001:00022e40       ??1Server@@QEAA@XZ         0000000140023e40 f   Server-6b994e.o
 0001:00022e50       ?addNewClient@Server@@QEAA_NPEAVSrvClient@@@Z 0000000140023e50 f   Server-6b994e.o
 0001:00022e60       ?startServer@Server@@QEAA_NPEBD0@Z 0000000140023e60 f   Server-6b994e.o
 0001:00022ec0       ?oneLoop@Server@@QEAA_NXZ  0000000140023ec0 f   Server-6b994e.o
 0001:00022f30       ??0ServerHello@@QEAA@XZ    0000000140023f30 f   ServerHello-92682c.o
 0001:00022fd0       ??0ServerHello@@QEAA@AEBV0@@Z 0000000140023fd0 f   ServerHello-92682c.o
 0001:000230c0       ??1ServerHello@@QEAA@XZ    00000001400240c0 f   ServerHello-92682c.o
 0001:000230d0       ?parseBuffer@ServerHello@@QEAAIAEBVCharBuf@@AEAVTlsMain@@AEAVEncryptTls@@@Z 00000001400240d0 f   ServerHello-92682c.o
 0001:00023700       ?makeHelloBuf@ServerHello@@QEAAXAEAVCharBuf@@AEAVTlsMain@@AEAVEncryptTls@@@Z 0000000140024700 f   ServerHello-92682c.o
 0001:00023e20       ??0ServerTls@@QEAA@XZ      0000000140024e20 f   ServerTls-6fd03c.o
 0001:00023e40       ??0ServerTls@@QEAA@AEBV0@@Z 0000000140024e40 f   ServerTls-6fd03c.o
 0001:00023ed0       ??1ServerTls@@QEAA@XZ      0000000140024ed0 f   ServerTls-6fd03c.o
 0001:00023ee0       ?startServer@ServerTls@@QEAA_NPEBD0@Z 0000000140024ee0 f   ServerTls-6fd03c.o
 0001:00023ef0       ?mainLoop@ServerTls@@QEAAXXZ 0000000140024ef0 f   ServerTls-6fd03c.o
 0001:000240e0       ??0SocketGetAddress@@QEAA@XZ 00000001400250e0 f   SocketsApiWin-7e7fe5.o
 0001:000240f0       ??1SocketGetAddress@@QEAA@XZ 00000001400250f0 f   SocketsApiWin-7e7fe5.o
 0001:00024150       ?getAddressInfo@SocketGetAddress@@QEAA_NAEBVCharBuf@@0_N1@Z 0000000140025150 f   SocketsApiWin-7e7fe5.o
 0001:00024300       ?moveToNextAddr@SocketGetAddress@@QEAA_NXZ 0000000140025300 f   SocketsApiWin-7e7fe5.o
 0001:00024320       ?getAddressBuf@SocketGetAddress@@SA_NAEAVCharBuf@@PEAUsockaddr@@@Z 0000000140025320 f   SocketsApiWin-7e7fe5.o
 0001:00024510       ??0SocketsApi@@QEAA@XZ     0000000140025510 f   SocketsApiWin-7e7fe5.o
 0001:00024560       ??0SocketsApi@@QEAA@AEBV0@@Z 0000000140025560 f   SocketsApiWin-7e7fe5.o
 0001:000245a0       ??1SocketsApi@@QEAA@XZ     00000001400255a0 f   SocketsApiWin-7e7fe5.o
 0001:000245e0       ?closeSocket@SocketsApi@@SAX_K@Z 00000001400255e0 f   SocketsApiWin-7e7fe5.o
 0001:00024600       ?shutdownRead@SocketsApi@@SAX_K@Z 0000000140025600 f   SocketsApiWin-7e7fe5.o
 0001:00024610       ?connectClient@SocketsApi@@SA_KAEBVCharBuf@@0@Z 0000000140025610 f   SocketsApiWin-7e7fe5.o
 0001:00024aa0       ?setNonBlocking@SocketsApi@@SA_N_K@Z 0000000140025aa0 f   SocketsApiWin-7e7fe5.o
 0001:00024b10       ?openServer@SocketsApi@@SA_KPEBD0_N@Z 0000000140025b10 f   SocketsApiWin-7e7fe5.o
 0001:00024ed0       ?acceptConnect@SocketsApi@@SA_K_KAEAVCharBuf@@@Z 0000000140025ed0 f   SocketsApiWin-7e7fe5.o
 0001:00025050       ?sendCharBuf@SocketsApi@@SAH_KAEBVCharBuf@@@Z 0000000140026050 f   SocketsApiWin-7e7fe5.o
 0001:000251f0       ?receiveCharBuf@SocketsApi@@SA_N_KAEAVCharBuf@@@Z 00000001400261f0 f   SocketsApiWin-7e7fe5.o
 0001:00025320       ??0SrvClient@@IEAA@XZ      0000000140026320 f   SrvClient-d45776.o
 0001:00025370       ??0SrvClient@@QEAA@_K@Z    0000000140026370 f   SrvClient-d45776.o
 0001:000253b0       ??0SrvClient@@QEAA@AEBV0@@Z 00000001400263b0 f   SrvClient-d45776.o
 0001:00025410       ??1SrvClient@@UEAA@XZ      0000000140026410 f   SrvClient-d45776.o
 0001:00025480       ?processData@SrvClient@@UEAAHXZ 0000000140026480 f   SrvClient-d45776.o
 0001:00025490       ?readSocket@SrvClient@@QEAAXAEAVCharBuf@@@Z 0000000140026490 f   SrvClient-d45776.o
 0001:000254e0       ?writeSocket@SrvClient@@QEAAHAEBVCharBuf@@@Z 00000001400264e0 f   SrvClient-d45776.o
 0001:00025530       ??_GSrvClient@@UEAAPEAXI@Z 0000000140026530 f i SrvClient-d45776.o
 0001:000255b0       ??0SrvClTls@@IEAA@XZ       00000001400265b0 f   SrvClTls-58f311.o
 0001:00025680       ??0SrvClTls@@QEAA@_K@Z     0000000140026680 f   SrvClTls-58f311.o
 0001:00025790       ??1SrvClTls@@UEAA@XZ       0000000140026790 f   SrvClTls-58f311.o
 0001:00025800       ?processData@SrvClTls@@UEAAHXZ 0000000140026800 f   SrvClTls-58f311.o
 0001:00025aa0       ??0TlsMainSrv@@QEAA@XZ     0000000140026aa0 f i SrvClTls-58f311.o
 0001:00025e70       ??1TlsMainSrv@@QEAA@XZ     0000000140026e70 f i SrvClTls-58f311.o
 0001:00025f20       ??_GSrvClTls@@UEAAPEAXI@Z  0000000140026f20 f i SrvClTls-58f311.o
 0001:00025fb0       ?processOutgoing@TlsMainCl@@QEAAHXZ 0000000140026fb0 f   TlsMainCl-89780c.o
 0001:000260d0       ?copyOutBuf@TlsMainCl@@QEAAXAEAVCharBuf@@@Z 00000001400270d0 f   TlsMainCl-89780c.o
 0001:00026100       ?processIncoming@TlsMainCl@@QEAAHXZ 0000000140027100 f   TlsMainCl-89780c.o
 0001:000267d0       ?sendPlainAlert@TlsMainCl@@QEAAXE@Z 00000001400277d0 f   TlsMainCl-89780c.o
 0001:00026810       ?processHandshake@TlsMainCl@@QEAAHAEBVCharBuf@@@Z 0000000140027810 f   TlsMainCl-89780c.o
 0001:00026c20       ?processAppData@TlsMainCl@@QEAAHAEBVCharBuf@@@Z 0000000140027c20 f   TlsMainCl-89780c.o
 0001:00026f30       ?sendTestVecFinished@TlsMainCl@@QEAA_NXZ 0000000140027f30 f   TlsMainCl-89780c.o
 0001:000271c0       ?startTestVecHandshake@TlsMainCl@@QEAA_NAEBVCharBuf@@0@Z 00000001400281c0 f   TlsMainCl-89780c.o
 0001:00027c20       ?startHandshake@TlsMainCl@@QEAA_NAEBVCharBuf@@0@Z 0000000140028c20 f   TlsMainCl-89780c.o
 0001:00027f60       ?showAlert@Alerts@@SAXE@Z  0000000140028f60 f i TlsMainCl-89780c.o
 0001:00028350       ?setTestVecServerCertOnly@TlsMainSrv@@QEAAXAEAVCharBuf@@@Z 0000000140029350 f   TlsMainSrv-bbf05b.o
 0001:000284a0       ?setTestVecServerHello@TlsMainSrv@@QEAAXAEAVCharBuf@@AEAVTlsMain@@@Z 00000001400294a0 f   TlsMainSrv-bbf05b.o
 0001:00028e30       ?processIncoming@TlsMainSrv@@QEAAHAEBVCharBuf@@AEAVTlsMain@@@Z 0000000140029e30 f   TlsMainSrv-bbf05b.o
 0001:000292e0       ?sendPlainAlert@TlsMainSrv@@QEAAXE@Z 000000014002a2e0 f   TlsMainSrv-bbf05b.o
 0001:00029320       ?processHandshake@TlsMainSrv@@QEAAHAEBVCharBuf@@AEAVTlsMain@@@Z 000000014002a320 f   TlsMainSrv-bbf05b.o
 0001:000299d0       ?processAppData@TlsMainSrv@@QEAAHAEBVCharBuf@@AEAVTlsMain@@@Z 000000014002a9d0 f   TlsMainSrv-bbf05b.o
 0001:00029ce0       ?sendChangeCipherSpec@TlsMainSrv@@QEAAXXZ 000000014002ace0 f   TlsMainSrv-bbf05b.o
 0001:00029d50       ?setTestVecServerCertOuter@TlsMainSrv@@QEAAXAEAVCharBuf@@@Z 000000014002ad50 f   TlsMainSrv-bbf05b.o
 0001:00029ea0       ?setTestVecServerEncExten@TlsMainSrv@@QEAAXAEAVCharBuf@@@Z 000000014002aea0 f   TlsMainSrv-bbf05b.o
 0001:00029ff0       ?setTestVecServerCertVerify@TlsMainSrv@@QEAAXAEAVCharBuf@@@Z 000000014002aff0 f   TlsMainSrv-bbf05b.o
 0001:0002a140       ?setTestVecServerFinished@TlsMainSrv@@QEAAXAEAVCharBuf@@@Z 000000014002b140 f   TlsMainSrv-bbf05b.o
 0001:0002a290       ?setTestVecNewSessionTicket@TlsMainSrv@@QEAAXAEAVCharBuf@@@Z 000000014002b290 f   TlsMainSrv-bbf05b.o
 0001:0002a3e0       ?copyOutBuf@TlsMainSrv@@QEAAXAEAVCharBuf@@@Z 000000014002b3e0 f   TlsMainSrv-bbf05b.o
 0001:0002a410       ?accumByte@TlsOuterRec@@QEAAIE@Z 000000014002b410 f   TlsOuterRec-2f5f15.o
 0001:0002a5f0       ?makeHandshakeRec@TlsOuterRec@@SAHAEBVCharBuf@@AEAV2@AEAVTlsMain@@@Z 000000014002b5f0 f   TlsOuterRec-2f5f15.o
 0001:0002a710       ?makeAppDataRec@TlsOuterRec@@SAHAEBVCharBuf@@AEAV2@AEAVTlsMain@@@Z 000000014002b710 f   TlsOuterRec-2f5f15.o
 0001:0002a830       ?addRoundKey@Aes@@AEAAXH@Z 000000014002b830 f   Aes-9fcd55.o
 0001:0002a930       ?subBytes@Aes@@AEAAXXZ     000000014002b930 f   Aes-9fcd55.o
 0001:0002a9f0       ?shiftRows@Aes@@AEAAXXZ    000000014002b9f0 f   Aes-9fcd55.o
 0001:0002aa30       ?mixColumns@Aes@@AEAAXXZ   000000014002ba30 f   Aes-9fcd55.o
 0001:0002afd0       ?encryptLoop@Aes@@QEAAXXZ  000000014002bfd0 f   Aes-9fcd55.o
 0001:0002b330       ?encryptCharBuf@Aes@@QEAAXAEBVCharBuf@@AEAV2@H@Z 000000014002c330 f   Aes-9fcd55.o
 0001:0002b370       ?encryptPolynom128@Aes@@QEAAXAEAVPolynom128@@@Z 000000014002c370 f   Aes-9fcd55.o
 0001:0002b470       ?encryptTest@Aes@@QEAAXXZ  000000014002c470 f   Aes-9fcd55.o
 0001:0002ba10       ?moveCharBufToState@AesState@@QEAAXAEBVCharBuf@@H@Z 000000014002ca10 f i Aes-9fcd55.o
 0001:0002bd80       ?moveStateToCharBuf@AesState@@QEAAXAEAVCharBuf@@@Z 000000014002cd80 f i Aes-9fcd55.o
 0001:0002be60       ?encryptTest@AesGalois@@QEAAXXZ 000000014002ce60 f   AesGalois-eee68e.o
 0001:0002c350       ?setKey@AesGalois@@QEAAXAEBVCharBuf@@H@Z 000000014002d350 f   AesGalois-eee68e.o
 0001:0002c3b0       ?encryptCharBuf@AesGalois@@QEAAXAEBVCharBuf@@00AEAV2@@Z 000000014002d3b0 f   AesGalois-eee68e.o
 0001:0002c500       ?decryptCharBuf@AesGalois@@QEAAXAEBVCharBuf@@00AEAV2@@Z 000000014002d500 f   AesGalois-eee68e.o
 0001:0002c940       ?makeHashSubKey@AesGalois@@AEAAXXZ 000000014002d940 f   AesGalois-eee68e.o
 0001:0002c990       ?setCharBufToBlock16@AesGalois@@AEAAXAEAVCharBuf@@@Z 000000014002d990 f   AesGalois-eee68e.o
 0001:0002c9f0       ?setJ0fromIV@AesGalois@@AEAAXAEBVCharBuf@@AEAVPolynom128@@@Z 000000014002d9f0 f   AesGalois-eee68e.o
 0001:0002cc50       ?gHash@AesGalois@@AEAAXAEBVCharBuf@@AEAVPolynom128@@@Z 000000014002dc50 f   AesGalois-eee68e.o
 0001:0002d4f0       ?gctr@AesGalois@@AEAAXAEBVCharBuf@@AEBVPolynom128@@AEAV2@@Z 000000014002e4f0 f   AesGalois-eee68e.o
 0001:0002da90       ?makeAuthTag@AesGalois@@AEAAXAEBVCharBuf@@0AEBVPolynom128@@AEAV2@@Z 000000014002ea90 f   AesGalois-eee68e.o
 0001:0002ddd0       ?multiply@Polynom128@@QEAAXAEBV1@0@Z 000000014002edd0 f i AesGalois-eee68e.o
 0001:0002e230       ?appendToCharBuf@Polynom128@@QEAAXAEAVCharBuf@@@Z 000000014002f230 f i AesGalois-eee68e.o
 0001:0002e310       ?keyExpansion@AesKeySched@@AEAAXAEBVAesSBox@@@Z 000000014002f310 f   AesKeySched-e19566.o
 0001:0002e5a0       ?setKey@AesKeySched@@QEAAXAEBVCharBuf@@HAEBVAesSBox@@@Z 000000014002f5a0 f   AesKeySched-e19566.o
 0001:0002e6b0       ?lettersToBits@Base64@@QEAAHAEAVCharBuf@@DDDD@Z 000000014002f6b0 f   Base64-ae634d.o
 0001:0002e910       ?codeToBytes@Base64@@QEAA_NAEAVCharBuf@@0@Z 000000014002f910 f   Base64-ae634d.o
 0001:0002e9e0       ?bytesToCode@Base64@@QEAA_NAEAVCharBuf@@0@Z 000000014002f9e0 f   Base64-ae634d.o
 0001:0002ed50       ?test@Base64@@QEAAXXZ      000000014002fd50 f   Base64-ae634d.o
 0001:0002f090       ?filterCharSet@Base64@@QEAAXAEAVCharBuf@@0@Z 0000000140030090 f   Base64-ae634d.o
 0001:0002f170       ?setupBoolAlpha@Base64@@QEAAXXZ 0000000140030170 f   Base64-ae634d.o
 0001:0002f2d0       ?greatestComDiv@Euclid@@SAXAEBVInteger@@0AEAV2@AEAVIntegerMath@@@Z 00000001400302d0 f   Euclid-4b5e91.o
 0001:0002f550       ?multInverse@Euclid@@SA_NAEBVInteger@@0AEAV2@1AEAVIntegerMath@@@Z 0000000140030550 f   Euclid-4b5e91.o
 0001:0002fd50       ?makeAPrime@Fermat@@SAXAEAVInteger@@HAEBVSPrimes@@AEAVMod@@AEAVIntegerMath@@@Z 0000000140030d50 f   Fermat-87405a.o
 0001:0002fe20       ?isPrime@Fermat@@SA_NAEAVInteger@@AEBVSPrimes@@AEAVMod@@AEAVIntegerMath@@@Z 0000000140030e20 f   Fermat-87405a.o
 0001:0002ffc0       ?isPrimeForOneValue@Fermat@@SA_NAEAVInteger@@_JAEAVMod@@AEAVIntegerMath@@@Z 0000000140030fc0 f   Fermat-87405a.o
 0001:000300d0       ?findIt@FindFacSm@@QEAA_JAEAVInteger@@_JAEBVSPrimes@@AEAVIntegerMath@@@Z 00000001400310d0 f   FindFacSm-eb81d6.o
 0001:000302e0       ?findSmall31@FindFacSm@@QEAA_JAEAVInteger@@_JAEAVIntegerMath@@@Z 00000001400312e0 f   FindFacSm-eb81d6.o
 0001:000304c0       ?makeSmallAr13@FindFacSm@@QEAAXXZ 00000001400314c0 f   FindFacSm-eb81d6.o
 0001:000305f0       ?makeBigAr19@FindFacSm@@QEAAXXZ 00000001400315f0 f   FindFacSm-eb81d6.o
 0001:00030770       ?makeIt@MakePrime@@QEAAXAEAVInteger@@HAEBVSPrimes@@AEAVMod@@AEAVIntegerMath@@@Z 0000000140031770 f   MakePrime-db421e.o
 0001:00030870       ?removeSmallP@MakePrime@@QEAAXAEAVInteger@@_JAEBVSPrimes@@AEAVIntegerMath@@@Z 0000000140031870 f   MakePrime-db421e.o
 0001:00030af0       ?isOnCurve@MCurve@@QEAA_NAEBVMPoint@@AEAVMod@@AEAVIntegerMath@@@Z 0000000140031af0 f   MCurve-538f45.o
 0001:00030d30       ?scalarMult@MCurve@@QEAA_NAEAVMPoint@@AEBVInteger@@AEAV3@AEAVIntegerMath@@AEAVMod@@@Z 0000000140031d30 f   MCurve-538f45.o
 0001:00031210       ?cSwap1@MCurve@@QEAAXHAEAVInteger@@0@Z 0000000140032210 f   MCurve-538f45.o
 0001:000312a0       ?montLadder1@MCurve@@QEAA_NAEAVInteger@@AEBV2@1AEAVIntegerMath@@AEAVMod@@@Z 00000001400322a0 f   MCurve-538f45.o
 0001:00031fa0       ?makeRandExponentK@MCurve@@QEAAXAEAVInteger@@AEAVCharBuf@@@Z 0000000140032fa0 f   MCurve-538f45.o
 0001:00032080       ?makeRandom32Bytes@MCurve@@QEAAXAEAVByteArray@@@Z 0000000140033080 f   MCurve-538f45.o
 0001:000321f0       ?clampK@MCurve@@QEAAXAEAVByteArray@@@Z 00000001400331f0 f   MCurve-538f45.o
 0001:00032250       ?cArrayToInt@MCurve@@QEAAXAEBVByteArray@@AEAVInteger@@@Z 0000000140033250 f   MCurve-538f45.o
 0001:00032310       ?makeThePrime@MCurve@@QEAAXAEAVIntegerMath@@@Z 0000000140033310 f   MCurve-538f45.o
 0001:00032630       ?clampU@MCurve@@QEAAXAEAVByteArray@@@Z 0000000140033630 f   MCurve-538f45.o
 0001:00032670       ?uCoordTo32Bytes@MCurve@@QEBAXAEBVInteger@@AEAVByteArray@@AEAVMod@@AEAVIntegerMath@@@Z 0000000140033670 f   MCurve-538f45.o
 0001:000328f0       ?isConjugate@MPoint@@QEBA_NAEBV1@AEBVInteger@@AEAVMod@@AEAVIntegerMath@@@Z 00000001400338f0 f   MPoint-bbd93d.o
 0001:00032a10       ?add@MPoint@@QEAA_NAEBV1@0AEBVInteger@@AEAV2@AEAVMod@@AEAVIntegerMath@@@Z 0000000140033a10 f   MPoint-bbd93d.o
 0001:000332f0       ?doubleP@MPoint@@QEAA_NAEBV1@AEBVInteger@@AEAV2@AEAVMod@@AEAVIntegerMath@@@Z 00000001400342f0 f   MPoint-bbd93d.o
 0001:00033b40       ??0QuadRes@@QEAA@XZ        0000000140034b40 f   QuadRes-65cbe1.o
 0001:00033c30       ??0QuadRes@@QEAA@AEBV0@@Z  0000000140034c30 f   QuadRes-65cbe1.o
 0001:00033d30       ??1QuadRes@@QEAA@XZ        0000000140034d30 f   QuadRes-65cbe1.o
 0001:00033d90       ?init@QuadRes@@QEAAXAEBVSPrimes@@@Z 0000000140034d90 f   QuadRes-65cbe1.o
 0001:00033f90       ?isSmallQR@QuadRes@@SA_NH@Z 0000000140034f90 f   QuadRes-65cbe1.o
 0001:00034070       ?isQR17@QuadRes@@SA_NH@Z   0000000140035070 f   QuadRes-65cbe1.o
 0001:000340d0       ?isQR19@QuadRes@@SA_NH@Z   00000001400350d0 f   QuadRes-65cbe1.o
 0001:00034140       ?isQR23@QuadRes@@SA_NH@Z   0000000140035140 f   QuadRes-65cbe1.o
 0001:000341c0       ?isQR29@QuadRes@@SA_NH@Z   00000001400351c0 f   QuadRes-65cbe1.o
 0001:00034250       ?makeRandomBytes@Randomish@@SAXAEAVCharBuf@@H@Z 0000000140035250 f   Randomish-40248b.o
 0001:00034320       ??R?$mersenne_twister@I$0CA@$0CHA@$0BIN@$0BP@$0JJAILANP@$0L@$06$0JNCMFGIA@$0P@$0OPMGAAAA@$0BC@@std@@QEAAIXZ 0000000140035320 f i Randomish-40248b.o
 0001:00034650       ?makeKeys@Rsa@@QEAA_NAEBVInteger@@0AEAVIntegerMath@@AEAVMod@@AEAVSPrimes@@AEAVFindFacSm@@AEBVMultInv@@AEBVCrtMath@@AEAVGarnerCrt@@@Z 0000000140035650 f   Rsa-1b4059.o
 0001:00034ba0       ?isGoodPair@Rsa@@QEAA_NAEAVIntegerMath@@@Z 0000000140035ba0 f   Rsa-1b4059.o
 0001:00034ca0       ?setPrivateKeys@Rsa@@QEAA_NAEAVIntegerMath@@@Z 0000000140035ca0 f   Rsa-1b4059.o
 0001:00034f60       ?testEncryption@Rsa@@QEAA_NAEAVMod@@AEAVIntegerMath@@AEBVSPrimes@@AEBVMultInv@@AEBVCrtMath@@@Z 0000000140035f60 f   Rsa-1b4059.o
 0001:000353b0       ??0Crt@@QEAA@XZ            00000001400363b0 f i Rsa-1b4059.o
 0001:00035470       ??0Crt3@@QEAA@XZ           0000000140036470 f i Rsa-1b4059.o
 0001:000355b0       ??1Crt3@@QEAA@XZ           00000001400365b0 f i Rsa-1b4059.o
 0001:000355e0       ?test@RsaTest@@QEAAXAEAVRsa@@AEAVMod@@AEAVSPrimes@@AEAVIntegerMath@@AEAVFindFacSm@@AEBVMultInv@@AEBVCrtMath@@AEAVGarnerCrt@@@Z 00000001400365e0 f   RsaTest-5dc46d.o
 0001:00035920       ??1MakePrime@@QEAA@XZ      0000000140036920 f i RsaTest-5dc46d.o
 0001:00035950       ?appendPadding@Sha256@@AEAAXAEAVCharBuf@@@Z 0000000140036950 f   Sha256-24ff28.o
 0001:00035a10       ?init@Sha256@@AEAAXXZ      0000000140036a10 f   Sha256-24ff28.o
 0001:00035b80       ?processAllBlocks@Sha256@@QEAAXAEBVCharBuf@@@Z 0000000140036b80 f   Sha256-24ff28.o
 0001:00035cc0       ?processMessageBlock@Sha256@@QEAAXAEBVCharBuf@@H@Z 0000000140036cc0 f   Sha256-24ff28.o
 0001:00036070       ?showHash@Sha256@@QEAAXXZ  0000000140037070 f   Sha256-24ff28.o
 0001:000361f0       ?getHash@Sha256@@QEAAXAEAVCharBuf@@@Z 00000001400371f0 f   Sha256-24ff28.o
 0001:00036320       ?hMac@Sha256@@QEAAXAEAVCharBuf@@AEBV2@1@Z 0000000140037320 f   Sha256-24ff28.o
 0001:00036880       ?getFirstFactor@SPrimes@@QEBAH_J@Z 0000000140037880 f   SPrimes-cd9ebe.o
 0001:00036a40       ?makeArray@SPrimes@@AEAAXXZ 0000000140037a40 f   SPrimes-cd9ebe.o
 0001:00036dc0       ?setToZero@Crt@@QEAAXXZ    0000000140037dc0 f   Crt-b6380c.o
 0001:00036e40       ?setToOne@Crt@@QEAAXXZ     0000000140037e40 f   Crt-b6380c.o
 0001:00036ec0       ?isZero@Crt@@QEBA_NXZ      0000000140037ec0 f   Crt-b6380c.o
 0001:00036f70       ?isOne@Crt@@QEBA_NXZ       0000000140037f70 f   Crt-b6380c.o
 0001:00037020       ?copy@Crt@@QEAAXAEBV1@@Z   0000000140038020 f   Crt-b6380c.o
 0001:000370a0       ?isEqual@Crt@@QEBA_NAEBV1@@Z 00000001400380a0 f   Crt-b6380c.o
 0001:00037170       ?add@Crt@@QEAAXAEBV1@AEBVSPrimes@@@Z 0000000140038170 f   Crt-b6380c.o
 0001:00037210       ?subtract@Crt@@QEAAXAEBV1@AEBVSPrimes@@@Z 0000000140038210 f   Crt-b6380c.o
 0001:000372b0       ?decrement@Crt@@QEAAXAEBVSPrimes@@@Z 00000001400382b0 f   Crt-b6380c.o
 0001:00037350       ?subtractInt@Crt@@QEAAXHAEBVSPrimes@@@Z 0000000140038350 f   Crt-b6380c.o
 0001:000373f0       ?multiply@Crt@@QEAAXAEBV1@AEBVSPrimes@@@Z 00000001400383f0 f   Crt-b6380c.o
 0001:00037490       ?setFromInteger@Crt@@QEAAXAEBVInteger@@AEAVIntegerMath@@AEBVSPrimes@@@Z 0000000140038490 f   Crt-b6380c.o
 0001:00037530       ?setFromInt@Crt@@QEAAXHAEBVSPrimes@@@Z 0000000140038530 f   Crt-b6380c.o
 0001:000375c0       ?copy@Crt3@@QEAAXAEBV1@@Z  00000001400385c0 f   Crt3-a2e725.o
 0001:00037650       ?isEqual@Crt3@@QEBA_NAEBV1@@Z 0000000140038650 f   Crt3-a2e725.o
 0001:00037740       ?toInteger@Crt3@@QEBAXAEBVCrtMath@@AEAVInteger@@@Z 0000000140038740 f   Crt3-a2e725.o
 0001:00037890       ?setFromCrtV6@Crt3@@QEAAXHAEBVCrtMath@@AEBVSPrimes@@AEBVMultInv@@@Z 0000000140038890 f   Crt3-a2e725.o
 0001:00037a00       ?setFromInteger@Crt3@@QEAAXAEBVInteger@@AEAVIntegerMath@@AEBVSPrimes@@AEBVMultInv@@AEBVCrtMath@@@Z 0000000140038a00 f   Crt3-a2e725.o
 0001:00037a40       ?getAccum@Crt3@@QEBAHHHHAEBVCrtMath@@@Z 0000000140038a40 f i Crt3-a2e725.o
 0001:00037b80       ?setFromCrtAt@Crt3@@QEAAXHHAEBVCrtMath@@HAEBVMultInv@@@Z 0000000140038b80 f i Crt3-a2e725.o
 0001:00037c80       ?setToZero@CrtBuf@@QEAAXXZ 0000000140038c80 f   CrtBuf-124c35.o
 0001:00037d00       ?setToOne@CrtBuf@@QEAAXXZ  0000000140038d00 f   CrtBuf-124c35.o
 0001:00037d80       ?setFromInteger@CrtBuf@@QEAAXAEBVInteger@@AEAVIntegerMath@@AEBVSPrimes@@@Z 0000000140038d80 f   CrtBuf-124c35.o
 0001:00037e20       ?init@CrtMath@@QEAAXAEAVIntegerMath@@AEBVSPrimes@@@Z 0000000140038e20 f   CrtMath-8b8978.o
 0001:00037e60       ?setupBaseArray@CrtMath@@AEAAXAEAVIntegerMath@@AEBVSPrimes@@@Z 0000000140038e60 f   CrtMath-8b8978.o
 0001:00037f80       ?copyFromInteger@CrtMath@@QEBAXAEAVInteger@@H@Z 0000000140038f80 f   CrtMath-8b8978.o
 0001:00037fa0       ?formula@Garner@@QEAA_NAEBVInteger@@0000AEAV2@AEAVMod@@AEAVIntegerMath@@@Z 0000000140038fa0 f   Garner-e5c102.o
 0001:00038510       ?decryptWithQInverse@Garner@@QEAA_NAEBVInteger@@0000AEAV2@AEAVMod@@AEAVIntegerMath@@@Z 0000000140039510 f   Garner-e5c102.o
 0001:000387f0       ?testCrt@Garner@@QEAAXAEBVInteger@@AEAVIntegerMath@@AEBVSPrimes@@AEBVMultInv@@AEBVCrtMath@@@Z 00000001400397f0 f   Garner-e5c102.o
 0001:00038950       ?setUpConstants@GarnerCrt@@QEAAXAEBVSPrimes@@AEAVIntegerMath@@@Z 0000000140039950 f   GarnerCrt-d733a2.o
 0001:00038e10       ?toInteger@GarnerCrt@@QEAAXAEBVCrt@@AEAVInteger@@AEAVIntegerMath@@@Z 0000000140039e10 f   GarnerCrt-d733a2.o
 0001:00039020       ??0GoodX@@QEAA@XZ          000000014003a020 f   GoodX-3a7b51.o
 0001:00039110       ??0GoodX@@QEAA@AEBV0@@Z    000000014003a110 f   GoodX-3a7b51.o
 0001:00039210       ??1GoodX@@QEAA@XZ          000000014003a210 f   GoodX-3a7b51.o
 0001:00039270       ?init@GoodX@@QEAAXAEBVSPrimes@@@Z 000000014003a270 f   GoodX-3a7b51.o
 0001:000393a0       ?setAllFalse@GoodX@@QEAAXXZ 000000014003a3a0 f   GoodX-3a7b51.o
 0001:00039410       ??0MultInv@@QEAA@XZ        000000014003a410 f   MultInv-eb6499.o
 0001:00039500       ??0MultInv@@QEAA@AEBV0@@Z  000000014003a500 f   MultInv-eb6499.o
 0001:00039600       ??1MultInv@@QEAA@XZ        000000014003a600 f   MultInv-eb6499.o
 0001:00039660       ?calcMultInv@MultInv@@AEAAHHH@Z 000000014003a660 f   MultInv-eb6499.o
 0001:000396b0       ?calcMultInvL@MultInv@@AEAA_J_J0@Z 000000014003a6b0 f   MultInv-eb6499.o
 0001:000398c0       ?init@MultInv@@QEAAXAEBVSPrimes@@@Z 000000014003a8c0 f   MultInv-eb6499.o
 0001:00039c20       catchFpeSignal             000000014003ac20 f   Signals-709666.o
 0001:00039c60       catchControlCSignal        000000014003ac60 f   Signals-709666.o
 0001:00039cb0       catchIllegalOpSignal       000000014003acb0 f   Signals-709666.o
 0001:00039cf0       catchBadMemSignal          000000014003acf0 f   Signals-709666.o
 0001:00039d30       ?setupFpeSignal@Signals@@SAXXZ 000000014003ad30 f   Signals-709666.o
 0001:00039d70       ?getControlCSignal@Signals@@SA_NXZ 000000014003ad70 f   Signals-709666.o
 0001:00039d80       ?setupControlCSignal@Signals@@SAXXZ 000000014003ad80 f   Signals-709666.o
 0001:00039dd0       ?setupIllegalOpSignal@Signals@@SAXXZ 000000014003add0 f   Signals-709666.o
 0001:00039e10       ?setupBadMemSignal@Signals@@SAXXZ 000000014003ae10 f   Signals-709666.o
 0001:00039e50       ??0TimeApi@@QEAA@XZ        000000014003ae50 f   TimeApiWin-5d41be.o
 0001:00039ef0       ?setNow@TimeApi@@QEAAXXZ   000000014003aef0 f   TimeApiWin-5d41be.o
 0001:00039f80       ?getSecondsNow@TimeApi@@SA_JXZ 000000014003af80 f   TimeApiWin-5d41be.o
 0001:00039fa0       ?diffSec@TimeApi@@QEAA_JAEAV1@@Z 000000014003afa0 f   TimeApiWin-5d41be.o
 0001:00039fb0       ?timeCBuf@TimeApi@@QEAAXAEAVCharBuf@@@Z 000000014003afb0 f   TimeApiWin-5d41be.o
 0001:0003a330       inet_ntop                  000000014003b330 f   Ws2_32:WS2_32.dll
 0001:0003a350       __chkstk                   000000014003b350 f   libcmt:chkstk.obj
 0001:0003a350       _alloca_probe              000000014003b350 f   libcmt:chkstk.obj
 0001:0003a3a0       ??_U@YAPEAX_K@Z            000000014003b3a0 f   libcmt:new_array.obj
 0001:0003a3a8       ??3@YAXPEAX_K@Z            000000014003b3a8 f   libcmt:delete_scalar_size.obj
 0001:0003a3a8       ??_V@YAXPEAX@Z             000000014003b3a8 f   libcmt:delete_array.obj
 0001:0003a3b0       ??_Etype_info@@UEAAPEAXI@Z 000000014003b3b0 f i libcmt:std_type_info_static.obj
 0001:0003a3b0       ??_Gtype_info@@UEAAPEAXI@Z 000000014003b3b0 f i libcmt:std_type_info_static.obj
 0001:0003a3dc       ??2@YAPEAX_K@Z             000000014003b3dc f   libcmt:new_scalar.obj
 0001:0003a418       ??3@YAXPEAX@Z              000000014003b418 f   libcmt:delete_scalar.obj
 0001:0003a420       _Init_thread_footer        000000014003b420 f   libcmt:thread_safe_statics.obj
 0001:0003a48c       _Init_thread_header        000000014003b48c f   libcmt:thread_safe_statics.obj
 0001:0003a504       __scrt_acquire_startup_lock 000000014003b504 f   libcmt:utility.obj
 0001:0003a540       __scrt_initialize_crt      000000014003b540 f   libcmt:utility.obj
 0001:0003a57c       __scrt_initialize_onexit_tables 000000014003b57c f   libcmt:utility.obj
 0001:0003a608       __scrt_is_nonwritable_in_current_image 000000014003b608 f   libcmt:utility.obj
 0001:0003a6a0       __scrt_release_startup_lock 000000014003b6a0 f   libcmt:utility.obj
 0001:0003a6c4       __scrt_uninitialize_crt    000000014003b6c4 f   libcmt:utility.obj
 0001:0003a6f0       _onexit                    000000014003b6f0 f   libcmt:utility.obj
 0001:0003a72c       atexit                     000000014003b72c f   libcmt:utility.obj
 0001:0003a9a4       mainCRTStartup             000000014003b9a4 f   libcmt:exe_main.obj
 0001:0003a9b8       ??0bad_alloc@std@@QEAA@XZ  000000014003b9b8 f i libcmt:throw_bad_alloc.obj
 0001:0003a9d8       ??0bad_array_new_length@std@@QEAA@XZ 000000014003b9d8 f i libcmt:throw_bad_alloc.obj
 0001:0003a9f8       ??1bad_alloc@std@@UEAA@XZ  000000014003b9f8 f i libcmt:throw_bad_alloc.obj
 0001:0003a9f8       ??1bad_exception@std@@UEAA@XZ 000000014003b9f8 f i libvcruntime:frame.obj
 0001:0003a9f8       ??1length_error@std@@UEAA@XZ 000000014003b9f8 f i libcpmt:xthrow.obj
 0001:0003a9f8       ??1out_of_range@std@@UEAA@XZ 000000014003b9f8 f i libcpmt:xthrow.obj
 0001:0003a9f8       ??1runtime_error@std@@UEAA@XZ 000000014003b9f8 f i libcpmt:xthrow.obj
 0001:0003aa0c       ?__scrt_throw_std_bad_alloc@@YAXXZ 000000014003ba0c f   libcmt:throw_bad_alloc.obj
 0001:0003aa2c       ?__scrt_throw_std_bad_array_new_length@@YAXXZ 000000014003ba2c f   libcmt:throw_bad_alloc.obj
 0001:0003aa4c       __isa_available_init       000000014003ba4c f   libcmt:cpu_disp.obj
 0001:0003abf8       __scrt_is_ucrt_dll_in_use  000000014003bbf8 f   libcmt:ucrt_detection.obj
 0001:0003ac04       __crt_debugger_hook        000000014003bc04 f   libcmt:utility_desktop.obj
 0001:0003ac0c       __scrt_fastfail            000000014003bc0c f   libcmt:utility_desktop.obj
 0001:0003ad54       __scrt_initialize_mta      000000014003bd54 f   libcmt:utility_desktop.obj
 0001:0003ad5c       __scrt_exe_initialize_mta  000000014003bd5c f   libcmt:utility_desktop.obj
 0001:0003ad5c       __scrt_initialize_winrt    000000014003bd5c f   libcmt:utility_desktop.obj
 0001:0003ad5c       __scrt_stub_for_initialize_mta 000000014003bd5c f   libcmt:utility_desktop.obj
 0001:0003ad5c       _get_startup_commit_mode   000000014003bd5c f   libcmt:commit_mode.obj
 0001:0003ad5c       _get_startup_new_mode      000000014003bd5c f   libcmt:new_mode.obj
 0001:0003ad5c       _get_startup_thread_locale_mode 000000014003bd5c f   libcmt:thread_locale.obj
 0001:0003ad5c       _matherr                   000000014003bd5c f   libcmt:matherr.obj
 0001:0003ad60       __scrt_is_managed_app      000000014003bd60 f   libcmt:utility_desktop.obj
 0001:0003adb4       __scrt_set_unhandled_exception_filter 000000014003bdb4 f   libcmt:utility_desktop.obj
 0001:0003adc4       __scrt_unhandled_exception_filter 000000014003bdc4 f   libcmt:utility_desktop.obj
 0001:0003ae20       _guard_check_icall_nop     000000014003be20 f i libcmt:guard_support.obj
 0001:0003ae20       _initialize_denormal_control 000000014003be20 f i libcmt:denormal_control.obj
 0001:0003ae20       _initialize_invalid_parameter_handler 000000014003be20 f i libcmt:invalid_parameter_handler.obj
 0001:0003ae24       __security_init_cookie     000000014003be24 f   libcmt:gs_support.obj
 0001:0003aed0       _get_startup_file_mode     000000014003bed0 f   libcmt:file_mode.obj
 0001:0003aed8       ?__scrt_initialize_type_info@@YAXXZ 000000014003bed8 f   libcmt:tncleanup.obj
 0001:0003aee8       __local_stdio_scanf_options 000000014003bee8 f i libcmt:default_local_stdio_options.obj
 0001:0003aef0       __scrt_initialize_default_local_stdio_options 000000014003bef0 f   libcmt:default_local_stdio_options.obj
 0001:0003af0c       __scrt_is_user_matherr_present 000000014003bf0c f   libcmt:matherr_detection.obj
 0001:0003af18       __scrt_get_dyn_tls_init_callback 000000014003bf18 f   libcmt:dyn_tls_init.obj
 0001:0003af20       __scrt_get_dyn_tls_dtor_callback 000000014003bf20 f   libcmt:dyn_tls_dtor.obj
 0001:0003af28       _RTC_Initialize            000000014003bf28 f   libcmt:initsect.obj
 0001:0003af64       _RTC_Terminate             000000014003bf64 f   libcmt:initsect.obj
 0001:0003afa0       ?_Addstd@ios_base@std@@SAXPEAV12@@Z 000000014003bfa0 f   libcpmt:ios.obj
 0001:0003b018       ?_Ios_base_dtor@ios_base@std@@CAXPEAV12@@Z 000000014003c018 f   libcpmt:ios.obj
 0001:0003b090       ?_Tidy@ios_base@std@@AEAAXXZ 000000014003c090 f i libcpmt:ios.obj
 0001:0003b110       ??0_Locimp@locale@std@@AEAA@_N@Z 000000014003c110 f i libcpmt:locale0.obj
 0001:0003b198       ??4?$_Yarn@D@std@@QEAAAEAV01@PEBD@Z 000000014003c198 f i libcpmt:locale0.obj
 0001:0003b210       ??_E_Locimp@locale@std@@MEAAPEAXI@Z 000000014003c210 f i libcpmt:locale0.obj
 0001:0003b210       ??_G_Locimp@locale@std@@MEAAPEAXI@Z 000000014003c210 f i libcpmt:locale0.obj
 0001:0003b26c       ?_Facet_Register@std@@YAXPEAV_Facet_base@1@@Z 000000014003c26c f   libcpmt:locale0.obj
 0001:0003b2a4       ?_Getgloballocale@locale@std@@CAPEAV_Locimp@12@XZ 000000014003c2a4 f   libcpmt:locale0.obj
 0001:0003b2ac       ?_Init@locale@std@@CAPEAV_Locimp@12@_N@Z 000000014003c2ac f   libcpmt:locale0.obj
 0001:0003b3a0       ?_Locimp_dtor@_Locimp@locale@std@@CAXPEAV123@@Z 000000014003c3a0 f   libcpmt:locale0.obj
 0001:0003b41c       ?_Locinfo_ctor@_Locinfo@std@@SAXPEAV12@PEBD@Z 000000014003c41c f   libcpmt:locale0.obj
 0001:0003b488       ?_Locinfo_dtor@_Locinfo@std@@SAXPEAV12@@Z 000000014003c488 f   libcpmt:locale0.obj
 0001:0003b4a4       ?_New_Locimp@_Locimp@locale@std@@CAPEAV123@_N@Z 000000014003c4a4 f   libcpmt:locale0.obj
 0001:0003b4d4       ?_Setgloballocale@locale@std@@CAXPEAX@Z 000000014003c4d4 f   libcpmt:locale0.obj
 0001:0003b508       _Deletegloballocale        000000014003c508 f   libcpmt:locale0.obj
 0001:0003b578       ?uncaught_exception@std@@YA_NXZ 000000014003c578 f   libcpmt:uncaught_exception.obj
 0001:0003b580       ??0length_error@std@@QEAA@AEBV01@@Z 000000014003c580 f i libcpmt:xthrow.obj
 0001:0003b5bc       ??0length_error@std@@QEAA@PEBD@Z 000000014003c5bc f i libcpmt:xthrow.obj
 0001:0003b604       ??0logic_error@std@@QEAA@AEBV01@@Z 000000014003c604 f i libcpmt:xthrow.obj
 0001:0003b640       ??0out_of_range@std@@QEAA@AEBV01@@Z 000000014003c640 f i libcpmt:xthrow.obj
 0001:0003b67c       ??0out_of_range@std@@QEAA@PEBD@Z 000000014003c67c f i libcpmt:xthrow.obj
 0001:0003b6c4       ??0runtime_error@std@@QEAA@PEBD@Z 000000014003c6c4 f i libcpmt:xthrow.obj
 0001:0003b70c       ??_Ebad_exception@std@@UEAAPEAXI@Z 000000014003c70c f i libvcruntime:frame.obj
 0001:0003b70c       ??_Elength_error@std@@UEAAPEAXI@Z 000000014003c70c f i libcpmt:xthrow.obj
 0001:0003b70c       ??_Elogic_error@std@@UEAAPEAXI@Z 000000014003c70c f i libcpmt:xthrow.obj
 0001:0003b70c       ??_Eout_of_range@std@@UEAAPEAXI@Z 000000014003c70c f i libcpmt:xthrow.obj
 0001:0003b70c       ??_Gbad_exception@std@@UEAAPEAXI@Z 000000014003c70c f i libvcruntime:frame.obj
 0001:0003b70c       ??_Glength_error@std@@UEAAPEAXI@Z 000000014003c70c f i libcpmt:xthrow.obj
 0001:0003b70c       ??_Glogic_error@std@@UEAAPEAXI@Z 000000014003c70c f i libcpmt:xthrow.obj
 0001:0003b70c       ??_Gout_of_range@std@@UEAAPEAXI@Z 000000014003c70c f i libcpmt:xthrow.obj
 0001:0003b750       ?_Xlength_error@std@@YAXPEBD@Z 000000014003c750 f   libcpmt:xthrow.obj
 0001:0003b774       ?_Xout_of_range@std@@YAXPEBD@Z 000000014003c774 f   libcpmt:xthrow.obj
 0001:0003b798       ?_Xruntime_error@std@@YAXPEBD@Z 000000014003c798 f   libcpmt:xthrow.obj
 0001:0003b7bc       ??0_Init_locks@std@@QEAA@XZ 000000014003c7bc f   libcpmt:xlock.obj
 0001:0003b800       ??0_Lockit@std@@QEAA@H@Z   000000014003c800 f   libcpmt:xlock.obj
 0001:0003b83c       ??1_Init_locks@std@@QEAA@XZ 000000014003c83c f   libcpmt:xlock.obj
 0001:0003b878       ??1_Lockit@std@@QEAA@XZ    000000014003c878 f   libcpmt:xlock.obj
 0001:0003b8ac       ?_Fiopen@std@@YAPEAU_iobuf@@PEBDHH@Z 000000014003c8ac f   libcpmt:fiopen.obj
 0001:0003b964       ?_Syserror_map@std@@YAPEBDH@Z 000000014003c964 f   libcpmt:syserror.obj
 0001:0003b98c       _Getctype                  000000014003c98c f   libcpmt:_tolower.obj
 0001:0003ba4c       _Tolower                   000000014003ca4c f   libcpmt:_tolower.obj
 0001:0003bb80       _Toupper                   000000014003cb80 f   libcpmt:_toupper.obj
 0001:0003bcc4       _Query_perf_counter        000000014003ccc4 f   libcpmt:xtime.obj
 0001:0003bce0       _Query_perf_frequency      000000014003cce0 f   libcpmt:xtime.obj
 0001:0003bd0c       _Thrd_sleep_for            000000014003cd0c f   libcpmt:sharedmutex.obj
 0001:0003bd14       ?_Random_device@std@@YAIXZ 000000014003cd14 f   libcpmt:xrngdev.obj
 0001:0003bd3c       ?_Atexit@@YAXP6AXXZ@Z      000000014003cd3c f   libcpmt:iosptrs.obj
 0001:0003bd78       _Mtxdst                    000000014003cd78 f   libcpmt:xmtx.obj
 0001:0003bd80       _Mtxinit                   000000014003cd80 f   libcpmt:xmtx.obj
 0001:0003bd90       _Mtxlock                   000000014003cd90 f   libcpmt:xmtx.obj
 0001:0003bd98       _Mtxunlock                 000000014003cd98 f   libcpmt:xmtx.obj
 0001:0003bda0       __crtLCMapStringA          000000014003cda0 f   libcpmt:StlLCMapStringA.obj
 0001:0003c100       ??$_CallSETranslator@V__FrameHandler3@@@@YAHPEAUEHExceptionRecord@@PEA_KPEAU_CONTEXT@@PEAU_xDISPATCHER_CONTEXT@@PEBU_s_FuncInfo@@K1H@Z 000000014003d100 f i libvcruntime:risctrnsctrl.obj
 0001:0003c154       ??$_CallSETranslator@V__FrameHandler4@@@@YAHPEAUEHExceptionRecord@@PEA_KPEAU_CONTEXT@@PEAU_xDISPATCHER_CONTEXT@@PEAUFuncInfo4@FH4@@K1H@Z 000000014003d154 f i libvcruntime:risctrnsctrl.obj
 0001:0003c1a8       ?CatchTryBlock@__FrameHandler3@@SAPEBU_s_TryBlockMapEntry@@PEBU_s_FuncInfo@@H@Z 000000014003d1a8 f   libvcruntime:risctrnsctrl.obj
 0001:0003c20c       ?DecompFuncInfo@FH4@@YA_JPEAEAEAUFuncInfo4@1@_KH_N@Z 000000014003d20c f i libvcruntime:risctrnsctrl.obj
 0001:0003c340       ?ExecutionInCatch@__FrameHandler3@@SA_NPEAU_xDISPATCHER_CONTEXT@@PEBU_s_FuncInfo@@@Z 000000014003d340 f   libvcruntime:risctrnsctrl.obj
 0001:0003c36c       ?ExecutionInCatch@__FrameHandler4@@SA_NPEAU_xDISPATCHER_CONTEXT@@PEAUFuncInfo4@FH4@@@Z 000000014003d36c f   libvcruntime:risctrnsctrl.obj
 0001:0003c374       ?FrameUnwindToEmptyState@__FrameHandler3@@SAXPEA_KPEAU_xDISPATCHER_CONTEXT@@PEBU_s_FuncInfo@@@Z 000000014003d374 f   libvcruntime:risctrnsctrl.obj
 0001:0003c3d8       ?FrameUnwindToEmptyState@__FrameHandler4@@SAXPEA_KPEAU_xDISPATCHER_CONTEXT@@PEAUFuncInfo4@FH4@@@Z 000000014003d3d8 f   libvcruntime:risctrnsctrl.obj
 0001:0003c40c       ?GetEstablisherFrame@__FrameHandler3@@SAPEA_KPEA_KPEAU_xDISPATCHER_CONTEXT@@PEBU_s_FuncInfo@@0@Z 000000014003d40c f   libvcruntime:risctrnsctrl.obj
 0001:0003c4dc       ?GetEstablisherFrame@__FrameHandler4@@SAPEA_KPEA_KPEAU_xDISPATCHER_CONTEXT@@PEAUFuncInfo4@FH4@@0@Z 000000014003d4dc f   libvcruntime:risctrnsctrl.obj
 0001:0003c500       ?GetRangeOfTrysToCheck@__FrameHandler3@@SA?AU?$pair@Viterator@TryBlockMap@__FrameHandler3@@V123@@std@@AEAVTryBlockMap@1@HPEAU_xDISPATCHER_CONTEXT@@PEBU_s_FuncInfo@@H@Z 000000014003d500 f   libvcruntime:risctrnsctrl.obj
 0001:0003c634       ?GetRangeOfTrysToCheck@__FrameHandler4@@SA?AU?$pair@Viterator@TryBlockMap4@FH4@@V123@@std@@AEAVTryBlockMap4@FH4@@HPEAU_xDISPATCHER_CONTEXT@@PEAUFuncInfo4@5@H@Z 000000014003d634 f   libvcruntime:risctrnsctrl.obj
 0001:0003c7a0       ?UnwindNestedFrames@__FrameHandler3@@SAXPEA_KPEAUEHExceptionRecord@@PEAU_CONTEXT@@0PEAXPEBU_s_FuncInfo@@HHPEBU_s_HandlerType@@PEAU_xDISPATCHER_CONTEXT@@E@Z 000000014003d7a0 f   libvcruntime:risctrnsctrl.obj
 0001:0003c8a4       ?UnwindNestedFrames@__FrameHandler4@@SAXPEA_KPEAUEHExceptionRecord@@PEAU_CONTEXT@@0PEAXPEAUFuncInfo4@FH4@@HHPEAUHandlerType4@5@PEAU_xDISPATCHER_CONTEXT@@E@Z 000000014003d8a4 f   libvcruntime:risctrnsctrl.obj
 0001:0003c9c4       ?setBuffer@TryBlockMap4@FH4@@QEAAXViterator@12@@Z 000000014003d9c4 f i libvcruntime:risctrnsctrl.obj
 0001:0003cb88       _CreateFrameInfo           000000014003db88 f   libvcruntime:risctrnsctrl.obj
 0001:0003cbc4       _FindAndUnlinkFrame        000000014003dbc4 f   libvcruntime:risctrnsctrl.obj
 0001:0003cc18       _GetImageBase              000000014003dc18 f   libvcruntime:risctrnsctrl.obj
 0001:0003cc2c       _GetThrowImageBase         000000014003dc2c f   libvcruntime:risctrnsctrl.obj
 0001:0003cc40       _SetImageBase              000000014003dc40 f   libvcruntime:risctrnsctrl.obj
 0001:0003cc58       _SetThrowImageBase         000000014003dc58 f   libvcruntime:risctrnsctrl.obj
 0001:0003cc70       __CxxFrameHandler3         000000014003dc70 f   libvcruntime:risctrnsctrl.obj
 0001:0003ccf8       __CxxFrameHandler4         000000014003dcf8 f   libvcruntime:risctrnsctrl.obj
 0001:0003cdc0       _CxxThrowException         000000014003ddc0 f   libvcruntime:throw.obj
 0001:0003ce70       __DestructExceptionObject  000000014003de70 f   libvcruntime:ehhelpers.obj
 0001:0003cee0       ?_CallMemberFunction0@@YAXQEAX0@Z 000000014003dee0 f i libvcruntime:ehhelpers.obj
 0001:0003cee4       _IsExceptionObjectToBeDestroyed 000000014003dee4 f   libvcruntime:ehhelpers.obj
 0001:0003cf14       __AdjustPointer            000000014003df14 f   libvcruntime:ehhelpers.obj
 0001:0003cf38       __FrameUnwindFilter        000000014003df38 f   libvcruntime:ehhelpers.obj
 0001:0003cfa0       __current_exception        000000014003dfa0 f   libvcruntime:ehhelpers.obj
 0001:0003cfb4       __current_exception_context 000000014003dfb4 f   libvcruntime:ehhelpers.obj
 0001:0003cfc8       __std_terminate            000000014003dfc8 f   libvcruntime:ehhelpers.obj
 0001:0003cfd4       __std_exception_copy       000000014003dfd4 f   libvcruntime:std_exception.obj
 0001:0003d064       __std_exception_destroy    000000014003e064 f   libvcruntime:std_exception.obj
 0001:0003d08c       _get_purecall_handler      000000014003e08c f   libvcruntime:purevirt.obj
 0001:0003d098       _purecall                  000000014003e098 f   libvcruntime:purevirt.obj
 0001:0003d0b4       __vcrt_initialize          000000014003e0b4 f   libvcruntime:initialization.obj
 0001:0003d0dc       __vcrt_uninitialize        000000014003e0dc f   libvcruntime:initialization.obj
 0001:0003d0f8       __C_specific_handler       000000014003e0f8 f   libvcruntime:riscchandler.obj
 0001:0003d310       __std_type_info_compare    000000014003e310 f   libvcruntime:std_type_info.obj
 0001:0003d338       __uncaught_exception       000000014003e338 f   libvcruntime:uncaught_exception.obj
 0001:0003d360       __vcrt_freefls             000000014003e360 f   libvcruntime:per_thread_data.obj
 0001:0003d380       __vcrt_getptd              000000014003e380 f   libvcruntime:per_thread_data.obj
 0001:0003d39c       __vcrt_getptd_noexit       000000014003e39c f   libvcruntime:per_thread_data.obj
 0001:0003d45c       __vcrt_getptd_noinit       000000014003e45c f   libvcruntime:per_thread_data.obj
 0001:0003d4ac       __vcrt_initialize_ptd      000000014003e4ac f   libvcruntime:per_thread_data.obj
 0001:0003d4f4       __vcrt_uninitialize_ptd    000000014003e4f4 f   libvcruntime:per_thread_data.obj
 0001:0003d518       ?GetCurrentState@__FrameHandler3@@SAHPEA_KPEAU_xDISPATCHER_CONTEXT@@PEBU_s_FuncInfo@@@Z 000000014003e518 f   libvcruntime:ehstate.obj
 0001:0003d540       ?GetUnwindTryBlock@__FrameHandler3@@SAHPEA_KPEAU_xDISPATCHER_CONTEXT@@PEBU_s_FuncInfo@@@Z 000000014003e540 f   libvcruntime:ehstate.obj
 0001:0003d56c       ?SetState@__FrameHandler3@@SAXPEA_KPEBU_s_FuncInfo@@H@Z 000000014003e56c f   libvcruntime:ehstate.obj
 0001:0003d578       ?SetUnwindTryBlock@__FrameHandler3@@SAXPEA_KPEAU_xDISPATCHER_CONTEXT@@PEBU_s_FuncInfo@@H@Z 000000014003e578 f   libvcruntime:ehstate.obj
 0001:0003d5b4       ?StateFromControlPc@__FrameHandler3@@SAHPEBU_s_FuncInfo@@PEAU_xDISPATCHER_CONTEXT@@@Z 000000014003e5b4 f   libvcruntime:ehstate.obj
 0001:0003d5bc       ?StateFromControlPc@__FrameHandler4@@SAHPEAUFuncInfo4@FH4@@PEAU_xDISPATCHER_CONTEXT@@@Z 000000014003e5bc f   libvcruntime:ehstate.obj
 0001:0003d5c4       ?StateFromIp@__FrameHandler3@@SAHPEBU_s_FuncInfo@@PEAU_xDISPATCHER_CONTEXT@@_K@Z 000000014003e5c4 f   libvcruntime:ehstate.obj
 0001:0003d62c       ?StateFromIp@__FrameHandler4@@SAHPEAUFuncInfo4@FH4@@PEAU_xDISPATCHER_CONTEXT@@_K@Z 000000014003e62c f   libvcruntime:ehstate.obj
 0001:0003ed84       ??$TypeMatchHelper@V__FrameHandler3@@@@YAHPEBU_s_HandlerType@@PEBU_s_CatchableType@@PEBU_s_ThrowInfo@@@Z 000000014003fd84 f i libvcruntime:frame.obj
 0001:0003eec4       ??$TypeMatchHelper@V__FrameHandler4@@@@YAHPEAUHandlerType4@FH4@@PEBU_s_CatchableType@@PEBU_s_ThrowInfo@@@Z 000000014003fec4 f i libvcruntime:frame.obj
 0001:0003f010       ??$__InternalCxxFrameHandler@V__FrameHandler3@@@@YA?AW4_EXCEPTION_DISPOSITION@@PEAUEHExceptionRecord@@PEA_KPEAU_CONTEXT@@PEAU_xDISPATCHER_CONTEXT@@PEBU_s_FuncInfo@@H1E@Z 0000000140040010 f i libvcruntime:frame.obj
 0001:0003f248       ??$__InternalCxxFrameHandler@V__FrameHandler4@@@@YA?AW4_EXCEPTION_DISPOSITION@@PEAUEHExceptionRecord@@PEA_KPEAU_CONTEXT@@PEAU_xDISPATCHER_CONTEXT@@PEAUFuncInfo4@FH4@@H1E@Z 0000000140040248 f i libvcruntime:frame.obj
 0001:0003f4dc       ??$__InternalCxxFrameHandlerWrapper@V__FrameHandler3@@@@YA?AW4_EXCEPTION_DISPOSITION@@PEAUEHExceptionRecord@@PEA_KPEAU_CONTEXT@@PEAU_xDISPATCHER_CONTEXT@@PEBU_s_FuncInfo@@H1E@Z 00000001400404dc f i libvcruntime:frame.obj
 0001:0003f4e4       ??$__InternalCxxFrameHandlerWrapper@V__FrameHandler4@@@@YA?AW4_EXCEPTION_DISPOSITION@@PEAUEHExceptionRecord@@PEA_KPEAU_CONTEXT@@PEAU_xDISPATCHER_CONTEXT@@PEAUFuncInfo4@FH4@@H1E@Z 00000001400404e4 f i libvcruntime:frame.obj
 0001:0003f530       ??0HandlerMap4@FH4@@QEAA@PEBUTryBlockMapEntry4@1@_KH@Z 0000000140040530 f i libvcruntime:frame.obj
 0001:0003f5b4       ??0TryBlockMap4@FH4@@QEAA@PEBUFuncInfo4@1@_K@Z 00000001400405b4 f i libvcruntime:frame.obj
 0001:0003f698       ??0bad_exception@std@@QEAA@AEBV01@@Z 0000000140040698 f i libvcruntime:frame.obj
 0001:0003f6d4       ??0bad_exception@std@@QEAA@XZ 00000001400406d4 f i libvcruntime:frame.obj
 0001:0003f6f4       ?CxxCallCatchBlock@__FrameHandler3@@SAPEAXPEAU_EXCEPTION_RECORD@@@Z 00000001400406f4 f   libvcruntime:frame.obj
 0001:0003f8e0       ?CxxCallCatchBlock@__FrameHandler4@@SAPEAXPEAU_EXCEPTION_RECORD@@@Z 00000001400408e0 f   libvcruntime:frame.obj
 0001:0003fb30       ?DecompHandler@HandlerMap4@FH4@@AEAAXXZ 0000000140040b30 f i libvcruntime:frame.obj
 0001:0003fd78       ?FrameUnwindToState@__FrameHandler3@@SAXPEA_KPEAU_xDISPATCHER_CONTEXT@@PEBU_s_FuncInfo@@H@Z 0000000140040d78 f   libvcruntime:frame.obj
 0001:0003ff04       ?FrameUnwindToState@__FrameHandler4@@SAXPEA_KPEAU_xDISPATCHER_CONTEXT@@PEAUFuncInfo4@FH4@@H@Z 0000000140040f04 f   libvcruntime:frame.obj
 0001:0004020c       ?GetHandlerSearchState@__FrameHandler3@@SAHPEA_KPEAU_xDISPATCHER_CONTEXT@@PEBU_s_FuncInfo@@@Z 000000014004120c f i libvcruntime:frame.obj
 0001:0004041c       ?ReadEntry@UWMap4@FH4@@AEAAXPEAPEAE@Z 000000014004141c f i libvcruntime:frame.obj
 0001:000404b8       ?_CallMemberFunction1@@YAXQEAX00@Z 00000001400414b8 f i libvcruntime:frame.obj
 0001:000404c4       ?_CallMemberFunction2@@YAXQEAX00H@Z 00000001400414c4 f i libvcruntime:frame.obj
 0001:000404d4       ?getStartStop@UWMap4@FH4@@QEAAXHHAEAViterator@12@0@Z 00000001400414d4 f i libvcruntime:frame.obj
 0001:000405a4       ?getStateFromIterators@UWMap4@FH4@@SAHAEBViterator@12@H0H0@Z 00000001400415a4 f i libvcruntime:frame.obj
 0001:00040654       __vcrt_initialize_locks    0000000140041654 f   libvcruntime:locks.obj
 0001:0004069c       __vcrt_uninitialize_locks  000000014004169c f   libvcruntime:locks.obj
 0001:00040710       _NLG_Notify                0000000140041710 f   libvcruntime:notify.obj
 0001:00040730       __NLG_Dispatch2            0000000140041730 f   libvcruntime:notify.obj
 0001:00040740       __NLG_Return2              0000000140041740 f   libvcruntime:notify.obj
 0001:00040744       __except_validate_context_record 0000000140041744 f   libvcruntime:jbcxrval.obj
 0001:000408cc       __vcrt_FlsAlloc            00000001400418cc f   libvcruntime:winapi_downlevel.obj
 0001:00040914       __vcrt_FlsFree             0000000140041914 f   libvcruntime:winapi_downlevel.obj
 0001:0004095c       __vcrt_FlsGetValue         000000014004195c f   libvcruntime:winapi_downlevel.obj
 0001:000409a4       __vcrt_FlsSetValue         00000001400419a4 f   libvcruntime:winapi_downlevel.obj
 0001:000409f8       __vcrt_InitializeCriticalSectionEx 00000001400419f8 f   libvcruntime:winapi_downlevel.obj
 0001:00040aa0       _CallSettingFrame          0000000140041aa0 f   libvcruntime:handlers.obj
 0001:00040ae0       _CallSettingFrame_LookupContinuationIndex 0000000140041ae0 f   libvcruntime:handlers.obj
 0001:00040b10       _CallSettingFrame_NotifyContinuationAddr 0000000140041b10 f   libvcruntime:handlers.obj
 0001:00040b40       _CallSettingFrameEncoded   0000000140041b40 f   libvcruntime:handlers.obj
 0001:00040ba0       memcpy_avx_ermsb_Intel     0000000140041ba0 f   libvcruntime:memcpy_avx_ermsb_aligned.obj
 0001:00040fd0       memcpy_avx_ermsb_amd       0000000140041fd0 f   libvcruntime:memcpy_avx_ermsb_aligned_amd.obj
 0001:00041400       memcpy_sse2_ermsb_Intel    0000000140042400 f   libvcruntime:memcpy_sse2_ermsb_aligned.obj
 0001:000416b0       memcpy_sse2_ermsb_amd      00000001400426b0 f   libvcruntime:memcpy_sse2_ermsb_aligned_amd.obj
 0001:00041960       memcpy_repmovs_Intel       0000000140042960 f   libvcruntime:memcpy_repmovs.obj
 0001:00041980       memcpy_CopyDown_Intel      0000000140042980 f   libvcruntime:memcpy_CopyDown.obj
 0001:00041a70       memcpy_repmovs_amd         0000000140042a70 f   libvcruntime:memcpy_repmovs_amd.obj
 0001:00041a90       memcpy_CopyDown_amd        0000000140042a90 f   libvcruntime:memcpy_CopyDown_amd.obj
 0001:00041b70       round                      0000000140042b70 f   libucrt:round.obj
 0001:00041bd8       lround                     0000000140042bd8 f   libucrt:lround.obj
 0001:00041cf8       ?get_raw_ptd@__crt_cached_ptd_host@@QEAAPEAU__acrt_ptd@@XZ 0000000140042cf8 f i libucrt:fwrite.obj
 0001:00041d60       _fwrite_internal           0000000140042d60 f   libucrt:fwrite.obj
 0001:00041dfc       _fwrite_nolock_internal    0000000140042dfc f   libucrt:fwrite.obj
 0001:00042010       fwrite                     0000000140043010 f   libucrt:fwrite.obj
 0001:000421d8       fclose                     00000001400431d8 f   libucrt:fclose.obj
 0001:00042270       __acrt_initialize_stdio    0000000140043270 f   libucrt:_file.obj
 0001:00042390       __acrt_iob_func            0000000140043390 f   libucrt:_file.obj
 0001:000423a4       __acrt_uninitialize_stdio  00000001400433a4 f   libucrt:_file.obj
 0001:00042400       _get_stream_buffer_pointers 0000000140043400 f   libucrt:_file.obj
 0001:00042448       _lock_file                 0000000140043448 f   libucrt:_file.obj
 0001:00042454       _unlock_file               0000000140043454 f   libucrt:_file.obj
 0001:000425c8       _fputc_nolock_internal     00000001400435c8 f   libucrt:fputc.obj
 0001:000425e0       _fputchar                  00000001400435e0 f   libucrt:fputc.obj
 0001:00042604       fputc                      0000000140043604 f   libucrt:fputc.obj
 0001:0004269c       putchar                    000000014004369c f   libucrt:fputc.obj
 0001:000426a4       _ungetc_nolock             00000001400436a4 f   libucrt:ungetc.obj
 0001:000427c4       ungetc                     00000001400437c4 f   libucrt:ungetc.obj
 0001:0004281c       _fgetc_nolock              000000014004381c f   libucrt:fgetc.obj
 0001:00042860       fgetc                      0000000140043860 f   libucrt:fgetc.obj
 0001:00042974       ?get_raw_ptd_noexit@__crt_cached_ptd_host@@QEAAPEAU__acrt_ptd@@XZ 0000000140043974 f i libucrt:invalid_parameter.obj
 0001:000429e0       ?value@?$dual_state_global@P6AXPEB_W00I_K@Z@__crt_state_management@@QEAAAEAP6AXPEB_W00I_K@ZAEAV__crt_cached_ptd_host@@@Z 00000001400439e0 f i libucrt:invalid_parameter.obj
 0001:00042a2c       __acrt_call_reportfault    0000000140043a2c f   libucrt:invalid_parameter.obj
 0001:00042b88       __acrt_initialize_invalid_parameter_handler 0000000140043b88 f   libucrt:invalid_parameter.obj
 0001:00042b90       _invalid_parameter         0000000140043b90 f   libucrt:invalid_parameter.obj
 0001:00042c2c       _invalid_parameter_internal 0000000140043c2c f   libucrt:invalid_parameter.obj
 0001:00042cf8       _invalid_parameter_noinfo  0000000140043cf8 f   libucrt:invalid_parameter.obj
 0001:00042d18       _invalid_parameter_noinfo_noreturn 0000000140043d18 f   libucrt:invalid_parameter.obj
 0001:00042d48       _invoke_watson             0000000140043d48 f   libucrt:invalid_parameter.obj
 0001:00042d90       _fread_nolock_s            0000000140043d90 f   libucrt:fread.obj
 0001:00042ff0       fread                      0000000140043ff0 f   libucrt:fread.obj
 0001:00043010       fread_s                    0000000140044010 f   libucrt:fread.obj
 0001:00043328       _fseeki64                  0000000140044328 f   libucrt:fseek.obj
 0001:000433c0       fseek                      00000001400443c0 f   libucrt:fseek.obj
 0001:0004345c       fgetpos                    000000014004445c f   libucrt:fgetpos.obj
 0001:000434a8       fsetpos                    00000001400444a8 f   libucrt:fsetpos.obj
 0001:00043608       setvbuf                    0000000140044608 f   libucrt:setvbuf.obj
 0001:00043960       __acrt_stdio_flush_nolock  0000000140044960 f   libucrt:fflush.obj
 0001:000439ec       _fflush_nolock             00000001400449ec f   libucrt:fflush.obj
 0001:00043ac0       _flushall                  0000000140044ac0 f   libucrt:fflush.obj
 0001:00043ac8       fflush                     0000000140044ac8 f   libucrt:fflush.obj
 0001:00043b30       free                       0000000140044b30 f   libucrt:free.obj
 0001:00043b60       strlen                     0000000140044b60 f   libucrt:strlen.obj
 0001:00043c48       ??$ensure_buffer_is_big_enough@D@formatting_buffer@__crt_stdio_output@@QEAA_N_KAEAV__crt_cached_ptd_host@@@Z 0000000140044c48 f i libucrt:output.obj
 0001:00043cf0       ??$parse_integer@KV?$c_string_character_source@D@__crt_strtox@@$0A@@__crt_strtox@@YAKAEAV__crt_cached_ptd_host@@V?$c_string_character_source@D@0@H_N@Z 0000000140044cf0 f i libucrt:output.obj
 0001:00043fa4       ??$type_case_integer@$07@?$output_processor@DV?$stream_output_adapter@D@__crt_stdio_output@@V?$standard_base@DV?$stream_output_adapter@D@__crt_stdio_output@@@2@@__crt_stdio_output@@AEAA_N_N@Z 0000000140044fa4 f i libucrt:output.obj
 0001:000441a8       ??$type_case_integer@$09@?$output_processor@DV?$stream_output_adapter@D@__crt_stdio_output@@V?$standard_base@DV?$stream_output_adapter@D@__crt_stdio_output@@@2@@__crt_stdio_output@@AEAA_N_N@Z 00000001400451a8 f i libucrt:output.obj
 0001:000443ac       ??$type_case_integer@$0BA@@?$output_processor@DV?$stream_output_adapter@D@__crt_stdio_output@@V?$standard_base@DV?$stream_output_adapter@D@__crt_stdio_output@@@2@@__crt_stdio_output@@AEAA_N_N@Z 00000001400453ac f i libucrt:output.obj
 0001:000445b0       ??$type_case_integer_parse_into_buffer@I$07@?$output_processor@DV?$stream_output_adapter@D@__crt_stdio_output@@V?$standard_base@DV?$stream_output_adapter@D@__crt_stdio_output@@@2@@__crt_stdio_output@@AEAAXI_N@Z 00000001400455b0 f i libucrt:output.obj
 0001:00044620       ??$type_case_integer_parse_into_buffer@I$09@?$output_processor@DV?$stream_output_adapter@D@__crt_stdio_output@@V?$standard_base@DV?$stream_output_adapter@D@__crt_stdio_output@@@2@@__crt_stdio_output@@AEAAXI_N@Z 0000000140045620 f i libucrt:output.obj
 0001:000446cc       ??$type_case_integer_parse_into_buffer@I$0BA@@?$output_processor@DV?$stream_output_adapter@D@__crt_stdio_output@@V?$standard_base@DV?$stream_output_adapter@D@__crt_stdio_output@@@2@@__crt_stdio_output@@AEAAXI_N@Z 00000001400456cc f i libucrt:output.obj
 0001:00044750       ??$type_case_integer_parse_into_buffer@_K$07@?$output_processor@DV?$stream_output_adapter@D@__crt_stdio_output@@V?$standard_base@DV?$stream_output_adapter@D@__crt_stdio_output@@@2@@__crt_stdio_output@@AEAAX_K_N@Z 0000000140045750 f i libucrt:output.obj
 0001:000447c0       ??$type_case_integer_parse_into_buffer@_K$09@?$output_processor@DV?$stream_output_adapter@D@__crt_stdio_output@@V?$standard_base@DV?$stream_output_adapter@D@__crt_stdio_output@@@2@@__crt_stdio_output@@AEAAX_K_N@Z 00000001400457c0 f i libucrt:output.obj
 0001:00044870       ??$type_case_integer_parse_into_buffer@_K$0BA@@?$output_processor@DV?$stream_output_adapter@D@__crt_stdio_output@@V?$standard_base@DV?$stream_output_adapter@D@__crt_stdio_output@@@2@@__crt_stdio_output@@AEAAX_K_N@Z 0000000140045870 f i libucrt:output.obj
 0001:00044a10       ?crop_zeroes@__crt_stdio_output@@YAXPEADQEAU__crt_locale_pointers@@@Z 0000000140045a10 f i libucrt:output.obj
 0001:00044a7c       ?parse_int_from_format_string@?$output_processor@DV?$stream_output_adapter@D@__crt_stdio_output@@V?$standard_base@DV?$stream_output_adapter@D@__crt_stdio_output@@@2@@__crt_stdio_output@@AEAA_NQEAH@Z 0000000140045a7c f i libucrt:output.obj
 0001:00044b0c       ?process@?$output_processor@DV?$stream_output_adapter@D@__crt_stdio_output@@V?$standard_base@DV?$stream_output_adapter@D@__crt_stdio_output@@@2@@__crt_stdio_output@@QEAAHXZ 0000000140045b0c f i libucrt:output.obj
 0001:00044ea4       ?state_case_size@?$output_processor@DV?$stream_output_adapter@D@__crt_stdio_output@@V?$standard_base@DV?$stream_output_adapter@D@__crt_stdio_output@@@2@@__crt_stdio_output@@AEAA_NXZ 0000000140045ea4 f i libucrt:output.obj
 0001:0004502c       ?state_case_type@?$output_processor@DV?$stream_output_adapter@D@__crt_stdio_output@@V?$standard_base@DV?$stream_output_adapter@D@__crt_stdio_output@@@2@@__crt_stdio_output@@AEAA_NXZ 000000014004602c f i libucrt:output.obj
 0001:00045464       ?type_case_Z@?$output_processor@DV?$stream_output_adapter@D@__crt_stdio_output@@V?$standard_base@DV?$stream_output_adapter@D@__crt_stdio_output@@@2@@__crt_stdio_output@@AEAA_NXZ 0000000140046464 f i libucrt:output.obj
 0001:000454e0       ?type_case_a@?$output_processor@DV?$stream_output_adapter@D@__crt_stdio_output@@V?$standard_base@DV?$stream_output_adapter@D@__crt_stdio_output@@@2@@__crt_stdio_output@@AEAA_NXZ 00000001400464e0 f i libucrt:output.obj
 0001:00045734       ?type_case_c_tchar@?$output_processor@DV?$stream_output_adapter@D@__crt_stdio_output@@V?$standard_base@DV?$stream_output_adapter@D@__crt_stdio_output@@@2@@__crt_stdio_output@@AEAA_ND@Z 0000000140046734 f i libucrt:output.obj
 0001:00045808       ?type_case_n@?$output_processor@DV?$stream_output_adapter@D@__crt_stdio_output@@V?$standard_base@DV?$stream_output_adapter@D@__crt_stdio_output@@@2@@__crt_stdio_output@@AEAA_NXZ 0000000140046808 f i libucrt:output.obj
 0001:000458c0       ?type_case_s@?$output_processor@DV?$stream_output_adapter@D@__crt_stdio_output@@V?$standard_base@DV?$stream_output_adapter@D@__crt_stdio_output@@@2@@__crt_stdio_output@@AEAA_NXZ 00000001400468c0 f i libucrt:output.obj
 0001:00045960       ?update_locale_slow@__crt_cached_ptd_host@@AEAAXXZ 0000000140046960 f i libucrt:output.obj
 0001:000459d8       ?validate_stream_is_ansi_if_required@?$__acrt_stdio_char_traits@D@@SA_NQEAU_iobuf@@@Z 00000001400469d8 f i libucrt:output.obj
 0001:00045a74       ?write_string_impl@?$output_adapter_common@DV?$stream_output_adapter@D@__crt_stdio_output@@@__crt_stdio_output@@IEBAXQEBDHQEAHAEAV__crt_cached_ptd_host@@@Z 0000000140046a74 f i libucrt:output.obj
 0001:00045b40       __stdio_common_vfprintf    0000000140046b40 f   libucrt:output.obj
 0001:00045d4c       puts                       0000000140046d4c f   libucrt:puts.obj
 0001:00045f74       _fputwc_nolock_internal    0000000140046f74 f   libucrt:fputwc.obj
 0001:00046100       _fputwchar                 0000000140047100 f   libucrt:fputwc.obj
 0001:00046124       fputwc                     0000000140047124 f   libucrt:fputwc.obj
 0001:000461c0       putwchar                   00000001400471c0 f   libucrt:fputwc.obj
 0001:0004631c       __acrt_get_sigabrt_handler 000000014004731c f   libucrt:signal.obj
 0001:0004634c       __acrt_initialize_signal_handlers 000000014004734c f   libucrt:signal.obj
 0001:0004636c       raise                      000000014004736c f   libucrt:signal.obj
 0001:000465e8       signal                     00000001400475e8 f   libucrt:signal.obj
 0001:000467ac       _time64                    00000001400477ac f   libucrt:time.obj
 0001:00046b20       _localtime64_s             0000000140047b20 f   libucrt:localtime.obj
 0001:00046b28       __acrt_initialize_new_handler 0000000140047b28 f   libucrt:new_handler.obj
 0001:00046b30       _callnewh                  0000000140047b30 f   libucrt:new_handler.obj
 0001:00046b70       _query_new_handler         0000000140047b70 f   libucrt:new_handler.obj
 0001:00046ba8       malloc                     0000000140047ba8 f   libucrt:malloc.obj
 0001:00046bb0       _seh_filter_exe            0000000140047bb0 f   libucrt:exception_filter.obj
 0001:00046fc8       __acrt_initialize_thread_local_exit_callback 0000000140047fc8 f   libucrt:exit.obj
 0001:00046fd0       _c_exit                    0000000140047fd0 f   libucrt:exit.obj
 0001:00046fe0       _cexit                     0000000140047fe0 f   libucrt:exit.obj
 0001:00046ff0       _exit                      0000000140047ff0 f   libucrt:exit.obj
 0001:00046ffc       _register_thread_local_exe_atexit_callback 0000000140047ffc f   libucrt:exit.obj
 0001:0004703c       exit                       000000014004803c f   libucrt:exit.obj
 0001:00047210       __acrt_allocate_buffer_for_argv 0000000140048210 f   libucrt:argv_parsing.obj
 0001:00047270       _configure_narrow_argv     0000000140048270 f   libucrt:argv_parsing.obj
 0001:00047920       __dcrt_get_or_create_narrow_environment_nolock 0000000140048920 f   libucrt:environment_initialization.obj
 0001:0004795c       __dcrt_get_or_create_wide_environment_nolock 000000014004895c f   libucrt:environment_initialization.obj
 0001:00047998       __dcrt_uninitialize_environments_nolock 0000000140048998 f   libucrt:environment_initialization.obj
 0001:000479dc       _get_initial_narrow_environment 00000001400489dc f   libucrt:environment_initialization.obj
 0001:00047a2c       _initialize_narrow_environment 0000000140048a2c f   libucrt:environment_initialization.obj
 0001:00047d7c       _crt_atexit                0000000140048d7c f   libucrt:onexit.obj
 0001:00047d8c       _execute_onexit_table      0000000140048d8c f   libucrt:onexit.obj
 0001:00047dd0       _initialize_onexit_table   0000000140048dd0 f   libucrt:onexit.obj
 0001:00047df8       _register_onexit_function  0000000140048df8 f   libucrt:onexit.obj
 0001:00047f6c       __acrt_initialize          0000000140048f6c f   libucrt:initialization.obj
 0001:00047f80       __acrt_uninitialize        0000000140048f80 f   libucrt:initialization.obj
 0001:00047fb8       _query_app_type            0000000140048fb8 f   libucrt:report_runtime_error.obj
 0001:00047fc0       _set_app_type              0000000140048fc0 f   libucrt:report_runtime_error.obj
 0001:00047fc8       __acrt_has_user_matherr    0000000140048fc8 f   libucrt:matherr.obj
 0001:00047fe8       __acrt_initialize_user_matherr 0000000140048fe8 f   libucrt:matherr.obj
 0001:00047ff0       __acrt_invoke_user_matherr 0000000140048ff0 f   libucrt:matherr.obj
 0001:0004802c       __setusermatherr           000000014004902c f   libucrt:matherr.obj
 0001:00048054       _initterm                  0000000140049054 f   libucrt:initterm.obj
 0001:00048098       _initterm_e                0000000140049098 f   libucrt:initterm.obj
 0001:000480e0       _get_fmode                 00000001400490e0 f   libucrt:setmode.obj
 0001:00048110       _set_fmode                 0000000140049110 f   libucrt:setmode.obj
 0001:00048150       _setmode_nolock            0000000140049150 f   libucrt:setmode.obj
 0001:00048234       __acrt_initialize_command_line 0000000140049234 f   libucrt:argv_data.obj
 0001:0004825c       __p___argc                 000000014004925c f   libucrt:argv_data.obj
 0001:00048264       __p___argv                 0000000140049264 f   libucrt:argv_data.obj
 0001:000484d4       ?commit_locale_name@_expandlocale_locale_name_cache@@QEAAXQEB_W_K@Z 00000001400494d4 f i libucrt:wsetlocale.obj
 0001:0004854c       __acrt_copy_locale_name    000000014004954c f   libucrt:wsetlocale.obj
 0001:000485d0       __acrt_set_locale_changed  00000001400495d0 f   libucrt:wsetlocale.obj
 0001:000485dc       __acrt_uninitialize_locale 00000001400495dc f   libucrt:wsetlocale.obj
 0001:0004860c       __lc_lctowcs               000000014004960c f   libucrt:wsetlocale.obj
 0001:000486b0       __lc_wcstolc               00000001400496b0 f   libucrt:wsetlocale.obj
 0001:00048818       _configthreadlocale        0000000140049818 f   libucrt:wsetlocale.obj
 0001:00048dc4       _wcscats                   0000000140049dc4 f   libucrt:wsetlocale.obj
 0001:00048e2c       _wsetlocale                0000000140049e2c f   libucrt:wsetlocale.obj
 0001:00049b58       _query_new_mode            000000014004ab58 f   libucrt:new_mode.obj
 0001:00049b60       _set_new_mode              000000014004ab60 f   libucrt:new_mode.obj
 0001:00049b8c       __p__commode               000000014004ab8c f   libucrt:ncommode.obj
 0001:00049b94       terminate                  000000014004ab94 f   libucrt:terminate.obj
 0001:00049e9c       setlocale                  000000014004ae9c f   libucrt:setlocale.obj
 0001:00049ee8       __acrt_initialize_locks    000000014004aee8 f   libucrt:locks.obj
 0001:00049f30       __acrt_lock                000000014004af30 f   libucrt:locks.obj
 0001:00049f4c       __acrt_uninitialize_locks  000000014004af4c f   libucrt:locks.obj
 0001:00049f84       __acrt_unlock              000000014004af84 f   libucrt:locks.obj
 0001:00049fa0       _lock_locales              000000014004afa0 f   libucrt:locks.obj
 0001:00049fbc       _unlock_locales            000000014004afbc f   libucrt:locks.obj
 0001:0004a088       _fsopen                    000000014004b088 f   libucrt:fopen.obj
 0001:0004a090       __pctype_func              000000014004b090 f   libucrt:ctype.obj
 0001:0004a0c0       islower                    000000014004b0c0 f   libucrt:_ctype.obj
 0001:0004a170       isupper                    000000014004b170 f   libucrt:_ctype.obj
 0001:0004a218       ___lc_codepage_func        000000014004b218 f   libucrt:initctype.obj
 0001:0004a248       ___lc_locale_name_func     000000014004b248 f   libucrt:initctype.obj
 0001:0004a27c       __acrt_locale_initialize_ctype 000000014004b27c f   libucrt:initctype.obj
 0001:0004a8e0       calloc                     000000014004b8e0 f   libucrt:calloc.obj
 0001:0004a8e8       _wcsdup                    000000014004b8e8 f   libucrt:wcsdup.obj
 0001:0004a96c       rand_s                     000000014004b96c f   libucrt:rand_s.obj
 0001:0004a9b8       __acrt_errno_from_os_error 000000014004b9b8 f   libucrt:errno.obj
 0001:0004aa00       __acrt_errno_map_os_error  000000014004ba00 f   libucrt:errno.obj
 0001:0004aa48       __acrt_errno_map_os_error_ptd 000000014004ba48 f   libucrt:errno.obj
 0001:0004aa6c       __doserrno                 000000014004ba6c f   libucrt:errno.obj
 0001:0004aa8c       _errno                     000000014004ba8c f   libucrt:errno.obj
 0001:0004aaac       ??0_LocaleUpdate@@QEAA@QEAU__crt_locale_pointers@@@Z 000000014004baac f i libucrt:strtod.obj
 0001:0004ab50       ?divide@__crt_strtox@@YA_KAEAUbig_integer@1@AEBU21@@Z 000000014004bb50 f i libucrt:strtod.obj
 0001:0004b074       _dclass                    000000014004c074 f   libucrt:nan.obj
 0001:0004b090       abort                      000000014004c090 f   libucrt:abort.obj
 0001:0004b0e8       __strncnt                  000000014004c0e8 f   libucrt:strncnt.obj
 0001:0004b100       ??$__acrt_convert_wcs_mbs_cp@D_WV<lambda_7c9dea7b4ca7285d2cdb541a38da6275>@@U__crt_win32_buffer_internal_dynamic_resizing@@@@YAHQEBDAEAV?$__crt_win32_buffer@_WU__crt_win32_buffer_internal_dynamic_resizing@@@@AEBV<lambda_7c9dea7b4ca7285d2cdb541a38da6275>@@I@Z 000000014004c100 f i libucrt:strftime.obj
 0001:0004b27c       ??$__acrt_convert_wcs_mbs_cp@_WDV<lambda_f788ae46380686e8b737efdd8c720d07>@@U__crt_win32_buffer_no_resizing@@@@YAHQEB_WAEAV?$__crt_win32_buffer@DU__crt_win32_buffer_no_resizing@@@@AEBV<lambda_f788ae46380686e8b737efdd8c720d07>@@I@Z 000000014004c27c f i libucrt:strftime.obj
 0001:0004b398       ??$__crt_time_is_leap_year@H@@YA_NH@Z 000000014004c398 f i libucrt:wcsftime.obj
 0001:0004b3f4       strnlen                    000000014004c3f4 f   libucrt:strnlen.obj
 0001:0004b544       wcsnlen                    000000014004c544 f   libucrt:strnlen.obj
 0001:0004b71c       strcpy_s                   000000014004c71c f   libucrt:strcpy_s.obj
 0001:0004b77c       ??$parse_integer@KV?$c_string_character_source@_W@__crt_strtox@@$00@__crt_strtox@@YAKAEAV__crt_cached_ptd_host@@V?$c_string_character_source@_W@0@H_N@Z 000000014004c77c f i libucrt:atox.obj
 0001:0004bf18       _wtol                      000000014004cf18 f   libucrt:atox.obj
 0001:0004bfe0       strncmp                    000000014004cfe0 f   libucrt:strncmp.obj
 0001:0004c060       wcsncmp                    000000014004d060 f   libucrt:wcsncmp.obj
 0001:0004c08c       _d_int                     000000014004d08c f   libucrt:_test.obj
 0001:0004c1a4       _dtest                     000000014004d1a4 f   libucrt:_test.obj
 0001:0004c208       _fperrraise                000000014004d208 f   libucrt:_test.obj
 0001:0004c2bc       _fileno                    000000014004d2bc f   libucrt:fileno.obj
 0001:0004caec       _write                     000000014004daec f   libucrt:write.obj
 0001:0004cb84       _write_internal            000000014004db84 f   libucrt:write.obj
 0001:0004cca4       _write_nolock              000000014004dca4 f   libucrt:write.obj
 0001:0004d21c       __acrt_stdio_flush_and_write_narrow_nolock 000000014004e21c f   libucrt:_flsbuf.obj
 0001:0004d2e8       __acrt_stdio_flush_and_write_wide_nolock 000000014004e2e8 f   libucrt:_flsbuf.obj
 0001:0004d3b4       __acrt_should_use_temporary_buffer 000000014004e3b4 f   libucrt:_sftbuf.obj
 0001:0004d400       __acrt_stdio_begin_temporary_buffering_nolock 000000014004e400 f   libucrt:_sftbuf.obj
 0001:0004d4c8       __acrt_stdio_end_temporary_buffering_nolock 000000014004e4c8 f   libucrt:_sftbuf.obj
 0001:0004d880       __acrt_getptd              000000014004e880 f   libucrt:per_thread_data.obj
 0001:0004d954       __acrt_getptd_head         000000014004e954 f   libucrt:per_thread_data.obj
 0001:0004d9f8       __acrt_getptd_noexit       000000014004e9f8 f   libucrt:per_thread_data.obj
 0001:0004dac0       __acrt_getptd_noexit_explicit 000000014004eac0 f   libucrt:per_thread_data.obj
 0001:0004db80       __acrt_initialize_ptd      000000014004eb80 f   libucrt:per_thread_data.obj
 0001:0004dbbc       __acrt_uninitialize_ptd    000000014004ebbc f   libucrt:per_thread_data.obj
 0001:0004dbe0       _free_base                 000000014004ebe0 f   libucrt:free_base.obj
 0001:0004dc94       _close_internal            000000014004ec94 f   libucrt:close.obj
 0001:0004dd58       _close_nolock              000000014004ed58 f   libucrt:close.obj
 0001:0004ddf0       _close_nolock_internal     000000014004edf0 f   libucrt:close.obj
 0001:0004dec0       ?__acrt_stdio_allocate_stream@@YA?AV__crt_stdio_stream@@XZ 000000014004eec0 f   libucrt:stream.obj
 0001:0004df18       ?__acrt_stdio_free_stream@@YAXV__crt_stdio_stream@@@Z 000000014004ef18 f   libucrt:stream.obj
 0001:0004e020       __acrt_stdio_free_buffer_nolock 000000014004f020 f   libucrt:_freebuf.obj
 0001:0004e064       _calloc_base               000000014004f064 f   libucrt:calloc_base.obj
 0001:0004e34c       __acrt_AppPolicyGetProcessTerminationMethodInternal 000000014004f34c f   libucrt:winapi_thunks.obj
 0001:0004e3a4       __acrt_AreFileApisANSI     000000014004f3a4 f   libucrt:winapi_thunks.obj
 0001:0004e3e8       __acrt_CompareStringEx     000000014004f3e8 f   libucrt:winapi_thunks.obj
 0001:0004e4d4       __acrt_EnumSystemLocalesEx 000000014004f4d4 f   libucrt:winapi_thunks.obj
 0001:0004e574       __acrt_FlsAlloc            000000014004f574 f   libucrt:winapi_thunks.obj
 0001:0004e57c       __acrt_FlsFree             000000014004f57c f   libucrt:winapi_thunks.obj
 0001:0004e584       __acrt_FlsGetValue         000000014004f584 f   libucrt:winapi_thunks.obj
 0001:0004e58c       __acrt_FlsSetValue         000000014004f58c f   libucrt:winapi_thunks.obj
 0001:0004e594       __acrt_GetLocaleInfoEx     000000014004f594 f   libucrt:winapi_thunks.obj
 0001:0004e624       __acrt_GetUserDefaultLocaleName 000000014004f624 f   libucrt:winapi_thunks.obj
 0001:0004e690       __acrt_InitializeCriticalSectionEx 000000014004f690 f   libucrt:winapi_thunks.obj
 0001:0004e700       __acrt_IsValidLocaleName   000000014004f700 f   libucrt:winapi_thunks.obj
 0001:0004e764       __acrt_LCIDToLocaleName    000000014004f764 f   libucrt:winapi_thunks.obj
 0001:0004e7e8       __acrt_LCMapStringEx       000000014004f7e8 f   libucrt:winapi_thunks.obj
 0001:0004e8d4       __acrt_LocaleNameToLCID    000000014004f8d4 f   libucrt:winapi_thunks.obj
 0001:0004e934       __acrt_RtlGenRandom        000000014004f934 f   libucrt:winapi_thunks.obj
 0001:0004e990       __acrt_can_use_vista_locale_apis 000000014004f990 f   libucrt:winapi_thunks.obj
 0001:0004e9c0       __acrt_eagerly_load_locale_apis 000000014004f9c0 f   libucrt:winapi_thunks.obj
 0001:0004eb1c       __acrt_initialize_winapi_thunks 000000014004fb1c f   libucrt:winapi_thunks.obj
 0001:0004eb40       __acrt_uninitialize_winapi_thunks 000000014004fb40 f   libucrt:winapi_thunks.obj
 0001:0004eb84       _fcloseall                 000000014004fb84 f   libucrt:closeall.obj
 0001:0004ee30       __acrt_initialize_lowio    000000014004fe30 f   libucrt:ioinit.obj
 0001:0004ee6c       __acrt_uninitialize_lowio  000000014004fe6c f   libucrt:ioinit.obj
 0001:0004eeac       __acrt_stdio_allocate_buffer_nolock 000000014004feac f   libucrt:_getbuf.obj
 0001:0004ef18       __acrt_stdio_refill_and_read_narrow_nolock 000000014004ff18 f   libucrt:_filbuf.obj
 0001:0004f508       _read                      0000000140050508 f   libucrt:read.obj
 0001:0004f628       _read_nolock               0000000140050628 f   libucrt:read.obj
 0001:0004fc44       _lseeki64                  0000000140050c44 f   libucrt:lseek.obj
 0001:0004fce0       _lseeki64_internal         0000000140050ce0 f   libucrt:lseek.obj
 0001:0004fce8       _lseeki64_nolock           0000000140050ce8 f   libucrt:lseek.obj
 0001:0004fd84       _lseeki64_nolock_internal  0000000140050d84 f   libucrt:lseek.obj
 0001:00050280       _ftelli64                  0000000140051280 f   libucrt:ftell.obj
 0001:0005031c       _ftelli64_nolock_internal  000000014005131c f   libucrt:ftell.obj
 0001:000503b0       _commit                    00000001400513b0 f   libucrt:commit.obj
 0001:00050444       _malloc_base               0000000140051444 f   libucrt:malloc_base.obj
 0001:000504a4       __acrt_update_locale_info  00000001400514a4 f   libucrt:locale_update.obj
 0001:000504d8       __acrt_update_locale_info_explicit 00000001400514d8 f   libucrt:locale_update.obj
 0001:00050510       __acrt_update_multibyte_info 0000000140051510 f   libucrt:locale_update.obj
 0001:00050544       __acrt_update_multibyte_info_explicit 0000000140051544 f   libucrt:locale_update.obj
 0001:00051090       __acrt_fp_format           0000000140052090 f   libucrt:cvt.obj
 0001:00051378       _wctomb_internal           0000000140052378 f   libucrt:wctomb.obj
 0001:00051528       _mbtowc_internal           0000000140052528 f   libucrt:mbtowc.obj
 0001:000516a0       _get_printf_count_output   00000001400526a0 f   libucrt:printf_count_output.obj
 0001:000516b8       __acrt_initialize_timeset  00000001400526b8 f   libucrt:timeset.obj
 0001:00051708       __daylight                 0000000140052708 f   libucrt:timeset.obj
 0001:00051710       __dstbias                  0000000140052710 f   libucrt:timeset.obj
 0001:00051718       __timezone                 0000000140052718 f   libucrt:timeset.obj
 0001:00051720       __tzname                   0000000140052720 f   libucrt:timeset.obj
 0001:00051728       __wide_tzname              0000000140052728 f   libucrt:timeset.obj
 0001:00051730       _get_daylight              0000000140052730 f   libucrt:timeset.obj
 0001:00051760       _get_dstbias               0000000140052760 f   libucrt:timeset.obj
 0001:00051790       _get_timezone              0000000140052790 f   libucrt:timeset.obj
 0001:00051a48       _gmtime64_s                0000000140052a48 f   libucrt:gmtime.obj
 0001:000525bc       __tzset                    00000001400535bc f   libucrt:tzset.obj
 0001:00052600       _isindst                   0000000140053600 f   libucrt:tzset.obj
 0001:00052630       __acrt_app_verifier_enabled 0000000140053630 f   libucrt:peb_access.obj
 0001:0005264c       __acrt_is_secure_process   000000014005364c f   libucrt:peb_access.obj
 0001:00052664       __acrt_get_process_end_policy 0000000140053664 f   libucrt:win_policies.obj
 0001:000526a8       ??$__acrt_convert_wcs_mbs_cp@_WDV<lambda_d8593a27d1aa8c02be35c86a17d324c4>@@U__crt_win32_buffer_internal_dynamic_resizing@@@@YAHQEB_WAEAV?$__crt_win32_buffer@DU__crt_win32_buffer_internal_dynamic_resizing@@@@AEBV<lambda_d8593a27d1aa8c02be35c86a17d324c4>@@I@Z 00000001400536a8 f i libucrt:argv_wildcards.obj
 0001:00052f4c       __acrt_expand_narrow_argv_wildcards 0000000140053f4c f   libucrt:argv_wildcards.obj
 0001:00052f54       __acrt_GetModuleFileNameA  0000000140053f54 f   libucrt:getmodulefilenamea.obj
 0001:00053870       __acrt_initialize_multibyte 0000000140054870 f   libucrt:mbctype.obj
 0001:000538d0       __acrt_update_thread_multibyte_data 00000001400548d0 f   libucrt:mbctype.obj
 0001:000538ec       _setmbcp_nolock            00000001400548ec f   libucrt:mbctype.obj
 0001:00053c20       _ismbblead                 0000000140054c20 f   libucrt:ismbbyte.obj
 0001:00053c34       wcscpy_s                   0000000140054c34 f   libucrt:wcscpy_s.obj
 0001:00053c9c       __acrt_MultiByteToWideChar 0000000140054c9c f   libucrt:multibytetowidechar.obj
 0001:00053d2c       __acrt_WideCharToMultiByte 0000000140054d2c f   libucrt:widechartomultibyte.obj
 0001:00053e0c       __dcrt_get_narrow_environment_from_os 0000000140054e0c f   libucrt:get_environment_from_os.obj
 0001:00053f1c       __dcrt_get_wide_environment_from_os 0000000140054f1c f   libucrt:get_environment_from_os.obj
 0001:0005484c       __dcrt_set_variable_in_narrow_environment_nolock 000000014005584c f   libucrt:setenv.obj
 0001:00054854       __dcrt_set_variable_in_wide_environment_nolock 0000000140055854 f   libucrt:setenv.obj
 0001:0005485c       _recalloc_base             000000014005585c f   libucrt:recalloc.obj
 0001:000548f4       __acrt_initialize_heap     00000001400558f4 f   libucrt:heap_handle.obj
 0001:00054910       __acrt_uninitialize_heap   0000000140055910 f   libucrt:heap_handle.obj
 0001:0005491c       __acrt_execute_initializers 000000014005591c f   libucrt:shared_initialization.obj
 0001:000549b0       __acrt_execute_uninitializers 00000001400559b0 f   libucrt:shared_initialization.obj
 0001:000549f8       wcscat_s                   00000001400559f8 f   libucrt:wcscat_s.obj
 0001:00054a70       wcsncpy_s                  0000000140055a70 f   libucrt:wcsncpy_s.obj
 0001:00054b6c       __acrt_lowio_create_handle_array 0000000140055b6c f   libucrt:osfinfo.obj
 0001:00054c14       __acrt_lowio_destroy_handle_array 0000000140055c14 f   libucrt:osfinfo.obj
 0001:00054c64       __acrt_lowio_ensure_fh_exists 0000000140055c64 f   libucrt:osfinfo.obj
 0001:00054d0c       __acrt_lowio_lock_fh       0000000140055d0c f   libucrt:osfinfo.obj
 0001:00054d34       __acrt_lowio_set_os_handle 0000000140055d34 f   libucrt:osfinfo.obj
 0001:00054df4       __acrt_lowio_unlock_fh     0000000140055df4 f   libucrt:osfinfo.obj
 0001:00054e1c       _alloc_osfhnd              0000000140055e1c f   libucrt:osfinfo.obj
 0001:00054f5c       _free_osfhnd               0000000140055f5c f   libucrt:osfinfo.obj
 0001:00055018       _get_osfhandle             0000000140056018 f   libucrt:osfinfo.obj
 0001:00055090       __acrt_initialize_fmode    0000000140056090 f   libucrt:txtmode.obj
 0001:000550ac       __acrt_locale_free_monetary 00000001400560ac f   libucrt:initmon.obj
 0001:000551b8       __acrt_locale_initialize_monetary 00000001400561b8 f   libucrt:initmon.obj
 0001:000556d4       __acrt_locale_free_numeric 00000001400566d4 f   libucrt:initnum.obj
 0001:00055740       __acrt_locale_initialize_numeric 0000000140056740 f   libucrt:initnum.obj
 0001:00055d9c       __acrt_locale_free_time    0000000140056d9c f   libucrt:inittime.obj
 0001:00055ea4       __acrt_locale_initialize_time 0000000140056ea4 f   libucrt:inittime.obj
 0001:00055f40       wcsncat_s                  0000000140056f40 f   libucrt:wcsncat_s.obj
 0001:00056038       wcscspn                    0000000140057038 f   libucrt:wcscspn.obj
 0001:00056078       wcspbrk                    0000000140057078 f   libucrt:wcspbrk.obj
 0001:000560ac       __acrt_GetStringTypeA      00000001400570ac f   libucrt:getstringtypea.obj
 0001:0005623c       __acrt_add_locale_ref      000000014005723c f   libucrt:locale_refcounting.obj
 0001:000562c8       __acrt_free_locale         00000001400572c8 f   libucrt:locale_refcounting.obj
 0001:00056440       __acrt_locale_add_lc_time_reference 0000000140057440 f   libucrt:locale_refcounting.obj
 0001:00056468       __acrt_locale_free_lc_time_if_unreferenced 0000000140057468 f   libucrt:locale_refcounting.obj
 0001:000564a0       __acrt_locale_release_lc_time_reference 00000001400574a0 f   libucrt:locale_refcounting.obj
 0001:000564c8       __acrt_release_locale_ref  00000001400574c8 f   libucrt:locale_refcounting.obj
 0001:00056570       __acrt_update_thread_locale_data 0000000140057570 f   libucrt:locale_refcounting.obj
 0001:000565e0       _updatetlocinfoEx_nolock   00000001400575e0 f   libucrt:locale_refcounting.obj
 0001:00056de8       __acrt_get_qualified_locale 0000000140057de8 f   libucrt:get_qualified_locale.obj
 0001:00057830       __acrt_get_qualified_locale_downlevel 0000000140058830 f   libucrt:getqloc_downlevel.obj
 0001:00057dcc       mbstowcs_s                 0000000140058dcc f   libucrt:mbstowcs.obj
 0001:000582c8       _wcstombs_s_l              00000001400592c8 f   libucrt:wcstombs.obj
 0001:00058380       ??$__acrt_stdio_parse_mode@D@@YA?AU__acrt_stdio_stream_mode@@QEBD@Z 0000000140059380 f i libucrt:openfile.obj
 0001:00058644       _openfile                  0000000140059644 f   libucrt:openfile.obj
 0001:000586e0       _isctype_l                 00000001400596e0 f   libucrt:isctype.obj
 0001:00058964       __acrt_GetLocaleInfoA      0000000140059964 f   libucrt:getlocaleinfoa.obj
 0001:00058e60       __acrt_LCMapStringA        0000000140059e60 f   libucrt:lcmapstringa.obj
 0001:00058ef8       _raise_exc                 0000000140059ef8 f   libucrt:fpexcept.obj
 0001:00058f20       _raise_exc_ex              0000000140059f20 f   libucrt:fpexcept.obj
 0001:00059228       _set_errno_from_matherr    000000014005a228 f   libucrt:fpexcept.obj
 0001:00059258       _clrfp                     000000014005a258 f   libucrt:fpctrl.obj
 0001:00059278       _ctrlfp                    000000014005a278 f   libucrt:fpctrl.obj
 0001:000592f4       _set_statfp                000000014005a2f4 f   libucrt:fpctrl.obj
 0001:00059314       _statfp                    000000014005a314 f   libucrt:fpctrl.obj
 0001:00059328       _realloc_base              000000014005a328 f   libucrt:realloc_base.obj
 0001:000593a4       iswctype                   000000014005a3a4 f   libucrt:iswctype.obj
 0001:00059410       fegetround                 000000014005a410 f   libucrt:fegetround.obj
 0001:00059424       __ascii_wcsicmp            000000014005a424 f   libucrt:wcsicmp.obj
 0001:00059464       _wcsicmp                   000000014005a464 f   libucrt:wcsicmp.obj
 0001:000594ac       _wcsicmp_l                 000000014005a4ac f   libucrt:wcsicmp.obj
 0001:000595e0       fegetexceptflag            000000014005a5e0 f   libucrt:fegetexceptflag.obj
 0001:00059624       fesetexceptflag            000000014005a624 f   libucrt:fesetexceptflag.obj
 0001:000596a0       __acrt_fenv_get_common_round_control 000000014005a6a0 f   libucrt:_fenvutils.obj
 0001:000596ac       __acrt_fenv_get_control    000000014005a6ac f   libucrt:_fenvutils.obj
 0001:00059790       __acrt_fenv_get_fp_status_word_from_exception_mask 000000014005a790 f   libucrt:_fenvutils.obj
 0001:0005979c       __acrt_fenv_get_status     000000014005a79c f   libucrt:_fenvutils.obj
 0001:000597f4       __acrt_fenv_set_control    000000014005a7f4 f   libucrt:_fenvutils.obj
 0001:0005992c       __acrt_fenv_set_status     000000014005a92c f   libucrt:_fenvutils.obj
 0001:000599a0       _isatty                    000000014005a9a0 f   libucrt:isatty.obj
 0001:00059a00       ?__mbrtowc_utf8@__crt_mbstring@@YA_KPEA_WPEBD_KPEAU_Mbstatet@@AEAV__crt_cached_ptd_host@@@Z 000000014005aa00 f   libucrt:mbrtowc.obj
 0001:00059a44       ?__mbsrtowcs_utf8@__crt_mbstring@@YA_KPEA_WPEAPEBD_KPEAU_Mbstatet@@AEAV__crt_cached_ptd_host@@@Z 000000014005aa44 f   libucrt:mbrtowc.obj
 0001:00059be8       _putwch_nolock             000000014005abe8 f   libucrt:putwch.obj
 0001:00059c24       __acrt_DownlevelLCIDToLocaleName 000000014005ac24 f   libucrt:lcidtoname_downlevel.obj
 0001:00059d0c       __acrt_DownlevelLocaleNameToLCID 000000014005ad0c f   libucrt:lcidtoname_downlevel.obj
 0001:00059e80       __acrt_fp_strflt_to_string 000000014005ae80 f   libucrt:_fptostr.obj
 0001:00059f90       __acrt_fltout              000000014005af90 f   libucrt:cfout.obj
 0001:0005b220       ?__c32rtomb_utf8@__crt_mbstring@@YA_KPEAD_UPEAU_Mbstatet@@AEAV__crt_cached_ptd_host@@@Z 000000014005c220 f   libucrt:c32rtomb.obj
 0001:0005b2c4       wcstol                     000000014005c2c4 f   libucrt:strtox.obj
 0001:0005b508       _wgetenv_s                 000000014005c508 f   libucrt:getenv.obj
 0001:0005b510       qsort                      000000014005c510 f   libucrt:qsort.obj
 0001:0005b920       strncpy_s                  000000014005c920 f   libucrt:strncpy_s.obj
 0001:0005bab0       strpbrk                    000000014005cab0 f   libucrt:strpbrk.obj
 0001:0005be78       _mbsdec                    000000014005ce78 f   libucrt:mbsdec.obj
 0001:0005be80       _mbsdec_l                  000000014005ce80 f   libucrt:mbsdec.obj
 0001:0005bf2c       _wcsnicoll                 000000014005cf2c f   libucrt:wcsnicol.obj
 0001:0005bf7c       _wcsnicoll_l               000000014005cf7c f   libucrt:wcsnicol.obj
 0001:0005c06c       _strnicoll                 000000014005d06c f   libucrt:strnicol.obj
 0001:0005c084       _strnicoll_l               000000014005d084 f   libucrt:strnicol.obj
 0001:0005c184       __acrt_SetEnvironmentVariableA 000000014005d184 f   libucrt:setenvironmentvariablea.obj
 0001:0005c324       _msize_base                000000014005d324 f   libucrt:msize.obj
 0001:0005c4b0       _itow_s                    000000014005d4b0 f   libucrt:xtoa.obj
 0001:0005c4d0       __ascii_wcsnicmp           000000014005d4d0 f   libucrt:wcsnicmp.obj
 0001:0005c51c       _wcsnicmp                  000000014005d51c f   libucrt:wcsnicmp.obj
 0001:0005c564       _wcsnicmp_l                000000014005d564 f   libucrt:wcsnicmp.obj
 0001:0005c6b8       wcscmp                     000000014005d6b8 f   libucrt:wcscmp.obj
 0001:0005c6f0       ?__wcsrtombs_utf8@__crt_mbstring@@YA_KPEADPEAPEB_W_KPEAU_Mbstatet@@AEAV__crt_cached_ptd_host@@@Z 000000014005d6f0 f   libucrt:wcrtomb.obj
 0001:0005c844       __ascii_strnicmp           000000014005d844 f   libucrt:strnicmp.obj
 0001:0005c890       _strnicmp                  000000014005d890 f   libucrt:strnicmp.obj
 0001:0005c8e0       _strnicmp_l                000000014005d8e0 f   libucrt:strnicmp.obj
 0001:0005cfa0       _sopen_nolock              000000014005dfa0 f   libucrt:open.obj
 0001:0005d0bc       _sopen_s                   000000014005e0bc f   libucrt:open.obj
 0001:0005d0f0       _wsopen_nolock             000000014005e0f0 f   libucrt:open.obj
 0001:0005d4f0       _get_fpsr                  000000014005e4f0 f   libucrt:fpsr.obj
 0001:0005d500       _set_fpsr                  000000014005e500 f   libucrt:fpsr.obj
 0001:0005d50a       _fclrf                     000000014005e50a f   libucrt:fpsr.obj
 0001:0005d51e       _frnd                      000000014005e51e f   libucrt:fpsr.obj
 0001:0005d540       __acrt_GetStringTypeW      000000014005e540 f   libucrt:getstringtypew.obj
 0001:0005d548       _towlower_l                000000014005e548 f   libucrt:towlower.obj
 0001:0005d63c       fetestexcept               000000014005e63c f   libucrt:fetestexcept.obj
 0001:0005d660       ?__mbrtoc32_utf8@__crt_mbstring@@YA_KPEA_UPEBD_KPEAU_Mbstatet@@AEAV__crt_cached_ptd_host@@@Z 000000014005e660 f   libucrt:mbrtoc32.obj
 0001:0005d83c       __dcrt_lowio_ensure_console_output_initialized 000000014005e83c f   libucrt:initcon.obj
 0001:0005d890       __dcrt_terminate_console_output 000000014005e890 f   libucrt:initcon.obj
 0001:0005d8ac       __dcrt_write_console       000000014005e8ac f   libucrt:initcon.obj
 0001:0005d96c       _controlfp_s               000000014005e96c f   libucrt:contrlfp.obj
 0001:0005d9d0       fegetenv                   000000014005e9d0 f   libucrt:fegetenv.obj
 0001:0005d9f0       fesetenv                   000000014005e9f0 f   libucrt:fesetenv.obj
 0001:0005da48       feholdexcept               000000014005ea48 f   libucrt:feholdexcept.obj
 0001:0005da98       ceil                       000000014005ea98 f   libucrt:ceil.obj
 0001:0005db60       log10                      000000014005eb60 f   libucrt:log10.obj
 0001:0005e10c       ?reset_and_return@__crt_mbstring@@YA_K_KPEAU_Mbstatet@@@Z 000000014005f10c f   libucrt:common_utf8.obj
 0001:0005e114       ?return_illegal_sequence@__crt_mbstring@@YA_KPEAU_Mbstatet@@AEAV__crt_cached_ptd_host@@@Z 000000014005f114 f   libucrt:common_utf8.obj
 0001:0005e128       __acrt_CompareStringW      000000014005f128 f   libucrt:comparestringw.obj
 0001:0005e56c       __acrt_CompareStringA      000000014005f56c f   libucrt:comparestringa.obj
 0001:0005e5f8       ?__c16rtomb_utf8@__crt_mbstring@@YA_KPEAD_SPEAU_Mbstatet@@AEAV__crt_cached_ptd_host@@@Z 000000014005f5f8 f   libucrt:c16rtomb.obj
 0001:0005e69c       _chsize_nolock             000000014005f69c f   libucrt:chsize.obj
 0001:0005e734       _chsize_nolock_internal    000000014005f734 f   libucrt:chsize.obj
 0001:0005e8c8       __acrt_LCMapStringW        000000014005f8c8 f   libucrt:lcmapstringw.obj
 0001:0005e950       _clearfp                   000000014005f950 f   libucrt:ieee.obj
 0001:0005e9bc       _control87                 000000014005f9bc f   libucrt:ieee.obj
 0001:0005ed84       _handle_error              000000014005fd84 f   libucrt:libm_error.obj
 0001:0005eeac       _handle_nan                000000014005feac f   libucrt:libm_error.obj
 0001:0005eed0       __acrt_initialize_fma3     000000014005fed0 f   libucrt:fma3_available.obj
 0001:0005ef40       _log10_special             000000014005ff40 f   libucrt:log_special.obj
 0001:0005eff8       __GSHandlerCheck           000000014005fff8 f   libcmt:gshandler.obj
 0001:0005f018       __GSHandlerCheckCommon     0000000140060018 f   libcmt:gshandler.obj
 0001:0005f090       __security_check_cookie    0000000140060090 f   libcmt:amdsecgs.obj
 0001:0005f0b0       _FindPESection             00000001400600b0 f   libcmt:pesect.obj
 0001:0005f100       _IsNonwritableInCurrentImage 0000000140060100 f   libcmt:pesect.obj
 0001:0005f150       _ValidateImageBase         0000000140060150 f   libcmt:pesect.obj
 0001:0005f17c       __GSHandlerCheck_SEH       000000014006017c f   libcmt:gshandlerseh.obj
 0001:0005f204       __raise_securityfailure    0000000140060204 f   libcmt:gs_report.obj
 0001:0005f238       __report_gsfailure         0000000140060238 f   libcmt:gs_report.obj
 0001:0005f30c       __report_rangecheckfailure 000000014006030c f   libcmt:gs_report.obj
 0001:0005f320       __report_securityfailure   0000000140060320 f   libcmt:gs_report.obj
 0001:0005f4a0       __GSHandlerCheck_EH        00000001400604a0 f   libcmt:gshandlereh.obj
 0001:0005f520       _local_unwind              0000000140060520 f   libvcruntime:jmpuwind.obj
 0001:0005f54c       __C_specific_handler_noexcept 000000014006054c f   libvcruntime:chandler_noexcept.obj
 0001:0005f598       strrchr                    0000000140060598 f   libvcruntime:strrchr.obj
 0001:0005f6d4       strchr                     00000001400606d4 f   libvcruntime:strchr.obj
 0001:0005f750       wcschr                     0000000140060750 f   libvcruntime:wcschr.obj
 0001:0005f7e0       _guard_dispatch_icall_nop  00000001400607e0 f   libcmt:guard_dispatch.obj
 0001:0005f800       _guard_xfg_dispatch_icall_nop 0000000140060800 f   libcmt:guard_xfg_dispatch.obj
 0001:0005f830       memcpy_repmovs             0000000140060830 f   libvcruntime:memcpy.obj
 0001:0005f840       memcpy                     0000000140060840 f   libvcruntime:memcpy.obj
 0001:0005f840       memcpy_$fo_default$        0000000140060840     libvcruntime:memcpy.obj
 0001:0005f840       memmove                    0000000140060840 f   libvcruntime:memcpy.obj
 0001:0005fed0       memset_repstos             0000000140060ed0 f   libvcruntime:memset.obj
 0001:0005fee0       memset                     0000000140060ee0 f   libvcruntime:memset.obj
 0001:00060290       memcmp                     0000000140061290 f   libvcruntime:memcmp.obj
 0002:00000000       __imp_SetEndOfFile         0000000140062000     kernel32:KERNEL32.dll
 0002:00000008       __imp_WriteConsoleW        0000000140062008     kernel32:KERNEL32.dll
 0002:00000010       __imp_CreateFileW          0000000140062010     kernel32:KERNEL32.dll
 0002:00000018       __imp_HeapSize             0000000140062018     kernel32:KERNEL32.dll
 0002:00000020       __imp_HeapReAlloc          0000000140062020     kernel32:KERNEL32.dll
 0002:00000028       __imp_SetStdHandle         0000000140062028     kernel32:KERNEL32.dll
 0002:00000030       __imp_GetProcessHeap       0000000140062030     kernel32:KERNEL32.dll
 0002:00000038       __imp_SetEnvironmentVariableW 0000000140062038     kernel32:KERNEL32.dll
 0002:00000040       __imp_FreeEnvironmentStringsW 0000000140062040     kernel32:KERNEL32.dll
 0002:00000048       __imp_GetEnvironmentStringsW 0000000140062048     kernel32:KERNEL32.dll
 0002:00000050       __imp_GetOEMCP             0000000140062050     kernel32:KERNEL32.dll
 0002:00000058       __imp_GetACP               0000000140062058     kernel32:KERNEL32.dll
 0002:00000060       __imp_IsValidCodePage      0000000140062060     kernel32:KERNEL32.dll
 0002:00000068       __imp_FindNextFileW        0000000140062068     kernel32:KERNEL32.dll
 0002:00000070       __imp_FindFirstFileExW     0000000140062070     kernel32:KERNEL32.dll
 0002:00000078       __imp_ReleaseSRWLockExclusive 0000000140062078     kernel32:KERNEL32.dll
 0002:00000080       __imp_AcquireSRWLockExclusive 0000000140062080     kernel32:KERNEL32.dll
 0002:00000088       __imp_WakeAllConditionVariable 0000000140062088     kernel32:KERNEL32.dll
 0002:00000090       __imp_SleepConditionVariableSRW 0000000140062090     kernel32:KERNEL32.dll
 0002:00000098       __imp_RtlCaptureContext    0000000140062098     kernel32:KERNEL32.dll
 0002:000000a0       __imp_RtlLookupFunctionEntry 00000001400620a0     kernel32:KERNEL32.dll
 0002:000000a8       __imp_RtlVirtualUnwind     00000001400620a8     kernel32:KERNEL32.dll
 0002:000000b0       __imp_IsDebuggerPresent    00000001400620b0     kernel32:KERNEL32.dll
 0002:000000b8       __imp_UnhandledExceptionFilter 00000001400620b8     kernel32:KERNEL32.dll
 0002:000000c0       __imp_SetUnhandledExceptionFilter 00000001400620c0     kernel32:KERNEL32.dll
 0002:000000c8       __imp_GetStartupInfoW      00000001400620c8     kernel32:KERNEL32.dll
 0002:000000d0       __imp_IsProcessorFeaturePresent 00000001400620d0     kernel32:KERNEL32.dll
 0002:000000d8       __imp_GetModuleHandleW     00000001400620d8     kernel32:KERNEL32.dll
 0002:000000e0       __imp_QueryPerformanceCounter 00000001400620e0     kernel32:KERNEL32.dll
 0002:000000e8       __imp_GetCurrentProcessId  00000001400620e8     kernel32:KERNEL32.dll
 0002:000000f0       __imp_GetCurrentThreadId   00000001400620f0     kernel32:KERNEL32.dll
 0002:000000f8       __imp_GetSystemTimeAsFileTime 00000001400620f8     kernel32:KERNEL32.dll
 0002:00000100       __imp_InitializeSListHead  0000000140062100     kernel32:KERNEL32.dll
 0002:00000108       __imp_QueryPerformanceFrequency 0000000140062108     kernel32:KERNEL32.dll
 0002:00000110       __imp_Sleep                0000000140062110     kernel32:KERNEL32.dll
 0002:00000118       __imp_EncodePointer        0000000140062118     kernel32:KERNEL32.dll
 0002:00000120       __imp_DecodePointer        0000000140062120     kernel32:KERNEL32.dll
 0002:00000128       __imp_EnterCriticalSection 0000000140062128     kernel32:KERNEL32.dll
 0002:00000130       __imp_LeaveCriticalSection 0000000140062130     kernel32:KERNEL32.dll
 0002:00000138       __imp_InitializeCriticalSectionEx 0000000140062138     kernel32:KERNEL32.dll
 0002:00000140       __imp_DeleteCriticalSection 0000000140062140     kernel32:KERNEL32.dll
 0002:00000148       __imp_MultiByteToWideChar  0000000140062148     kernel32:KERNEL32.dll
 0002:00000150       __imp_WideCharToMultiByte  0000000140062150     kernel32:KERNEL32.dll
 0002:00000158       __imp_LCMapStringEx        0000000140062158     kernel32:KERNEL32.dll
 0002:00000160       __imp_GetProcAddress       0000000140062160     kernel32:KERNEL32.dll
 0002:00000168       __imp_RtlUnwind            0000000140062168     kernel32:KERNEL32.dll
 0002:00000170       __imp_GetStringTypeW       0000000140062170     kernel32:KERNEL32.dll
 0002:00000178       __imp_GetCPInfo            0000000140062178     kernel32:KERNEL32.dll
 0002:00000180       __imp_FindClose            0000000140062180     kernel32:KERNEL32.dll
 0002:00000188       __imp_RtlUnwindEx          0000000140062188     kernel32:KERNEL32.dll
 0002:00000190       __imp_RtlPcToFileHeader    0000000140062190     kernel32:KERNEL32.dll
 0002:00000198       __imp_RaiseException       0000000140062198     kernel32:KERNEL32.dll
 0002:000001a0       __imp_GetLastError         00000001400621a0     kernel32:KERNEL32.dll
 0002:000001a8       __imp_SetLastError         00000001400621a8     kernel32:KERNEL32.dll
 0002:000001b0       __imp_InitializeCriticalSectionAndSpinCount 00000001400621b0     kernel32:KERNEL32.dll
 0002:000001b8       __imp_TlsAlloc             00000001400621b8     kernel32:KERNEL32.dll
 0002:000001c0       __imp_TlsGetValue          00000001400621c0     kernel32:KERNEL32.dll
 0002:000001c8       __imp_TlsSetValue          00000001400621c8     kernel32:KERNEL32.dll
 0002:000001d0       __imp_TlsFree              00000001400621d0     kernel32:KERNEL32.dll
 0002:000001d8       __imp_FreeLibrary          00000001400621d8     kernel32:KERNEL32.dll
 0002:000001e0       __imp_LoadLibraryExW       00000001400621e0     kernel32:KERNEL32.dll
 0002:000001e8       __imp_GetCurrentProcess    00000001400621e8     kernel32:KERNEL32.dll
 0002:000001f0       __imp_TerminateProcess     00000001400621f0     kernel32:KERNEL32.dll
 0002:000001f8       __imp_SetConsoleCtrlHandler 00000001400621f8     kernel32:KERNEL32.dll
 0002:00000200       __imp_ExitProcess          0000000140062200     kernel32:KERNEL32.dll
 0002:00000208       __imp_GetModuleHandleExW   0000000140062208     kernel32:KERNEL32.dll
 0002:00000210       __imp_GetModuleFileNameW   0000000140062210     kernel32:KERNEL32.dll
 0002:00000218       __imp_GetStdHandle         0000000140062218     kernel32:KERNEL32.dll
 0002:00000220       __imp_WriteFile            0000000140062220     kernel32:KERNEL32.dll
 0002:00000228       __imp_GetCommandLineA      0000000140062228     kernel32:KERNEL32.dll
 0002:00000230       __imp_GetCommandLineW      0000000140062230     kernel32:KERNEL32.dll
 0002:00000238       __imp_GetConsoleOutputCP   0000000140062238     kernel32:KERNEL32.dll
 0002:00000240       __imp_GetConsoleMode       0000000140062240     kernel32:KERNEL32.dll
 0002:00000248       __imp_GetFileSizeEx        0000000140062248     kernel32:KERNEL32.dll
 0002:00000250       __imp_SetFilePointerEx     0000000140062250     kernel32:KERNEL32.dll
 0002:00000258       __imp_HeapFree             0000000140062258     kernel32:KERNEL32.dll
 0002:00000260       __imp_CloseHandle          0000000140062260     kernel32:KERNEL32.dll
 0002:00000268       __imp_HeapAlloc            0000000140062268     kernel32:KERNEL32.dll
 0002:00000270       __imp_FlsAlloc             0000000140062270     kernel32:KERNEL32.dll
 0002:00000278       __imp_FlsGetValue          0000000140062278     kernel32:KERNEL32.dll
 0002:00000280       __imp_FlsSetValue          0000000140062280     kernel32:KERNEL32.dll
 0002:00000288       __imp_FlsFree              0000000140062288     kernel32:KERNEL32.dll
 0002:00000290       __imp_CompareStringW       0000000140062290     kernel32:KERNEL32.dll
 0002:00000298       __imp_LCMapStringW         0000000140062298     kernel32:KERNEL32.dll
 0002:000002a0       __imp_GetLocaleInfoW       00000001400622a0     kernel32:KERNEL32.dll
 0002:000002a8       __imp_IsValidLocale        00000001400622a8     kernel32:KERNEL32.dll
 0002:000002b0       __imp_GetUserDefaultLCID   00000001400622b0     kernel32:KERNEL32.dll
 0002:000002b8       __imp_EnumSystemLocalesW   00000001400622b8     kernel32:KERNEL32.dll
 0002:000002c0       __imp_GetFileType          00000001400622c0     kernel32:KERNEL32.dll
 0002:000002c8       __imp_ReadFile             00000001400622c8     kernel32:KERNEL32.dll
 0002:000002d0       __imp_ReadConsoleW         00000001400622d0     kernel32:KERNEL32.dll
 0002:000002d8       __imp_FlushFileBuffers     00000001400622d8     kernel32:KERNEL32.dll
 0002:000002e0       __imp_GetTimeZoneInformation 00000001400622e0     kernel32:KERNEL32.dll
 0002:000002e8       \177KERNEL32_NULL_THUNK_DATA 00000001400622e8     kernel32:KERNEL32.dll
 0002:000002f0       __imp_getaddrinfo          00000001400622f0     Ws2_32:WS2_32.dll
 0002:000002f8       __imp_recv                 00000001400622f8     Ws2_32:WS2_32.dll
 0002:00000300       __imp_send                 0000000140062300     Ws2_32:WS2_32.dll
 0002:00000308       __imp_accept               0000000140062308     Ws2_32:WS2_32.dll
 0002:00000310       __imp_listen               0000000140062310     Ws2_32:WS2_32.dll
 0002:00000318       __imp_bind                 0000000140062318     Ws2_32:WS2_32.dll
 0002:00000320       __imp_ioctlsocket          0000000140062320     Ws2_32:WS2_32.dll
 0002:00000328       __imp_connect              0000000140062328     Ws2_32:WS2_32.dll
 0002:00000330       __imp_socket               0000000140062330     Ws2_32:WS2_32.dll
 0002:00000338       __imp_shutdown             0000000140062338     Ws2_32:WS2_32.dll
 0002:00000340       __imp_closesocket          0000000140062340     Ws2_32:WS2_32.dll
 0002:00000348       __imp_WSACleanup           0000000140062348     Ws2_32:WS2_32.dll
 0002:00000350       __imp_WSAStartup           0000000140062350     Ws2_32:WS2_32.dll
 0002:00000358       __imp_inet_ntop            0000000140062358     Ws2_32:WS2_32.dll
 0002:00000360       __imp_WSAGetLastError      0000000140062360     Ws2_32:WS2_32.dll
 0002:00000368       __imp_freeaddrinfo         0000000140062368     Ws2_32:WS2_32.dll
 0002:00000370       \177WS2_32_NULL_THUNK_DATA 0000000140062370     Ws2_32:WS2_32.dll
 0002:00000378       __guard_check_icall_fptr   0000000140062378     libcmt:guard_support.obj
 0002:00000380       __guard_xfg_check_icall_fptr 0000000140062380     libcmt:guard_support.obj
 0002:00000388       __guard_dispatch_icall_fptr 0000000140062388     libcmt:guard_support.obj
 0002:00000390       __guard_xfg_dispatch_icall_fptr 0000000140062390     libcmt:guard_support.obj
 0002:00000398       __guard_xfg_table_dispatch_icall_fptr 0000000140062398     libcmt:guard_support.obj
 0002:000003a0       __castguard_check_failure_os_handled_fptr 00000001400623a0     libcmt:guard_support.obj
 0002:000003a8       __guard_memcpy_fptr        00000001400623a8     libvcruntime:softmemtag.obj
 0002:000003b0       __xc_a                     00000001400623b0     libcmt:initializers.obj
 0002:000003f0       __xc_z                     00000001400623f0     libcmt:initializers.obj
 0002:000003f8       __xi_a                     00000001400623f8     libcmt:initializers.obj
 0002:00000418       __acrt_stdio_initializer   0000000140062418     libucrt:stdio_initializer.obj
 0002:00000420       __acrt_timeset_initializer 0000000140062420     libucrt:timeset_initializer.obj
 0002:00000428       __acrt_multibyte_initializer 0000000140062428     libucrt:multibyte_initializer.obj
 0002:00000430       __acrt_fmode_initializer   0000000140062430     libucrt:fmode_initializer.obj
 0002:00000438       __acrt_tran_fma3_initializer 0000000140062438     libucrt:fma3_initializer.obj
 0002:00000440       __xi_z                     0000000140062440     libcmt:initializers.obj
 0002:00000448       __xl_a                     0000000140062448     libcmt:tlssup.obj
 0002:00000450       __xl_z                     0000000140062450     libcmt:tlssup.obj
 0002:00000458       __xp_a                     0000000140062458     libcmt:initializers.obj
 0002:00000460       __acrt_locale_terminator   0000000140062460     libucrt:locale_initializer.obj
 0002:00000468       __dcrt_console_output_terminator 0000000140062468     libucrt:console_output_initializer.obj
 0002:00000470       __acrt_stdio_terminator    0000000140062470     libucrt:stdio_initializer.obj
 0002:00000478       __xp_z                     0000000140062478     libcmt:initializers.obj
 0002:00000480       __xt_a                     0000000140062480     libcmt:initializers.obj
 0002:00000488       __xt_z                     0000000140062488     libcmt:initializers.obj
 0002:000004a0       ??_C@_0BL@HHDCJMMJ@Casting?5negative?5x?5to?5U64?4?$AA@ 00000001400624a0     main-e350db.o
 0002:00001a90       ??_C@_0BF@OFADANKK@CrtMath?5constructor?4?$AA@ 0000000140063a90     main-e350db.o
 0002:00001aa5       ??_C@_0BE@PAGPDPPM@Garner?5constructor?4?$AA@ 0000000140063aa5     main-e350db.o
 0002:00001ab9       ??_C@_0BH@GJIIJMDL@GarnerCrt?5constructor?4?$AA@ 0000000140063ab9     main-e350db.o
 0002:00001ad0       ??_C@_0BN@BFOPBDLF@Programming?5by?5Eric?5Chauvin?4?$AA@ 0000000140063ad0     MainApp-2f7bab.o
 0002:00001aed       ??_C@_0P@GDGMMJKE@Version?5date?3?5?$AA@ 0000000140063aed     MainApp-2f7bab.o
 0002:00001afc       ??_C@_0O@JCMDEGDC@Initializing?4?$AA@ 0000000140063afc     MainApp-2f7bab.o
 0002:00001b0a       ??_C@_0BB@EENGANDP@End?5of?5the?5test?4?$AA@ 0000000140063b0a     MainApp-2f7bab.o
 0002:00001b1b       ??_C@_0BB@HHGOBDO@End?5of?5main?5app?4?$AA@ 0000000140063b1b     MainApp-2f7bab.o
 0002:00001b2c       ??_C@_0DB@KKDKHHOP@An?5unknown?5exception?5happened?5in@ 0000000140063b2c     MainApp-2f7bab.o
 0002:00001b5d       ??_C@_0BI@KNHKMNNA@Exception?5in?5main?5loop?4?$AA@ 0000000140063b5d     MainApp-2f7bab.o
 0002:00001b75       ??_C@_0BD@EKBPFHNK@Starting?5TLS?5test?4?$AA@ 0000000140063b75     MainApp-2f7bab.o
 0002:00001b88       ??_C@_03HGPLGHGJ@443?$AA@  0000000140063b88     MainApp-2f7bab.o
 0002:00001b8c       ??_C@_09PFCHIMEP@127?40?40?41?$AA@ 0000000140063b8c     MainApp-2f7bab.o
 0002:00001b96       ??_C@_0CD@HPOKDFDJ@ClientTls?5false?5on?5startHandshak@ 0000000140063b96     MainApp-2f7bab.o
 0002:00001bb9       ??_C@_0BD@GLIEJPNI@Closing?5on?5Ctrl?9C?4?$AA@ 0000000140063bb9     MainApp-2f7bab.o
 0002:00001bcc       ??_C@_0BL@GKIMJBHH@Top?5of?5processData?5loop?$CI?$CJ?4?$AA@ 0000000140063bcc     MainApp-2f7bab.o
 0002:00001be7       ??_C@_0BD@FGPINHFA@Finished?5TLS?5test?4?$AA@ 0000000140063be7     MainApp-2f7bab.o
 0002:00001bfa       ??_C@_0BL@FEBIJDOM@Hello?4?5How?5are?5you?5today?$DP?6?$AA@ 0000000140063bfa     MainApp-2f7bab.o
 0002:00001c15       ??_C@_0BE@DKBBDDAM@Closed?5test?5socket?4?$AA@ 0000000140063c15     MainApp-2f7bab.o
 0002:00001c29       ??_C@_08JFLCILOE@3?15?12024?$AA@ 0000000140063c29     MainApp-2f7bab.o
 0002:00001c32       ??_C@_0BF@JHDJINHH@TlsMain?5constructor?3?$AA@ 0000000140063c32     MainApp-2f7bab.o
 0002:00003218       ??_C@_0BO@DLMMELAD@Truncating?5from?5a?5negative?5x?4?$AA@ 0000000140065218     MathC-13a42b.o
 0002:00003236       ??_C@_0BP@NFLCOFEB@Base10Number?5copy?5constructor?4?$AA@ 0000000140065236     Base10Number-950c4f.o
 0002:00003255       ??_C@_0CB@KNAHDHGG@Base10Number?3?5Too?5big?5for?5array?4@ 0000000140065255     Base10Number-950c4f.o
 0002:00003276       ??_C@_0BP@GIADBEOF@Base10Number?3?5no?5valid?5digits?4?$AA@ 0000000140065276     Base10Number-950c4f.o
 0002:00003295       ??_C@_0BC@PODGIMA@getC?$CI?$CJ?5past?5last?4?$AA@ 0000000140065295     Base10Number-950c4f.o
 0002:000032a7       ??_C@_0BM@JHFMONIE@ByteArray?4getC?$CI?$CJ?5arraySize?4?$AA@ 00000001400652a7     Base10Number-950c4f.o
 0002:000032c3       ??_C@_0BP@KGENIDAA@Divide?4shortDivide?5index?5?$CB?$DN?50?4?$AA@ 00000001400652c3     Division-e9e53c.o
 0002:000032e2       ??_C@_0CF@MLINHOIM@shortDivide?$CI?$CJ?5?$CIdivideByU?5?$DO?$DO?524?$CJ?5@ 00000001400652e2     Division-e9e53c.o
 0002:00003307       ??_C@_0CE@PFAIAMHO@Divide?4shortDivide?5test?5answer?5b@ 0000000140065307     Division-e9e53c.o
 0002:0000332b       ??_C@_0CI@PJBCBMJ@shortDivideRem?$CI?$CJ?5?$CIdivideByU?5?$DO?$DO?52@ 000000014006532b     Division-e9e53c.o
 0002:00003353       ??_C@_0BN@OKMOGBBP@Divide?5toDivide?5is?5negative?4?$AA@ 0000000140065353     Division-e9e53c.o
 0002:00003370       ??_C@_0BN@JDNFOJJO@Divide?4divideBy?5is?5negative?4?$AA@ 0000000140065370     Division-e9e53c.o
 0002:0000338d       ??_C@_0BL@MFMPGNBA@Divide?$CI?$CJ?5dividing?5by?5zero?4?$AA@ 000000014006538d     Division-e9e53c.o
 0002:000033a8       ??_C@_0CE@FMCLDPNE@Remainder?5?$DO?5DivideBy?5LongDivide2@ 00000001400653a8     Division-e9e53c.o
 0002:000033cc       ??_C@_0CE@NEOOABEK@Remainder?5?$DO?5DivideBy?5longDivide2@ 00000001400653cc     Division-e9e53c.o
 0002:000033f0       ??_C@_0BP@EDEBPOLN@toTest?5is?5zero?5in?5findShiftBy?4?$AA@ 00000001400653f0     Division-e9e53c.o
 0002:0000340f       ??_C@_0BK@DHFIJMBF@TestIndex?5?$DM?50?5in?5Divide3?4?$AA@ 000000014006540f     Division-e9e53c.o
 0002:00003429       ??_C@_0CA@CLOIEPJG@Divide?5divideBy?5is?5zero?5at?5top?4?$AA@ 0000000140065429     Division-e9e53c.o
 0002:00003449       ??_C@_0CH@CGNAEHEO@MaxValue?5zero?5at?5top?5in?5LongDivi@ 0000000140065449     Division-e9e53c.o
 0002:00003470       ??_C@_0BM@BBFFDFIG@Divide3?$CI?$CJ?5?$CBtest2?4IsEqual?$CI?$CJ?4?$AA@ 0000000140065470     Division-e9e53c.o
 0002:0000348c       ??_C@_0CD@NBPPMJFM@After?5decrement?3?5MaxValue?5is?5zer@ 000000014006548c     Division-e9e53c.o
 0002:000034af       ??_C@_0CE@GBELBGGE@Remainder?5?$DO?5DivideBy?5LongDivide3@ 00000001400654af     Division-e9e53c.o
 0002:000034d3       ??_C@_0BK@ICCLDGNP@Problem?5in?5LongDivide3?$CI?$CJ?4?$AA@ 00000001400654d3     Division-e9e53c.o
 0002:000034ed       ??_C@_0CE@OJIOCIPK@Remainder?5?$DO?5DivideBy?5longDivide3@ 00000001400654ed     Division-e9e53c.o
 0002:00004ae8       ??_C@_0CA@OPEDDPJA@Integer?4getAsLong48?$CI?$CJ?5negative?4?$AA@ 0000000140066ae8     Division-e9e53c.o
 0002:00004b08       ??_C@_0BP@PEPFMJKO@Integer?4getAsLong48?$CI?$CJ?5too?5big?4?$AA@ 0000000140066b08     Division-e9e53c.o
 0002:00004b27       ??_C@_0BM@CAODLEPO@Exponents?5copy?5constructor?4?$AA@ 0000000140066b27     Exponents-7f5d2d.o
 0002:00004b43       ??_C@_0BP@OMMBKPAH@Base?5?$DN?5modulus?5in?5setupBase?$CI?$CJ?4?$AA@ 0000000140066b43     Exponents-7f5d2d.o
 0002:00004b62       ??_C@_0BB@MKMGBDFI@oneBase?5is?5zero?4?$AA@ 0000000140066b62     Exponents-7f5d2d.o
 0002:00004b73       ??_C@_0BA@EIGDCADF@result?5is?5zero?4?$AA@ 0000000140066b73     Exponents-7f5d2d.o
 0002:00006158       ??_C@_0BJ@PGJOOPKC@Int56?5Multiply?5overflow?4?$AA@ 0000000140068158     Int56-9f6d7a.o
 0002:00006171       ??_C@_0BF@GIKGKPHB@Int56?5divide?5is?5bad?4?$AA@ 0000000140068171     Int56-9f6d7a.o
 0002:00006186       ??_C@_0BO@GHDIDDKA@Int56?4getAsLong?$CI?$CJ?5too?5big?5N2?4?$AA@ 0000000140068186     Int56-9f6d7a.o
 0002:000061a4       ??_C@_0CC@OHELJHCA@Int56?4getAsLong?$CI?$CJ?5too?5big?5Base56@ 00000001400681a4     Int56-9f6d7a.o
 0002:000061c6       ??_C@_0CC@MEHBJGLE@Int56?5setFromLong?5toSet?5negative@ 00000001400681c6     Int56-9f6d7a.o
 0002:000061e8       ??_C@_0CF@GMIKAKFI@Int56?5setFromLong?5toSet?5?$DO?$DO?556?$CJ?5?$CB@ 00000001400681e8     Int56-9f6d7a.o
 0002:0000620d       ??_C@_0BA@CACLADJB@Int56?5overflow?4?$AA@ 000000014006820d     Int56-9f6d7a.o
 0002:0000621d       ??_C@_0CD@DGOOENCI@Int32Array?4getVal?5arraySize?5rang@ 000000014006821d     Int56-9f6d7a.o
 0002:00006240       ??_C@_0BK@NOMALMCA@Integer?4setIndex?$CI?$CJ?5range?4?$AA@ 0000000140068240     Integer-cd7539.o
 0002:0000625a       ??_C@_0BK@ECMIMKAB@Integer?4copyUpTo?$CI?$CJ?5range?4?$AA@ 000000014006825a     Integer-cd7539.o
 0002:00006274       ??_C@_0BG@KGOKLHAF@Integer?4getD?$CI?$CJ?5range?4?$AA@ 0000000140068274     Integer-cd7539.o
 0002:0000628a       ??_C@_0BG@NJPEAEHC@Integer?4setD?$CI?$CJ?5range?4?$AA@ 000000014006828a     Integer-cd7539.o
 0002:000062a0       ??_C@_0BM@EFGPAACM@Integer?4setD?$CI?$CJ?5toSet?5range?4?$AA@ 00000001400682a0     Integer-cd7539.o
 0002:000062bc       ??_C@_0BI@NIBJNDCF@Integer?4setD48?$CI?$CJ?5range?4?$AA@ 00000001400682bc     Integer-cd7539.o
 0002:000062d4       ??_C@_0BO@EKOGGIPI@Integer?4setD48?$CI?$CJ?5toSet?5range?4?$AA@ 00000001400682d4     Integer-cd7539.o
 0002:000062f2       ??_C@_0BN@EIGGHNGA@Integer?4setFromInt24?$CI?$CJ?5size?4?$AA@ 00000001400682f2     Integer-cd7539.o
 0002:0000630f       ??_C@_0CE@MEDFHEK@Integer?4setFromLong48?$CI?$CJ?5toSet?5si@ 000000014006830f     Integer-cd7539.o
 0002:00006333       ??_C@_0BK@BMNGLDAO@Integer?4carry?$CI?$CJ?5overflow?4?$AA@ 0000000140068333     Integer-cd7539.o
 0002:0000634d       ??_C@_0CB@OBLOGCLM@Integer?4addLong48?$CI?$CJ?5toAdd?5range?4@ 000000014006834d     Integer-cd7539.o
 0002:0000636e       ??_C@_0BJ@LGHPAGEI@Integer?4add?5is?5negative?4?$AA@ 000000014006836e     Integer-cd7539.o
 0002:00006387       ??_C@_0BP@LGKCIGBJ@Integer?4add?5toAdd?5is?5negative?4?$AA@ 0000000140068387     Integer-cd7539.o
 0002:000063a6       ??_C@_0CA@LBGBLAPL@Integer?4shiftLeft?5shiftBy?5?$DO?524?4?$AA@ 00000001400683a6     Integer-cd7539.o
 0002:000063c6       ??_C@_0BO@KFIBPHOB@Integer?4shiftLeft?5overflowed?4?$AA@ 00000001400683c6     Integer-cd7539.o
 0002:000063e4       ??_C@_0CC@HCKOKMJK@Integer?4shiftDigitsLeft?5negative@ 00000001400683e4     Integer-cd7539.o
 0002:00006406       ??_C@_0CB@MLBBGMCL@Integer?4shiftDigitsLeft?5too?5big?4@ 0000000140068406     Integer-cd7539.o
 0002:00006427       ??_C@_0CB@FIMLPEK@Integer?4shiftRight?5shiftBy?5?$DO?524?4@ 0000000140068427     Integer-cd7539.o
 0002:00006448       ??_C@_0BN@KNBOBFF@Integer?4shiftRight?5negative?4?$AA@ 0000000140068448     Integer-cd7539.o
 0002:00006465       ??_C@_0CI@LIKDEGMB@Integer?4setDigitAndClear?$CI?$CJ?5where@ 0000000140068465     Integer-cd7539.o
 0002:0000648d       ??_C@_0CC@BLLBCHJC@setDigitAndClear?$CI?$CJ?5with?5bad?5zero@ 000000014006848d     Integer-cd7539.o
 0002:000064af       ??_C@_0CC@GPMEFLHK@setDigitAndClear?$CI?$CJ?5toSet?5too?5big@ 00000001400684af     Integer-cd7539.o
 0002:000064d1       ??_C@_0CB@CCPNHNBH@MakeRandomOdd?5index?5is?5too?5high?4@ 00000001400684d1     Integer-cd7539.o
 0002:000064f2       ??_C@_0CA@IBCMGFIL@dArray?$FLCount?$FN?5?$DM?50?5MakeRandom?$CI?$CJ?4?$AA@ 00000001400684f2     Integer-cd7539.o
 0002:00006512       ??_C@_0CJ@IIFLHDP@?$CIdArray?$FLCount?$FN?5?$DO?$DO?524?$CJ?5?$CB?$DN?50?5MakeR@ 0000000140068512     Integer-cd7539.o
 0002:0000653b       ??_C@_0CE@CIMIHEG@Integer?4setFromBigEndian?$CI?$CJ?5too?5b@ 000000014006853b     Integer-cd7539.o
 0002:0000655f       ??_C@_0CG@BJMILDGN@Integer?4setFromBigEndian?$CI?$CJ?5too?5b@ 000000014006855f     Integer-cd7539.o
 0002:00006585       ??_C@_0BL@FBNHOKGN@Integer?4borrow?$CI?$CJ?5negative?4?$AA@ 0000000140068585     Integer-cd7539.o
 0002:000065a0       ??_C@_0BN@MAKHAIJL@Integer?4subtract?$CI?$CJ?5negative?4?$AA@ 00000001400685a0     Integer-cd7539.o
 0002:000065bd       ??_C@_0CD@NLAJHBEL@Integer?4subtract?$CI?$CJ?5toSub?5negativ@ 00000001400685bd     Integer-cd7539.o
 0002:000065e0       ??_C@_0CI@DFLFAMIJ@Integer?4subtract?$CI?$CJ?5toSub?4index?5?$DO@ 00000001400685e0     Integer-cd7539.o
 0002:00006608       ??_C@_0CA@CEPNHFKH@Integer?4multiply24?5toMul?5range?4?$AA@ 0000000140068608     Integer-cd7539.o
 0002:00006628       ??_C@_0BD@GHJONAJG@getU8?$CI?$CJ?5past?5last?4?$AA@ 0000000140068628     Integer-cd7539.o
 0002:0000663b       ??_C@_0BN@DBBDLGIP@ByteArray?4getU8?$CI?$CJ?5arraySize?4?$AA@ 000000014006863b     Integer-cd7539.o
 0002:00006658       ??_C@_0BM@BCCCMGJD@Truncating?5too?5big?5of?5an?5x?4?$AA@ 0000000140068658     Integer-cd7539.o
 0002:00006674       ??_C@_0CH@MOFABPMH@IntMath?4find64SqrRoot?$CI?$CJ?5toMatch?5@ 0000000140068674     IntegerMath-44b507.o
 0002:0000669b       ??_C@_0CG@GPMOKKFI@IntegerMath?4find64SqrRoot?$CI?$CJ?5too?5@ 000000014006869b     IntegerMath-44b507.o
 0002:000066c1       ??_C@_0CG@NIGGLOJF@IntegerMath?4findL64SqrRoot?$CI?$CJ?5too@ 00000001400686c1     IntegerMath-44b507.o
 0002:000066e7       ??_C@_0CK@PPKKGALH@IntegerMath?4multiplyLong48?$CI?$CJ?5toM@ 00000001400686e7     IntegerMath-44b507.o
 0002:00006711       ??_C@_0BF@NAICOBNC@Multiply?$CI?$CJ?5overflow?4?$AA@ 0000000140068711     IntegerMath-44b507.o
 0002:00006726       ??_C@_01JOAMLHOP@?9?$AA@   0000000140068726     IntegerMath-44b507.o
 0002:00006728       ??_C@_0BI@OAANMGHI@MultiplyTop?$CI?$CJ?5overflow?4?$AA@ 0000000140068728     IntegerMath-44b507.o
 0002:00006740       ??_C@_0BL@HEDGKOOA@MultiplyTopOne?$CI?$CJ?5overflow?4?$AA@ 0000000140068740     IntegerMath-44b507.o
 0002:0000675b       ??_C@_0CK@CPEMBMJC@This?5needs?5work?4?5Need?5a?5new?5squa@ 000000014006875b     IntegerMath-44b507.o
 0002:00006785       ??_C@_0CD@KKOOLGOF@IntegerMath?4getMod24?5divisor?5?$DM?$DN?5@ 0000000140068785     IntegerMath-44b507.o
 0002:000067a8       ??_C@_0CG@EGKFPEH@IntegerMath?4getMod24?5divisor?5too@ 00000001400687a8     IntegerMath-44b507.o
 0002:00007da0       ??_C@_0BK@LNEJKMBB@Setting?5zero?5to?5negative?4?$AA@ 0000000140069da0     IntegerMath-44b507.o
 0002:00007dba       ??_C@_0BM@IAELMCDE@getD?$CI?$CJ?5index?5out?5of?5bounds?4?$AA@ 0000000140069dba     IntegerMath-44b507.o
 0002:00007dd6       ??_C@_0CA@DEILIGGJ@Truncating?5too?5big?5of?5a?5char?5x?4?$AA@ 0000000140069dd6     IntegerMath-44b507.o
 0002:00007df6       ??_C@_0CA@OGOEIGPM@This?5never?5happens?5yet?4?5howBig?4?$AA@ 0000000140069df6     Mod-60f3f2.o
 0002:00007e16       ??_C@_0CF@OHOADDNG@mod?4verifyInBaseRange?$CI?$CJ?5is?5negat@ 0000000140069e16     Mod-60f3f2.o
 0002:00007e3b       ??_C@_0CL@NNNOLIAC@mod?4verifyInBaseRange?$CI?$CJ?5toCheck?5@ 0000000140069e3b     Mod-60f3f2.o
 0002:00007e66       ??_C@_0CG@JACEKEED@mod?4verifyMoreThanZero?$CI?$CJ?5is?5nega@ 0000000140069e66     Mod-60f3f2.o
 0002:00007e8c       ??_C@_0CC@PFBDMIGO@mod?4verifyMoreThanZero?$CI?$CJ?5is?5zero@ 0000000140069e8c     Mod-60f3f2.o
 0002:00007eae       ??_C@_0BB@FIKPJALB@Mod?4add?$CI?$CJ?5result?$AA@ 0000000140069eae     Mod-60f3f2.o
 0002:00007ebf       ??_C@_0BA@IDECJNMB@Mod?4add?$CI?$CJ?5toAdd?$AA@ 0000000140069ebf     Mod-60f3f2.o
 0002:00007ecf       ??_C@_0BC@IEJAAAKH@Mod?4addL?$CI?$CJ?5result?$AA@ 0000000140069ecf     Mod-60f3f2.o
 0002:00007ee1       ??_C@_0BE@MMNJDDOA@Mod?4negate?$CI?$CJ?5result?$AA@ 0000000140069ee1     Mod-60f3f2.o
 0002:00007ef5       ??_C@_0BG@MGDDABML@Mod?4Subtract?$CI?$CJ?5result?$AA@ 0000000140069ef5     Mod-60f3f2.o
 0002:00007f0b       ??_C@_0BF@MKOILFBD@Mod?4Subtract?$CI?$CJ?5toSub?$AA@ 0000000140069f0b     Mod-60f3f2.o
 0002:00007f20       ??_C@_0BO@CKMJPJPI@Mod?4Subtract?$CI?$CJ?5result?5at?5end?4?$AA@ 0000000140069f20     Mod-60f3f2.o
 0002:00007f3e       ??_C@_0BG@CICEBDFJ@Mod?4Multiply?$CI?$CJ?5result?$AA@ 0000000140069f3e     Mod-60f3f2.o
 0002:00007f54       ??_C@_0BF@PNNOAGDD@Mod?4Multiply?$CI?$CJ?5toMul?$AA@ 0000000140069f54     Mod-60f3f2.o
 0002:00007f69       ??_C@_0BH@CKDBOBGO@Mod?4MultiplyL?$CI?$CJ?5result?$AA@ 0000000140069f69     Mod-60f3f2.o
 0002:00007f80       ??_C@_0BF@MCKGGCFF@Mod?4divide?$CI?$CJ?5divisor?$AA@ 0000000140069f80     Mod-60f3f2.o
 0002:00007f95       ??_C@_0BH@NAFCKIBH@Mod?4divide?$CI?$CJ?5numerator?$AA@ 0000000140069f95     Mod-60f3f2.o
 0002:00007fac       ??_C@_0BL@KBLPMMOL@Mod?4divide?$CI?$CJ?5result?5at?5end?$AA@ 0000000140069fac     Mod-60f3f2.o
 0002:00009598       ??_C@_0BO@ICCLNJAM@Copy?5constructor?5for?5NumbSys?4?$AA@ 000000014006b598     NumbSys-66456f.o
 0002:0000ab88       ??_C@_0CB@MKCBIJAC@CharBuf?5copy?5constructor?5called?4@ 000000014006cb88     CharBuf-d39804.o
 0002:0000aba9       ??_C@_0BF@HAHLNHCG@CharBuf?5test?5basics?4?$AA@ 000000014006cba9     CharBuf-d39804.o
 0002:0000abbe       ??_C@_0BM@LCFHGGJK@ByteArray?4setC?$CI?$CJ?5arraySize?4?$AA@ 000000014006cbbe     CharBuf-d39804.o
 0002:0000abda       ??_C@_0BK@GJBJDNNO@ByteArray?4setSize?5howBig?4?$AA@ 000000014006cbda     CharBuf-d39804.o
 0002:0000abf4       ??_C@_0CC@KPLFIJOO@ByteArray?4increaseSize?$CI?$CJ?5howMuch@ 000000014006cbf4     CharBuf-d39804.o
 0002:0000ac16       ??_C@_0CA@IHFBIABJ@ByteArray?4increaseSize?5too?5big?4?$AA@ 000000014006cc16     CharBuf-d39804.o
 0002:0000ac36       ??_C@_0BN@MLDJIAGH@ByteArray?4setU8?$CI?$CJ?5arraySize?4?$AA@ 000000014006cc36     CharBuf-d39804.o
 0002:0000ac53       ??_C@_0CF@MHFOGKCP@ByteArray?4copy?$CI?$CJ?5setToSize?5?$DM?5how@ 000000014006cc53     CharBuf-d39804.o
 0002:0000ac78       ??_C@_0CE@EEJNCLHC@ByteArray?4copy?$CI?$CJ?5fromSize?5?$DM?5howM@ 000000014006cc78     CharBuf-d39804.o
 0002:0000ac9c       ??_C@_0BO@LDMMEDJL@OpenCharArray?4setSize?5howBig?4?$AA@ 000000014006cc9c     CharBuf-d39804.o
 0002:0000acba       ??_C@_0CA@IIOEFLDE@OpenCharArray?4setC?$CI?$CJ?5arraySize?4?$AA@ 000000014006ccba     CharBuf-d39804.o
 0002:0000acda       ??_C@_0CA@KNOPNACK@OpenCharArray?4getC?$CI?$CJ?5arraySize?4?$AA@ 000000014006ccda     CharBuf-d39804.o
 0002:0000ad73       ??_C@_0BP@OMCMBLKM@FileIO?5writeCharBuf?5exception?4?$AA@ 000000014006cd73     FileIO-8f83e6.o
 0002:0000ad92       ??_C@_0BP@EGBCKCLJ@FileIO?4readAll?$CI?$CJ?5returned?5?$DM?50?4?$AA@ 000000014006cd92     FileIO-8f83e6.o
 0002:0000adb1       ??_C@_0BO@NKKLGOKN@FileIO?5returned?5?$DO?51000000000?4?$AA@ 000000014006cdb1     FileIO-8f83e6.o
 0002:0000adcf       ??_C@_0BK@KEJKBNBL@FileIO?5readAll?5exception?4?$AA@ 000000014006cdcf     FileIO-8f83e6.o
 0002:0000ade9       ??_C@_0BJ@HBEAJJL@FileIO?5exists?5exception?4?$AA@ 000000014006cde9     FileIO-8f83e6.o
 0002:0000ae10       ??_7?$basic_ofstream@DU?$char_traits@D@std@@@std@@6B@ 000000014006ce10     FileIO-8f83e6.o
 0002:0000ae18       ??_8?$basic_ofstream@DU?$char_traits@D@std@@@std@@7B@ 000000014006ce18     FileIO-8f83e6.o
 0002:0000ae20       ??_R4?$basic_ofstream@DU?$char_traits@D@std@@@std@@6B@ 000000014006ce20     FileIO-8f83e6.o
 0002:0000ae38       ??_R3?$basic_ofstream@DU?$char_traits@D@std@@@std@@8 000000014006ce38     FileIO-8f83e6.o
 0002:0000ae50       ??_R2?$basic_ofstream@DU?$char_traits@D@std@@@std@@8 000000014006ce50     FileIO-8f83e6.o
 0002:0000ae70       ??_R1A@?0A@EA@?$basic_ofstream@DU?$char_traits@D@std@@@std@@8 000000014006ce70     FileIO-8f83e6.o
 0002:0000ae90       ??_R1A@?0A@EA@?$basic_ostream@DU?$char_traits@D@std@@@std@@8 000000014006ce90     FileIO-8f83e6.o
 0002:0000aeb0       ??_R3?$basic_ostream@DU?$char_traits@D@std@@@std@@8 000000014006ceb0     FileIO-8f83e6.o
 0002:0000aec0       ??_R2?$basic_ostream@DU?$char_traits@D@std@@@std@@8 000000014006cec0     FileIO-8f83e6.o
 0002:0000aee0       ??_R1A@A@3FA@?$basic_ios@DU?$char_traits@D@std@@@std@@8 000000014006cee0     FileIO-8f83e6.o
 0002:0000af00       ??_R3?$basic_ios@DU?$char_traits@D@std@@@std@@8 000000014006cf00     FileIO-8f83e6.o
 0002:0000af10       ??_R2?$basic_ios@DU?$char_traits@D@std@@@std@@8 000000014006cf10     FileIO-8f83e6.o
 0002:0000af20       ??_R1A@?0A@EA@?$basic_ios@DU?$char_traits@D@std@@@std@@8 000000014006cf20     FileIO-8f83e6.o
 0002:0000af40       ??_R1A@?0A@EA@ios_base@std@@8 000000014006cf40     FileIO-8f83e6.o
 0002:0000af60       ??_R3ios_base@std@@8       000000014006cf60     FileIO-8f83e6.o
 0002:0000af70       ??_R2ios_base@std@@8       000000014006cf70     FileIO-8f83e6.o
 0002:0000af80       ??_R17?0A@EA@?$_Iosb@H@std@@8 000000014006cf80     FileIO-8f83e6.o
 0002:0000afa0       ??_R3?$_Iosb@H@std@@8      000000014006cfa0     FileIO-8f83e6.o
 0002:0000afb0       ??_R2?$_Iosb@H@std@@8      000000014006cfb0     FileIO-8f83e6.o
 0002:0000afc0       ??_R1A@?0A@EA@?$_Iosb@H@std@@8 000000014006cfc0     FileIO-8f83e6.o
 0002:0000afe0       ??_R1A@A@3EA@ios_base@std@@8 000000014006cfe0     FileIO-8f83e6.o
 0002:0000b000       ??_R17A@3EA@?$_Iosb@H@std@@8 000000014006d000     FileIO-8f83e6.o
 0002:0000b028       ??_7?$basic_filebuf@DU?$char_traits@D@std@@@std@@6B@ 000000014006d028     FileIO-8f83e6.o
 0002:0000b0a0       ??_R4?$basic_filebuf@DU?$char_traits@D@std@@@std@@6B@ 000000014006d0a0     FileIO-8f83e6.o
 0002:0000b0b8       ??_R3?$basic_filebuf@DU?$char_traits@D@std@@@std@@8 000000014006d0b8     FileIO-8f83e6.o
 0002:0000b0c8       ??_R2?$basic_filebuf@DU?$char_traits@D@std@@@std@@8 000000014006d0c8     FileIO-8f83e6.o
 0002:0000b0e0       ??_R1A@?0A@EA@?$basic_filebuf@DU?$char_traits@D@std@@@std@@8 000000014006d0e0     FileIO-8f83e6.o
 0002:0000b100       ??_R1A@?0A@EA@?$basic_streambuf@DU?$char_traits@D@std@@@std@@8 000000014006d100     FileIO-8f83e6.o
 0002:0000b120       ??_R3?$basic_streambuf@DU?$char_traits@D@std@@@std@@8 000000014006d120     FileIO-8f83e6.o
 0002:0000b130       ??_R2?$basic_streambuf@DU?$char_traits@D@std@@@std@@8 000000014006d130     FileIO-8f83e6.o
 0002:0000b148       ??_7?$basic_streambuf@DU?$char_traits@D@std@@@std@@6B@ 000000014006d148     FileIO-8f83e6.o
 0002:0000b1c0       ??_R4?$basic_streambuf@DU?$char_traits@D@std@@@std@@6B@ 000000014006d1c0     FileIO-8f83e6.o
 0002:0000b1d8       ??_C@_0BA@JFNIOLAK@string?5too?5long?$AA@ 000000014006d1d8     FileIO-8f83e6.o
 0002:0000b1e8       ??_C@_0BF@KINCDENJ@bad?5array?5new?5length?$AA@ 000000014006d1e8     FileIO-8f83e6.o
 0002:0000b208       ??_7bad_array_new_length@std@@6B@ 000000014006d208     FileIO-8f83e6.o
 0002:0000b220       ??_R4bad_array_new_length@std@@6B@ 000000014006d220     FileIO-8f83e6.o
 0002:0000b238       ??_R3bad_array_new_length@std@@8 000000014006d238     FileIO-8f83e6.o
 0002:0000b248       ??_R2bad_array_new_length@std@@8 000000014006d248     FileIO-8f83e6.o
 0002:0000b260       ??_R1A@?0A@EA@bad_array_new_length@std@@8 000000014006d260     FileIO-8f83e6.o
 0002:0000b280       ??_R1A@?0A@EA@bad_alloc@std@@8 000000014006d280     FileIO-8f83e6.o
 0002:0000b2a0       ??_R3bad_alloc@std@@8      000000014006d2a0     FileIO-8f83e6.o
 0002:0000b2b0       ??_R2bad_alloc@std@@8      000000014006d2b0     FileIO-8f83e6.o
 0002:0000b2c0       ??_R1A@?0A@EA@exception@std@@8 000000014006d2c0     FileIO-8f83e6.o
 0002:0000b2e0       ??_R3exception@std@@8      000000014006d2e0     FileIO-8f83e6.o
 0002:0000b2f0       ??_R2exception@std@@8      000000014006d2f0     FileIO-8f83e6.o
 0002:0000b308       ??_7bad_alloc@std@@6B@     000000014006d308     FileIO-8f83e6.o
 0002:0000b320       ??_R4bad_alloc@std@@6B@    000000014006d320     FileIO-8f83e6.o
 0002:0000b348       ??_7exception@std@@6B@     000000014006d348     FileIO-8f83e6.o
 0002:0000b360       ??_R4exception@std@@6B@    000000014006d360     FileIO-8f83e6.o
 0002:0000b378       ??_C@_0BC@EOODALEL@Unknown?5exception?$AA@ 000000014006d378     FileIO-8f83e6.o
 0002:0000b38a       ??_C@_00CNPNBAHC@?$AA@     000000014006d38a     FileIO-8f83e6.o
 0002:0000b38b       ??_C@_0BA@ELKIONDK@bad?5locale?5name?$AA@ 000000014006d38b     FileIO-8f83e6.o
 0002:0000b3a8       ??_7?$codecvt@DDU_Mbstatet@@@std@@6B@ 000000014006d3a8     FileIO-8f83e6.o
 0002:0000b400       ??_R4?$codecvt@DDU_Mbstatet@@@std@@6B@ 000000014006d400     FileIO-8f83e6.o
 0002:0000b418       ??_R3?$codecvt@DDU_Mbstatet@@@std@@8 000000014006d418     FileIO-8f83e6.o
 0002:0000b430       ??_R2?$codecvt@DDU_Mbstatet@@@std@@8 000000014006d430     FileIO-8f83e6.o
 0002:0000b450       ??_R1A@?0A@EA@?$codecvt@DDU_Mbstatet@@@std@@8 000000014006d450     FileIO-8f83e6.o
 0002:0000b470       ??_R1A@?0A@EA@codecvt_base@std@@8 000000014006d470     FileIO-8f83e6.o
 0002:0000b490       ??_R3codecvt_base@std@@8   000000014006d490     FileIO-8f83e6.o
 0002:0000b4a0       ??_R2codecvt_base@std@@8   000000014006d4a0     FileIO-8f83e6.o
 0002:0000b4c0       ??_R1A@?0A@EA@facet@locale@std@@8 000000014006d4c0     FileIO-8f83e6.o
 0002:0000b4e0       ??_R3facet@locale@std@@8   000000014006d4e0     FileIO-8f83e6.o
 0002:0000b4f0       ??_R2facet@locale@std@@8   000000014006d4f0     FileIO-8f83e6.o
 0002:0000b500       ??_R1A@?0A@EA@_Facet_base@std@@8 000000014006d500     FileIO-8f83e6.o
 0002:0000b520       ??_R3_Facet_base@std@@8    000000014006d520     FileIO-8f83e6.o
 0002:0000b530       ??_R2_Facet_base@std@@8    000000014006d530     FileIO-8f83e6.o
 0002:0000b540       ??_R17?0A@EA@_Crt_new_delete@std@@8 000000014006d540     FileIO-8f83e6.o
 0002:0000b560       ??_R3_Crt_new_delete@std@@8 000000014006d560     FileIO-8f83e6.o
 0002:0000b570       ??_R2_Crt_new_delete@std@@8 000000014006d570     FileIO-8f83e6.o
 0002:0000b580       ??_R1A@?0A@EA@_Crt_new_delete@std@@8 000000014006d580     FileIO-8f83e6.o
 0002:0000b5a8       ??_7_Facet_base@std@@6B@   000000014006d5a8     FileIO-8f83e6.o
 0002:0000b5c0       ??_R4_Facet_base@std@@6B@  000000014006d5c0     FileIO-8f83e6.o
 0002:0000b5e0       ??_7ios_base@std@@6B@      000000014006d5e0     FileIO-8f83e6.o
 0002:0000b5f0       ??_R4ios_base@std@@6B@     000000014006d5f0     FileIO-8f83e6.o
 0002:0000b610       ??_7?$basic_ifstream@DU?$char_traits@D@std@@@std@@6B@ 000000014006d610     FileIO-8f83e6.o
 0002:0000b618       ??_8?$basic_ifstream@DU?$char_traits@D@std@@@std@@7B@ 000000014006d618     FileIO-8f83e6.o
 0002:0000b620       ??_R4?$basic_ifstream@DU?$char_traits@D@std@@@std@@6B@ 000000014006d620     FileIO-8f83e6.o
 0002:0000b638       ??_R3?$basic_ifstream@DU?$char_traits@D@std@@@std@@8 000000014006d638     FileIO-8f83e6.o
 0002:0000b650       ??_R2?$basic_ifstream@DU?$char_traits@D@std@@@std@@8 000000014006d650     FileIO-8f83e6.o
 0002:0000b670       ??_R1A@?0A@EA@?$basic_ifstream@DU?$char_traits@D@std@@@std@@8 000000014006d670     FileIO-8f83e6.o
 0002:0000b690       ??_R1A@?0A@EA@?$basic_istream@DU?$char_traits@D@std@@@std@@8 000000014006d690     FileIO-8f83e6.o
 0002:0000b6b0       ??_R3?$basic_istream@DU?$char_traits@D@std@@@std@@8 000000014006d6b0     FileIO-8f83e6.o
 0002:0000b6c0       ??_R2?$basic_istream@DU?$char_traits@D@std@@@std@@8 000000014006d6c0     FileIO-8f83e6.o
 0002:0000b6e0       ??_7?$basic_ios@DU?$char_traits@D@std@@@std@@6B@ 000000014006d6e0     FileIO-8f83e6.o
 0002:0000b6f0       ??_R4?$basic_ios@DU?$char_traits@D@std@@@std@@6B@ 000000014006d6f0     FileIO-8f83e6.o
 0002:0000b710       ??_7?$basic_ostream@DU?$char_traits@D@std@@@std@@6B@ 000000014006d710     FileIO-8f83e6.o
 0002:0000b720       ??_R4?$basic_ostream@DU?$char_traits@D@std@@@std@@6B@ 000000014006d720     FileIO-8f83e6.o
 0002:0000b738       ??_C@_0BF@PHHKMMFD@ios_base?3?3badbit?5set?$AA@ 000000014006d738     FileIO-8f83e6.o
 0002:0000b74d       ??_C@_0BG@FMKFHCIL@ios_base?3?3failbit?5set?$AA@ 000000014006d74d     FileIO-8f83e6.o
 0002:0000b763       ??_C@_0BF@OOHOMBOF@ios_base?3?3eofbit?5set?$AA@ 000000014006d763     FileIO-8f83e6.o
 0002:0000b788       ??_7_Iostream_error_category2@std@@6B@ 000000014006d788     FileIO-8f83e6.o
 0002:0000b7c0       ??_R4_Iostream_error_category2@std@@6B@ 000000014006d7c0     FileIO-8f83e6.o
 0002:0000b7d8       ??_R3_Iostream_error_category2@std@@8 000000014006d7d8     FileIO-8f83e6.o
 0002:0000b7e8       ??_R2_Iostream_error_category2@std@@8 000000014006d7e8     FileIO-8f83e6.o
 0002:0000b800       ??_R1A@?0A@EA@_Iostream_error_category2@std@@8 000000014006d800     FileIO-8f83e6.o
 0002:0000b820       ??_R1A@?0A@EA@error_category@std@@8 000000014006d820     FileIO-8f83e6.o
 0002:0000b840       ??_R3error_category@std@@8 000000014006d840     FileIO-8f83e6.o
 0002:0000b850       ??_R2error_category@std@@8 000000014006d850     FileIO-8f83e6.o
 0002:0000b858       ??_C@_08LLGCOLLL@iostream?$AA@ 000000014006d858     FileIO-8f83e6.o
 0002:0000b870       ?_Iostream_error@?4??message@_Iostream_error_category2@std@@UEBA?AV?$basic_string@DU?$char_traits@D@std@@V?$allocator@D@2@@3@H@Z@4QBDB 000000014006d870     FileIO-8f83e6.o
 0002:0000b898       ??_7failure@ios_base@std@@6B@ 000000014006d898     FileIO-8f83e6.o
 0002:0000b8b0       ??_R4failure@ios_base@std@@6B@ 000000014006d8b0     FileIO-8f83e6.o
 0002:0000b8c8       ??_R3failure@ios_base@std@@8 000000014006d8c8     FileIO-8f83e6.o
 0002:0000b8e0       ??_R2failure@ios_base@std@@8 000000014006d8e0     FileIO-8f83e6.o
 0002:0000b900       ??_R1A@?0A@EA@failure@ios_base@std@@8 000000014006d900     FileIO-8f83e6.o
 0002:0000b920       ??_R1A@?0A@EA@system_error@std@@8 000000014006d920     FileIO-8f83e6.o
 0002:0000b940       ??_R3system_error@std@@8   000000014006d940     FileIO-8f83e6.o
 0002:0000b950       ??_R2system_error@std@@8   000000014006d950     FileIO-8f83e6.o
 0002:0000b970       ??_R1A@?0A@EA@_System_error@std@@8 000000014006d970     FileIO-8f83e6.o
 0002:0000b990       ??_R3_System_error@std@@8  000000014006d990     FileIO-8f83e6.o
 0002:0000b9a0       ??_R2_System_error@std@@8  000000014006d9a0     FileIO-8f83e6.o
 0002:0000b9b0       ??_R1A@?0A@EA@runtime_error@std@@8 000000014006d9b0     FileIO-8f83e6.o
 0002:0000b9d0       ??_R3runtime_error@std@@8  000000014006d9d0     FileIO-8f83e6.o
 0002:0000b9e0       ??_R2runtime_error@std@@8  000000014006d9e0     FileIO-8f83e6.o
 0002:0000b9f8       ??_7system_error@std@@6B@  000000014006d9f8     FileIO-8f83e6.o
 0002:0000ba10       ??_R4system_error@std@@6B@ 000000014006da10     FileIO-8f83e6.o
 0002:0000ba38       ??_7_System_error@std@@6B@ 000000014006da38     FileIO-8f83e6.o
 0002:0000ba50       ??_R4_System_error@std@@6B@ 000000014006da50     FileIO-8f83e6.o
 0002:0000ba68       ??_C@_02LMMGGCAJ@?3?5?$AA@ 000000014006da68     FileIO-8f83e6.o
 0002:0000ba78       ??_7runtime_error@std@@6B@ 000000014006da78     FileIO-8f83e6.o
 0002:0000ba90       ??_R4runtime_error@std@@6B@ 000000014006da90     FileIO-8f83e6.o
 0002:0000bab8       ??_7?$ctype@D@std@@6B@     000000014006dab8     FileIO-8f83e6.o
 0002:0000bb10       ??_R4?$ctype@D@std@@6B@    000000014006db10     FileIO-8f83e6.o
 0002:0000bb28       ??_R3?$ctype@D@std@@8      000000014006db28     FileIO-8f83e6.o
 0002:0000bb40       ??_R2?$ctype@D@std@@8      000000014006db40     FileIO-8f83e6.o
 0002:0000bb60       ??_R1A@?0A@EA@?$ctype@D@std@@8 000000014006db60     FileIO-8f83e6.o
 0002:0000bb80       ??_R1A@?0A@EA@ctype_base@std@@8 000000014006db80     FileIO-8f83e6.o
 0002:0000bba0       ??_R3ctype_base@std@@8     000000014006dba0     FileIO-8f83e6.o
 0002:0000bbb0       ??_R2ctype_base@std@@8     000000014006dbb0     FileIO-8f83e6.o
 0002:0000bbd0       ??_7?$basic_istream@DU?$char_traits@D@std@@@std@@6B@ 000000014006dbd0     FileIO-8f83e6.o
 0002:0000bbe0       ??_R4?$basic_istream@DU?$char_traits@D@std@@@std@@6B@ 000000014006dbe0     FileIO-8f83e6.o
 0002:0000bbf8       ??_C@_0BA@DAAHHHCI@Stack?5address?3?5?$AA@ 000000014006dbf8     StIO-3fea2d.o
 0002:0000bc08       ??_C@_02BBAHNLBA@?$CFp?$AA@ 000000014006dc08     StIO-3fea2d.o
 0002:0000bc0b       ??_C@_02DKCKIIND@?$CFs?$AA@ 000000014006dc0b     StIO-3fea2d.o
 0002:0000bc0e       ??_C@_04BFAHMMK@?$CFlld?$AA@ 000000014006dc0e     StIO-3fea2d.o
 0002:0000bc13       ??_C@_04FCIJFPNK@?$CFllu?$AA@ 000000014006dc13     StIO-3fea2d.o
 0002:0000bc18       ??_C@_02NJNOFBBI@?$CFx?$AA@ 000000014006dc18     StIO-3fea2d.o
 0002:0000bc1b       ??_C@_0CE@CFODJHIH@Uint16Array?4increaseSize?$CI?$CJ?5howMu@ 000000014006dc1b     Uint16Buf-9ce39c.o
 0002:0000bc3f       ??_C@_0CC@FDMJHOHE@Uint16Array?4increaseSize?5too?5big@ 000000014006dc3f     Uint16Buf-9ce39c.o
 0002:0000bc61       ??_C@_0CH@NGBBFBBE@Uint16Array?4copy?$CI?$CJ?5setToSize?5?$DM?5h@ 000000014006dc61     Uint16Buf-9ce39c.o
 0002:0000bc88       ??_C@_0CG@KKNEMKJ@Uint16Array?4copy?$CI?$CJ?5fromSize?5?$DM?5ho@ 000000014006dc88     Uint16Buf-9ce39c.o
 0002:0000bcae       ??_C@_0BM@OPGHOLDD@Uint16Array?4setVal?$CI?$CJ?5range?4?$AA@ 000000014006dcae     Uint16Buf-9ce39c.o
 0002:0000bcca       ??_C@_0BO@PAOGHHON@Uint16Buf?4getVal?$CI?$CJ?5past?5last?4?$AA@ 000000014006dcca     UTF8Str-a526aa.o
 0002:0000bce8       ??_C@_0BM@NNHBJJCK@Uint16Array?4getVal?$CI?$CJ?5range?4?$AA@ 000000014006dce8     UTF8Str-a526aa.o
 0002:0000bd04       ??_C@_0BD@KKPHHLLO@parseOneExten?5top?4?$AA@ 000000014006dd04     CertExten-605d09.o
 0002:0000bd17       ??_C@_0N@GFJBFKBE@lastSeqVal?3?5?$AA@ 000000014006dd17     CertExten-605d09.o
 0002:0000bd24       ??_C@_0BP@DJJBIFMO@CertExten?5not?5an?5objectID?5tag?4?$AA@ 000000014006dd24     CertExten-605d09.o
 0002:0000bd43       ??_C@_09LKGOCEDG@objIDOut?3?$AA@ 000000014006dd43     CertExten-605d09.o
 0002:0000bd4d       ??_C@_0BO@DLNFLIDM@Extension?5has?5a?5critical?5val?4?$AA@ 000000014006dd4d     CertExten-605d09.o
 0002:0000bd6b       ??_C@_0BH@JALGMMBH@Critical?5bool?5length?3?5?$AA@ 000000014006dd6b     CertExten-605d09.o
 0002:0000bd82       ??_C@_0CB@DPAOJPIK@CertExten?5data?5not?5Octet?5string?4@ 000000014006dd82     CertExten-605d09.o
 0002:0000bda3       ??_C@_0CC@EKDFGPGN@CertExten?3?5No?5matching?5extension@ 000000014006dda3     CertExten-605d09.o
 0002:0000bdc5       ??_C@_0BM@PJIFACEE@Basic?5constraints?5critical?4?$AA@ 000000014006ddc5     CertExten-605d09.o
 0002:0000bde1       ??_C@_0BK@BKFGKGMP@Basic?5key?5usage?5critical?4?$AA@ 000000014006dde1     CertExten-605d09.o
 0002:0000bdfb       ??_C@_0BM@JKKFCCFE@?6?6?6Parsing?5One?5Certificate?4?$AA@ 000000014006ddfb     Certificate-25f9b2.o
 0002:0000be17       ??_C@_0CC@CBPOCFKF@parseCertChain?5sequenceCheck?5bad@ 000000014006de17     Certificate-25f9b2.o
 0002:0000be39       ??_C@_08FFOFOLEH@nextCert?$AA@ 000000014006de39     Certificate-25f9b2.o
 0002:0000be42       ??_C@_0BD@NHGJDOA@nextCert?5has?5data?4?$AA@ 000000014006de42     Certificate-25f9b2.o
 0002:0000be55       ??_C@_0BJ@OHDFPBMK@Certificate?4cpp?5error?51?4?$AA@ 000000014006de55     Certificate-25f9b2.o
 0002:0000be6e       ??_C@_0BJ@OFHDEPJD@Certificate?4cpp?5error?52?4?$AA@ 000000014006de6e     Certificate-25f9b2.o
 0002:0000be87       ??_C@_0BJ@OELBCFKE@Certificate?4cpp?5error?53?4?$AA@ 000000014006de87     Certificate-25f9b2.o
 0002:0000bea0       ??_C@_0BE@CLBCJNKG@parseTbsCert?$CI?$CJ?5top?4?$AA@ 000000014006dea0     Certificate-25f9b2.o
 0002:0000beb4       ??_C@_0P@IOIMKPKE@TBS?5certLast?3?5?$AA@ 000000014006deb4     Certificate-25f9b2.o
 0002:0000bec3       ??_C@_0BJ@NJGLHIL@parseTbsCert?$CI?$CJ?5finished?4?$AA@ 000000014006dec3     Certificate-25f9b2.o
 0002:0000bedc       ??_C@_0CI@LMPNACIH@parseVersion?$CI?$CJ?5version?5not?5const@ 000000014006dedc     Certificate-25f9b2.o
 0002:0000bf04       ??_C@_0CB@CEOGDLJK@parseVersion?$CI?$CJ?5lastConSpec?5?$CB?$DN?53?4@ 000000014006df04     Certificate-25f9b2.o
 0002:0000bf25       ??_C@_0CE@OKAAHPEH@parseVersion?$CI?$CJ?5version?5not?5Integ@ 000000014006df25     Certificate-25f9b2.o
 0002:0000bf49       ??_C@_0CD@EOFKKHAL@parseVersion?$CI?$CJ?5version?5bad?5lengt@ 000000014006df49     Certificate-25f9b2.o
 0002:0000bf6c       ??_C@_0CD@PGJMOJCP@parseVersion?$CI?$CJ?5not?5version?53?5cer@ 000000014006df6c     Certificate-25f9b2.o
 0002:0000bf8f       ??_C@_0P@KDGOFBGI@Serial?5Number?3?$AA@ 000000014006df8f     Certificate-25f9b2.o
 0002:0000bf9e       ??_C@_0BK@CJLDCMJP@algID?5not?5a?5Sequence?5tag?4?$AA@ 000000014006df9e     Certificate-25f9b2.o
 0002:0000bfb8       ??_C@_0BL@FOHFOGDE@algID?5not?5an?5objectID?5tag?4?$AA@ 000000014006dfb8     Certificate-25f9b2.o
 0002:0000bfd3       ??_C@_09PHGANKMG@algIDOut?3?$AA@ 000000014006dfd3     Certificate-25f9b2.o
 0002:0000bfdd       ??_C@_0BB@PEFBCIBF@algObjIDparams?3?5?$AA@ 000000014006dfdd     Certificate-25f9b2.o
 0002:0000bfee       ??_C@_0N@JJEEHCOA@Zero?5length?4?$AA@ 000000014006dfee     Certificate-25f9b2.o
 0002:0000bffb       ??_C@_0BB@FHHEODJG@parseIssuer?5top?4?$AA@ 000000014006dffb     Certificate-25f9b2.o
 0002:0000c00c       ??_C@_0CA@CLGCOOKI@issuer?5not?5a?5Sequence?5tag?5at?51?4?$AA@ 000000014006e00c     Certificate-25f9b2.o
 0002:0000c02c       ??_C@_0BL@EFMBAKIO@issuer?5not?5a?5Set?5tag?5at?52?4?$AA@ 000000014006e02c     Certificate-25f9b2.o
 0002:0000c047       ??_C@_0CA@CIOGDKMG@issuer?5not?5a?5Sequence?5tag?5at?53?4?$AA@ 000000014006e047     Certificate-25f9b2.o
 0002:0000c067       ??_C@_0CB@PKDMODAD@issuerObjID?5not?5an?5objectID?5tag?4@ 000000014006e067     Certificate-25f9b2.o
 0002:0000c088       ??_C@_0N@BHPNOOMC@issuerIdOut?3?$AA@ 000000014006e088     Certificate-25f9b2.o
 0002:0000c095       ??_C@_0CB@CMELHJNE@issuer?5is?5not?5a?5printableString?4@ 000000014006e095     Certificate-25f9b2.o
 0002:0000c0b6       ??_C@_0P@KGCDMDH@issuerNameVal?3?$AA@ 000000014006e0b6     Certificate-25f9b2.o
 0002:0000c0c5       ??_C@_0BD@CGDJBNJD@parseValidity?5top?4?$AA@ 000000014006e0c5     Certificate-25f9b2.o
 0002:0000c0d8       ??_C@_0CC@EBDHLAFK@Validity?5not?5a?5Sequence?5tag?5at?51@ 000000014006e0d8     Certificate-25f9b2.o
 0002:0000c0fa       ??_C@_0CC@MEEDABLG@Validity?5start?5not?5a?5UTCTime?5tag@ 000000014006e0fa     Certificate-25f9b2.o
 0002:0000c11c       ??_C@_0O@OKLJODBO@beginTimeVal?3?$AA@ 000000014006e11c     Certificate-25f9b2.o
 0002:0000c12a       ??_C@_0CA@ECLFNCMG@Validity?5end?5not?5a?5UTCTime?5tag?4?$AA@ 000000014006e12a     Certificate-25f9b2.o
 0002:0000c14a       ??_C@_0M@OMJKGFKK@endTimeVal?3?$AA@ 000000014006e14a     Certificate-25f9b2.o
 0002:0000c156       ??_C@_0BC@EDHILLNM@parseSubject?5top?4?$AA@ 000000014006e156     Certificate-25f9b2.o
 0002:0000c168       ??_C@_0CB@DPIPALLE@Subject?5not?5a?5Sequence?5tag?5at?51?4@ 000000014006e168     Certificate-25f9b2.o
 0002:0000c189       ??_C@_0BM@CKAKCGAG@Subject?5not?5a?5Set?5tag?5at?52?4?$AA@ 000000014006e189     Certificate-25f9b2.o
 0002:0000c1a5       ??_C@_0CB@DMALNPNK@Subject?5not?5a?5Sequence?5tag?5at?53?4@ 000000014006e1a5     Certificate-25f9b2.o
 0002:0000c1c6       ??_C@_0CD@HOOBGEJF@Subject?5ObjID?5not?5an?5objectID?5ta@ 000000014006e1c6     Certificate-25f9b2.o
 0002:0000c1e9       ??_C@_0O@KBFMPCAA@subjectIdOut?3?$AA@ 000000014006e1e9     Certificate-25f9b2.o
 0002:0000c1f7       ??_C@_0BA@OHKPGDBF@subjectNameVal?3?$AA@ 000000014006e1f7     Certificate-25f9b2.o
 0002:0000c207       ??_C@_0BJ@KCPPMJFM@No?5Subject?5pub?5key?5data?4?$AA@ 000000014006e207     Certificate-25f9b2.o
 0002:0000c220       ??_C@_0CH@GEOOEGED@SubjectPubKey?5not?5a?5Sequence?5tag@ 000000014006e220     Certificate-25f9b2.o
 0002:0000c247       ??_C@_0CH@GGKIPIBK@SubjectPubKey?5not?5a?5Sequence?5tag@ 000000014006e247     Certificate-25f9b2.o
 0002:0000c26e       ??_C@_0CD@LAAEMKO@SubjectPubKey?5not?5an?5objectID?5ta@ 000000014006e26e     Certificate-25f9b2.o
 0002:0000c291       ??_C@_0CJ@CFKDPFIL@SubjectPubKey?5algID?5param?5not?5a?5@ 000000014006e291     Certificate-25f9b2.o
 0002:0000c2ba       ??_C@_0CG@ENJOPBBI@SubjectPubKey?5BitStringTag?5not?5r@ 000000014006e2ba     Certificate-25f9b2.o
 0002:0000c2e0       ??_C@_0BA@HDCPGPGB@Pub?5Key?5Number?3?$AA@ 000000014006e2e0     Certificate-25f9b2.o
 0002:0000c2f0       ??_C@_0BK@IMLAIPKM@No?5more?5data?5at?5UniqueID?4?$AA@ 000000014006e2f0     Certificate-25f9b2.o
 0002:0000c30a       ??_C@_0N@LFCIHADF@No?5UniqueID?4?$AA@ 000000014006e30a     Certificate-25f9b2.o
 0002:0000c317       ??_C@_0CB@NDNLACGB@UniqueID?5has?5to?5be?5BitStringTag?4@ 000000014006e317     Certificate-25f9b2.o
 0002:0000c338       ??_C@_0BL@IJOEGCEH@It?5has?5a?5UniqueIdentifier?4?$AA@ 000000014006e338     Certificate-25f9b2.o
 0002:0000c353       ??_C@_0BL@CFOOOEEF@Nothing?5at?5first?5UniqueID?4?$AA@ 000000014006e353     Certificate-25f9b2.o
 0002:0000c36e       ??_C@_0BE@NDAMMMFB@No?5second?5UniqueID?4?$AA@ 000000014006e36e     Certificate-25f9b2.o
 0002:0000c382       ??_C@_0BP@IKOEMFCI@Nothing?5after?5second?5UniqueID?4?$AA@ 000000014006e382     Certificate-25f9b2.o
 0002:0000c3a1       ??_C@_0BF@KPNMDINK@No?5extension?5data?51?4?$AA@ 000000014006e3a1     Certificate-25f9b2.o
 0002:0000c3b6       ??_C@_0BF@COEAOBFF@parseExtensions?5top?4?$AA@ 000000014006e3b6     Certificate-25f9b2.o
 0002:0000c3cb       ??_C@_0BJ@BDOEADPN@extenWrapCheck?5is?5bad?51?4?$AA@ 000000014006e3cb     Certificate-25f9b2.o
 0002:0000c3e4       ??_C@_0CH@HLMEHELO@extenWrapCheck?5has?5to?5be?5BitStri@ 000000014006e3e4     Certificate-25f9b2.o
 0002:0000c40b       ??_C@_0BF@KNJKIGID@No?5extension?5data?52?4?$AA@ 000000014006e40b     Certificate-25f9b2.o
 0002:0000c420       ??_C@_0BA@JBALMODK@lastextenWrap?3?5?$AA@ 000000014006e420     Certificate-25f9b2.o
 0002:0000c430       ??_C@_0P@DHILAENO@lastouterSeq?3?5?$AA@ 000000014006e430     Certificate-25f9b2.o
 0002:0000c43f       ??_C@_0BE@NNCCDEGP@No?5more?5extensions?4?$AA@ 000000014006e43f     Certificate-25f9b2.o
 0002:0000c453       ??_C@_0BN@NENKAKA@Extension?5is?5not?5a?5Sequence?4?$AA@ 000000014006e453     Certificate-25f9b2.o
 0002:0000c470       ??_C@_0BF@KOLGMAPJ@parseOneExten?5false?4?$AA@ 000000014006e470     Certificate-25f9b2.o
 0002:0000c485       ??_C@_0BC@HANAKLJN@parseAlgID?$CI?$CJ?5top?4?$AA@ 000000014006e485     Certificate-25f9b2.o
 0002:0000c497       ??_C@_0BG@CEBDAOPC@parseAlgID?5certLast?3?5?$AA@ 000000014006e497     Certificate-25f9b2.o
 0002:0000c4ad       ??_C@_0BH@MFEDFPNA@parseAlgID?$CI?$CJ?5finished?4?$AA@ 000000014006e4ad     Certificate-25f9b2.o
 0002:0000c4c4       ??_C@_09FDACFLGJ@2?45?429?414?$AA@ 000000014006e4c4     Certificate-25f9b2.o
 0002:0000c4ce       ??_C@_09EKBJGKCI@2?45?429?415?$AA@ 000000014006e4ce     Certificate-25f9b2.o
 0002:0000c4d8       ??_C@_09HICPAIKK@2?45?429?417?$AA@ 000000014006e4d8     Certificate-25f9b2.o
 0002:0000c4e2       ??_C@_09OGKMCFCE@2?45?429?419?$AA@ 000000014006e4e2     Certificate-25f9b2.o
 0002:0000c4ec       ??_C@_09CNPBHLEC@2?45?429?431?$AA@ 000000014006e4ec     Certificate-25f9b2.o
 0002:0000c4f6       ??_C@_09GNMCIIB@2?45?429?432?$AA@ 000000014006e4f6     Certificate-25f9b2.o
 0002:0000c500       ??_C@_09EJJNLOEG@2?45?429?435?$AA@ 000000014006e500     Certificate-25f9b2.o
 0002:0000c50a       ??_C@_09HLKLNMME@2?45?429?437?$AA@ 000000014006e50a     Certificate-25f9b2.o
 0002:0000c514       ??_C@_0BN@NCCMBIKP@Parsing?5Certificate?5Message?4?$AA@ 000000014006e514     CertMesg-a4ef86.o
 0002:0000c531       ??_C@_0P@KPFHCGFG@certBuf?5last?3?5?$AA@ 000000014006e531     CertMesg-a4ef86.o
 0002:0000c540       ??_C@_0CA@ICMCHCEH@parseCertMsg?3?5certBuf?5last?5?$DM?54?4?$AA@ 000000014006e540     CertMesg-a4ef86.o
 0002:0000c560       ??_C@_0BO@HBGKGLBA@Certificate?5type?5is?5not?5X509?4?$AA@ 000000014006e560     CertMesg-a4ef86.o
 0002:0000c57e       ??_C@_0BB@CCKNOBHC@certListLength?3?5?$AA@ 000000014006e57e     CertMesg-a4ef86.o
 0002:0000c58f       ??_C@_0BJ@ONPONGEA@Nothing?5left?5in?5certBuf?4?$AA@ 000000014006e58f     CertMesg-a4ef86.o
 0002:0000c5a8       ??_C@_0N@IKMCFBLE@certLength?3?5?$AA@ 000000014006e5a8     CertMesg-a4ef86.o
 0002:0000c5b5       ??_C@_0BL@IEFNGKBA@cert?4parseOneCert?5was?5bad?4?$AA@ 000000014006e5b5     CertMesg-a4ef86.o
 0002:0000c5d0       ??_C@_0M@FMCMIKKJ@derLength?3?5?$AA@ 000000014006e5d0     CertMesg-a4ef86.o
 0002:0000c5dc       ??_C@_0BE@IAGAPAFC@End?5of?5CertMessage?4?$AA@ 000000014006e5dc     CertMesg-a4ef86.o
 0002:0000c5f0       ??_C@_0CE@HPLPFBOI@?2Eric?2main?2TlsClient?2CertStatus?4@ 000000014006e5f0     CertMesg-a4ef86.o
 0002:0000dbe8       ??_C@_0CE@GDEBFJKO@Parsing?5Certificate?5Verify?5Messa@ 000000014006fbe8     CertVerMesg-c5b315.o
 0002:0000dc0c       ??_C@_0BM@FDKIEJCH@End?5of?5Cert?5Verify?5Message?4?$AA@ 000000014006fc0c     CertVerMesg-c5b315.o
 0002:0000dc28       ??_C@_0CF@GFHAHEFG@ClientHello?5copy?5constructor?5cal@ 000000014006fc28     ClientHello-c57bea.o
 0002:0000dc4d       ??_C@_0BF@LMFCFGAJ@Parsing?5ClientHello?4?$AA@ 000000014006fc4d     ClientHello-c57bea.o
 0002:0000dc62       ??_C@_0BC@NJMLOBB@sessionIDLength?3?5?$AA@ 000000014006fc62     ClientHello-c57bea.o
 0002:0000dc74       ??_C@_0BN@FAAKDOAF@sessionIDLength?5is?5too?5long?4?$AA@ 000000014006fc74     ClientHello-c57bea.o
 0002:0000dc91       ??_C@_0P@DOBMCBNH@cipherLength?3?5?$AA@ 000000014006fc91     ClientHello-c57bea.o
 0002:0000dca0       ??_C@_0BK@EEKBFPID@cipherLength?5is?5too?5long?4?$AA@ 000000014006fca0     ClientHello-c57bea.o
 0002:0000dcba       ??_C@_0CA@DBLPNPBF@AES?5128?5standard?5was?5not?5found?4?$AA@ 000000014006fcba     ClientHello-c57bea.o
 0002:0000dcda       ??_C@_0BK@MILGAMOG@compressionValue?5is?5bad?3?5?$AA@ 000000014006fcda     ClientHello-c57bea.o
 0002:0000dcf4       ??_C@_0CH@HEJJAKML@Compression?5method?5should?5have?51@ 000000014006fcf4     ClientHello-c57bea.o
 0002:0000dd1b       ??_C@_0BJ@HOCDHFCM@index?5for?5extension?5is?3?5?$AA@ 000000014006fd1b     ClientHello-c57bea.o
 0002:0000dd34       ??_C@_0BE@GNJBDLOB@?6After?5extensions?4?6?$AA@ 000000014006fd34     ClientHello-c57bea.o
 0002:0000dd48       ??_C@_0CG@LBGELFIN@Exception?5in?5ClientHello?4parseBu@ 000000014006fd48     ClientHello-c57bea.o
 0002:0000dd6e       ??_C@_0CH@GJFHHDKC@Exception?5in?5ClientHello?4parseBu@ 000000014006fd6e     ClientHello-c57bea.o
 0002:0000dd95       ??_C@_0BF@DCIBAAHH@Top?5of?5makeHelloBuf?4?$AA@ 000000014006fd95     ClientHello-c57bea.o
 0002:0000f380       ??_C@_0CD@NCCNPKP@Exception?5in?5ClientTls?4processDa@ 0000000140071380     ClientTls-8977a0.o
 0002:0000f3a3       ??_C@_0CE@GDMNECNP@Exception?5in?5ClientTls?4processDa@ 00000001400713a3     ClientTls-8977a0.o
 0002:0000f3c7       ??_C@_0BI@JBCHONMM@DerEncode?5where?5is?5?$DM?50?4?$AA@ 00000001400713c7     DerEncode-6ee611.o
 0002:0000f3df       ??_C@_08GKEFMPJB@?6Level?3?5?$AA@ 00000001400713df     DerEncode-6ee611.o
 0002:0000f3e8       ??_C@_01EEMJAFIK@?6?$AA@   00000001400713e8     DerEncode-6ee611.o
 0002:0000f3ea       ??_C@_0BL@PBNAGEKP@DerEncode?5tag?5is?5too?5long?4?$AA@ 00000001400713ea     DerEncode-6ee611.o
 0002:0000f405       ??_C@_0CC@LPJFLMEO@DER?5length?5can?5not?5be?5indefinite@ 0000000140071405     DerEncode-6ee611.o
 0002:0000f427       ??_C@_0CC@OKMHFNLO@DerEncode?5length?5too?5many?5octets@ 0000000140071427     DerEncode-6ee611.o
 0002:0000f449       ??_C@_0BN@LNFNCMDE@DerEncode?5index?5?$DO?$DN?5lastCBuf?4?$AA@ 0000000140071449     DerEncode-6ee611.o
 0002:0000f466       ??_C@_0BD@MFIMKFNP@Class?5Application?6?$AA@ 0000000140071466     DerEncode-6ee611.o
 0002:0000f479       ??_C@_0BD@PBJKJCIC@Class?5ContextSpec?6?$AA@ 0000000140071479     DerEncode-6ee611.o
 0002:0000f48c       ??_C@_0P@FGCACMOD@Class?5Private?6?$AA@ 000000014007148c     DerEncode-6ee611.o
 0002:0000f49b       ??_C@_0BJ@KNOCBMLP@Context?5Specific?5value?3?5?$AA@ 000000014007149b     DerEncode-6ee611.o
 0002:0000f4b4       ??_C@_0BB@DLLNCBAE@EndOfContentTag?6?$AA@ 00000001400714b4     DerEncode-6ee611.o
 0002:0000f4c5       ??_C@_0M@HPKPBEKK@BooleanTag?6?$AA@ 00000001400714c5     DerEncode-6ee611.o
 0002:0000f4d1       ??_C@_0M@HOCAECKO@IntegerTag?6?$AA@ 00000001400714d1     DerEncode-6ee611.o
 0002:0000f4dd       ??_C@_0O@BILANFEF@BitStringTag?6?$AA@ 00000001400714dd     DerEncode-6ee611.o
 0002:0000f4eb       ??_C@_0BA@BPMJOPHE@OctetStringTag?6?$AA@ 00000001400714eb     DerEncode-6ee611.o
 0002:0000f4fb       ??_C@_08CBEIIJMC@NullTag?6?$AA@ 00000001400714fb     DerEncode-6ee611.o
 0002:0000f504       ??_C@_0N@NKHKJIGF@ObjectIDTag?6?$AA@ 0000000140071504     DerEncode-6ee611.o
 0002:0000f511       ??_C@_0BC@CNAEDIAH@ObjectDescripTag?6?$AA@ 0000000140071511     DerEncode-6ee611.o
 0002:0000f523       ??_C@_0N@LLOHJPGC@ExternalTag?6?$AA@ 0000000140071523     DerEncode-6ee611.o
 0002:0000f530       ??_C@_0O@HGPALHFJ@RealFloatTag?6?$AA@ 0000000140071530     DerEncode-6ee611.o
 0002:0000f53e       ??_C@_0P@IEJIMGCI@EnumeratedTag?6?$AA@ 000000014007153e     DerEncode-6ee611.o
 0002:0000f54d       ??_C@_0BA@HEPOJOJP@EmbeddedPdvTag?6?$AA@ 000000014007154d     DerEncode-6ee611.o
 0002:0000f55d       ??_C@_0P@JMNBOGLH@UTF8StringTag?6?$AA@ 000000014007155d     DerEncode-6ee611.o
 0002:0000f56c       ??_C@_0BA@PFKGPIML@RelativeOIDTag?6?$AA@ 000000014007156c     DerEncode-6ee611.o
 0002:0000f57c       ??_C@_08LCMKDPDF@TimeTag?6?$AA@ 000000014007157c     DerEncode-6ee611.o
 0002:0000f585       ??_C@_0N@BDHKEIIE@SequenceTag?6?$AA@ 0000000140071585     DerEncode-6ee611.o
 0002:0000f592       ??_C@_07PBDHDEGE@SetTag?6?$AA@ 0000000140071592     DerEncode-6ee611.o
 0002:0000f59a       ??_C@_0BC@PEOFHKI@NumericStringTag?6?$AA@ 000000014007159a     DerEncode-6ee611.o
 0002:0000f5ac       ??_C@_0BE@IFPHOPBD@PrintableStringTag?6?$AA@ 00000001400715ac     DerEncode-6ee611.o
 0002:0000f5c0       ??_C@_0O@PKIADL@T61StringTag?6?$AA@ 00000001400715c0     DerEncode-6ee611.o
 0002:0000f5ce       ??_C@_0BD@JLNOEMOP@VideoTexStringTag?6?$AA@ 00000001400715ce     DerEncode-6ee611.o
 0002:0000f5e1       ??_C@_0O@BFDDINKP@IA5StringTag?6?$AA@ 00000001400715e1     DerEncode-6ee611.o
 0002:0000f5ef       ??_C@_0M@DGCENCON@UTCTimeTag?6?$AA@ 00000001400715ef     DerEncode-6ee611.o
 0002:0000f5fb       ??_C@_0BE@BILOPBGI@GeneralizedTimeTag?6?$AA@ 00000001400715fb     DerEncode-6ee611.o
 0002:0000f60f       ??_C@_0BC@LDJNCHPF@GraphicStringTag?6?$AA@ 000000014007160f     DerEncode-6ee611.o
 0002:0000f621       ??_C@_0BC@KDAFBPNO@VisibleStringTag?6?$AA@ 0000000140071621     DerEncode-6ee611.o
 0002:0000f633       ??_C@_0BC@OBEDCONG@GeneralStringTag?6?$AA@ 0000000140071633     DerEncode-6ee611.o
 0002:0000f645       ??_C@_0BE@JANPBPEO@UniversalStringTag?6?$AA@ 0000000140071645     DerEncode-6ee611.o
 0002:0000f659       ??_C@_0BE@GEEKFNPK@CharacterStringTag?6?$AA@ 0000000140071659     DerEncode-6ee611.o
 0002:0000f66d       ??_C@_0O@HAEABEKB@BMPStringTag?6?$AA@ 000000014007166d     DerEncode-6ee611.o
 0002:0000f67b       ??_C@_08DPKJLPOM@DateTag?6?$AA@ 000000014007167b     DerEncode-6ee611.o
 0002:0000f684       ??_C@_0O@BLHGPKJK@TimeOfDayTag?6?$AA@ 0000000140071684     DerEncode-6ee611.o
 0002:0000f692       ??_C@_0N@OMEBFIAG@DateTimeTag?6?$AA@ 0000000140071692     DerEncode-6ee611.o
 0002:0000f69f       ??_C@_0N@HNKIIHPF@DurationTag?6?$AA@ 000000014007169f     DerEncode-6ee611.o
 0002:0000f6ac       ??_C@_0L@GGBFNGDM@OidIriTag?6?$AA@ 00000001400716ac     DerEncode-6ee611.o
 0002:0000f6b7       ??_C@_0BD@ILMKICHF@RelativeOidIriTag?6?$AA@ 00000001400716b7     DerEncode-6ee611.o
 0002:0000f6ca       ??_C@_0BH@NFPFPABO@showTag?$CI?$CJ?5Unknown?5Tag?6?$AA@ 00000001400716ca     DerEncode-6ee611.o
 0002:0000f6e1       ??_C@_0BL@HLIPPEIH@DerObjID?5Length?5too?5short?4?$AA@ 00000001400716e1     DerObjID-cf3353.o
 0002:0000f6fc       ??_C@_0CB@GNHBGEIN@DerObjID?3?3getOneNumber?5last?5?$DO?$DN?58@ 00000001400716fc     DerObjID-cf3353.o
 0002:0000f71d       ??_C@_0BN@GNKCMCLA@CharBuf?4truncateLast?5?$DM?5zero?4?$AA@ 000000014007171d     DerObjID-cf3353.o
 0002:0000f73a       ??_C@_0BO@FEPDPJL@CharBuf?4truncateLast?5too?5big?4?$AA@ 000000014007173a     DerObjID-cf3353.o
 0002:0000f758       ??_C@_0P@LOLNPMMP@Top?5of?5expand?4?$AA@ 0000000140071758     EncryptTls-97e3d9.o
 0002:0000f767       ??_C@_05DPKLDDFJ@info?3?$AA@ 0000000140071767     EncryptTls-97e3d9.o
 0002:0000f76d       ??_C@_0CI@JKPAGBA@EncryptTls?3?3hkdfExpandLabel?5leng@ 000000014007176d     EncryptTls-97e3d9.o
 0002:0000f795       ??_C@_06EAMOGBCI@tls13?5?$AA@ 0000000140071795     EncryptTls-97e3d9.o
 0002:0000f79c       ??_C@_0BH@DGPKCIAM@derivedSecret?$CI?$CJ?5hash?3?5?$AA@ 000000014007179c     EncryptTls-97e3d9.o
 0002:0000f7b3       ??_C@_0BD@OFPIIMFP@setHandshakeKeys?$CI?$CJ?$AA@ 00000001400717b3     EncryptTls-97e3d9.o
 0002:0000f7c6       ??_C@_0O@FHNFGLOC@Early?5Secret?3?$AA@ 00000001400717c6     EncryptTls-97e3d9.o
 0002:0000f7d4       ??_C@_07MEODAMEL@derived?$AA@ 00000001400717d4     EncryptTls-97e3d9.o
 0002:0000f7dc       ??_C@_0BG@CGLCCJFJ@First?5derived?5secret?3?$AA@ 00000001400717dc     EncryptTls-97e3d9.o
 0002:0000f7f2       ??_C@_0BC@CLLDOILA@Handshake?5secret?3?$AA@ 00000001400717f2     EncryptTls-97e3d9.o
 0002:0000f804       ??_C@_0M@JJJJLOJE@clHelloMsg?3?$AA@ 0000000140071804     EncryptTls-97e3d9.o
 0002:0000f810       ??_C@_0N@DBOCBDOP@srvHelloMsg?3?$AA@ 0000000140071810     EncryptTls-97e3d9.o
 0002:0000f81d       ??_C@_0N@LPLHHPDO@c?5hs?5traffic?$AA@ 000000014007181d     EncryptTls-97e3d9.o
 0002:0000f82a       ??_C@_0O@OEHHHEKN@c?5hs?5traffic?3?$AA@ 000000014007182a     EncryptTls-97e3d9.o
 0002:0000f838       ??_C@_0N@LLANJOE@s?5hs?5traffic?$AA@ 0000000140071838     EncryptTls-97e3d9.o
 0002:0000f845       ??_C@_0O@ICMFEIMB@s?5hs?5traffic?3?$AA@ 0000000140071845     EncryptTls-97e3d9.o
 0002:0000f853       ??_C@_0BL@MCFFMGCA@Derived?5Secret?5for?5Master?3?$AA@ 0000000140071853     EncryptTls-97e3d9.o
 0002:0000f86e       ??_C@_0BH@BPNMANGA@Extract?5Secret?5Master?3?$AA@ 000000014007186e     EncryptTls-97e3d9.o
 0002:0000f885       ??_C@_03ICHNJLJF@key?$AA@  0000000140071885     EncryptTls-97e3d9.o
 0002:0000f889       ??_C@_0O@BJEGGMHP@clTrafficKey?3?$AA@ 0000000140071889     EncryptTls-97e3d9.o
 0002:0000f897       ??_C@_0P@HNOKLLGM@srvTrafficKey?3?$AA@ 0000000140071897     EncryptTls-97e3d9.o
 0002:0000f8a6       ??_C@_02DONNAIDC@iv?$AA@   00000001400718a6     EncryptTls-97e3d9.o
 0002:0000f8a9       ??_C@_0BA@IACKEGFI@srvWriteStatIV?3?$AA@ 00000001400718a9     EncryptTls-97e3d9.o
 0002:0000f8b9       ??_C@_0P@EPAKLFB@clWriteStatIV?3?$AA@ 00000001400718b9     EncryptTls-97e3d9.o
 0002:0000f8c8       ??_C@_0DD@ODNLONMN@Unknown?5exception?5in?5EncryptTls?4@ 00000001400718c8     EncryptTls-97e3d9.o
 0002:0000f8fb       ??_C@_0CI@LPFHPLAJ@Exception?5EncryptTls?4setHandshak@ 00000001400718fb     EncryptTls-97e3d9.o
 0002:0000f923       ??_C@_0BF@IGKDEEDK@?6?6makeMsgTranscript2?$AA@ 0000000140071923     EncryptTls-97e3d9.o
 0002:0000f938       ??_C@_0BM@KJNAFBLB@End?5of?5makeMsgTranscript2?6?6?$AA@ 0000000140071938     EncryptTls-97e3d9.o
 0002:0000f954       ??_C@_0P@NGMKFKAF@setAppDataKeys?$AA@ 0000000140071954     EncryptTls-97e3d9.o
 0002:0000f963       ??_C@_0N@JLMKFMGC@s?5ap?5traffic?$AA@ 0000000140071963     EncryptTls-97e3d9.o
 0002:0000f970       ??_C@_0O@IGIOBEFB@s?5ap?5traffic?3?$AA@ 0000000140071970     EncryptTls-97e3d9.o
 0002:0000f97e       ??_C@_0N@CPMNPKLI@c?5ap?5traffic?$AA@ 000000014007197e     EncryptTls-97e3d9.o
 0002:0000f98b       ??_C@_0O@OADMCIDN@c?5ap?5traffic?3?$AA@ 000000014007198b     EncryptTls-97e3d9.o
 0002:0000f999       ??_C@_0L@CFENJEDK@srvStatIV?3?$AA@ 0000000140071999     EncryptTls-97e3d9.o
 0002:0000f9a4       ??_C@_09DLACFLGL@clStatIV?3?$AA@ 00000001400719a4     EncryptTls-97e3d9.o
 0002:0000f9ae       ??_C@_0DB@LMFBHLNL@Unknown?5exception?5in?5EncryptTls?4@ 00000001400719ae     EncryptTls-97e3d9.o
 0002:0000f9df       ??_C@_0CG@HFJHBNHN@Exception?5EncryptTls?4setAppDataK@ 00000001400719df     EncryptTls-97e3d9.o
 0002:0000fa05       ??_C@_0BE@KPNPPGAK@setDiffHelmOnClient?$AA@ 0000000140071a05     EncryptTls-97e3d9.o
 0002:0000fa19       ??_C@_0BL@OHCPNHOO@EncryptTls?5sharedS?4isZero?4?$AA@ 0000000140071a19     EncryptTls-97e3d9.o
 0002:0000fa34       ??_C@_0BN@LJJLHH@EncryptTls?5sharedBytes?5?$CB?$DN?532?$AA@ 0000000140071a34     EncryptTls-97e3d9.o
 0002:0000fa51       ??_C@_0M@HIKEGCNM@Shared?5Key?3?$AA@ 0000000140071a51     EncryptTls-97e3d9.o
 0002:0000fa5d       ??_C@_0BE@OAJNCNIJ@setDiffHelmOnServer?$AA@ 0000000140071a5d     EncryptTls-97e3d9.o
 0002:0000fa71       ??_C@_0BJ@JOPFHKFM@sequenceBuf?5?$CB?$DN?512?5bytes?4?$AA@ 0000000140071a71     EncryptTls-97e3d9.o
 0002:0000fa8a       ??_C@_0BP@ODCJPDIP@CharBuf?3?3xorFrom?5last?5?$CB?$DN?5from?4?$AA@ 0000000140071a8a     EncryptTls-97e3d9.o
 0002:0000faa9       ??_C@_0BP@FBBPBHH@Received?5no?5extensions?5at?5all?4?$AA@ 0000000140071aa9     ExtenList-52deab.o
 0002:0000fac8       ??_C@_0BI@MEMFLIIN@Extension?5list?5length?3?5?$AA@ 0000000140071ac8     ExtenList-52deab.o
 0002:0000fae0       ??_C@_0BM@DDAFECOI@extListLength?5is?5not?5right?4?$AA@ 0000000140071ae0     ExtenList-52deab.o
 0002:0000fafc       ??_C@_0BK@MKAPKIKJ@lastList?5?$CB?$DN?5extListLength?$AA@ 0000000140071afc     ExtenList-52deab.o
 0002:0000fb16       ??_C@_0BA@OPILLEG@?6New?5extension?4?$AA@ 0000000140071b16     ExtenList-52deab.o
 0002:0000fb26       ??_C@_0M@KPPFDPEN@extLength?3?5?$AA@ 0000000140071b26     ExtenList-52deab.o
 0002:0000fb32       ??_C@_0BK@JPIILMBN@Break?5at?5end?5of?5ext?5list?4?$AA@ 0000000140071b32     ExtenList-52deab.o
 0002:0000fb4c       ??_C@_0BI@MLGFAOFJ@Exception?5in?5ExtenList?4?$AA@ 0000000140071b4c     ExtenList-52deab.o
 0002:0000fb64       ??_C@_0BJ@OIJDGENE@Exception?5in?5ExtenList?4?6?$AA@ 0000000140071b64     ExtenList-52deab.o
 0002:0000fb7d       ??_C@_0CD@OGHCOLKL@This?5is?5a?5message?5from?5the?5Serve@ 0000000140071b7d     ExtenList-52deab.o
 0002:0000fba0       ??_C@_0CD@JCIMHLOK@This?5is?5a?5message?5from?5the?5Clien@ 0000000140071ba0     ExtenList-52deab.o
 0002:0000fbc3       ??_C@_0BB@OCJOGJAK@setOneExt?5last?3?5?$AA@ 0000000140071bc3     ExtenList-52deab.o
 0002:0000fbd4       ??_C@_0BL@DDPOPCPJ@Extension?5RecordSizeLimit?4?$AA@ 0000000140071bd4     ExtenList-52deab.o
 0002:0000fbef       ??_C@_0CJ@MIOIMOAF@Obsolete?5extension?5ExtendedMaste@ 0000000140071bef     ExtenList-52deab.o
 0002:0000fc18       ??_C@_0CG@NDPFJHKC@Obsolete?5extension?5Renegotiation@ 0000000140071c18     ExtenList-52deab.o
 0002:0000fc3e       ??_C@_0CA@GAKDAFKI@Extension?5is?5MaxFragmentLength?4?$AA@ 0000000140071c3e     ExtenList-52deab.o
 0002:0000fc5e       ??_C@_0BM@IAIKABJL@Extension?5is?5StatusRequest?4?$AA@ 0000000140071c5e     ExtenList-52deab.o
 0002:0000fc7a       ??_C@_0BG@CMCKJKOL@Extension?5is?5UseSrtp?4?$AA@ 0000000140071c7a     ExtenList-52deab.o
 0002:0000fc90       ??_C@_0BI@IMJHPED@Extension?5is?5HeartBeat?4?$AA@ 0000000140071c90     ExtenList-52deab.o
 0002:0000fca8       ??_C@_0CE@JHEHFNFA@Extension?5is?5AppLayerProtocolNeg@ 0000000140071ca8     ExtenList-52deab.o
 0002:0000fccc       ??_C@_0CC@BEJOIFLN@Extension?5is?5SignedCertTimeStamp@ 0000000140071ccc     ExtenList-52deab.o
 0002:0000fcee       ??_C@_0BN@JJEAEGPB@Extension?5is?5ClientCertType?4?$AA@ 0000000140071cee     ExtenList-52deab.o
 0002:0000fd0b       ??_C@_0BN@LAHFMMNI@Extension?5is?5ServerCertType?4?$AA@ 0000000140071d0b     ExtenList-52deab.o
 0002:0000fd28       ??_C@_0BG@NGNGHBMO@Extension?5is?5Padding?4?$AA@ 0000000140071d28     ExtenList-52deab.o
 0002:0000fd3e       ??_C@_0BL@OKEMKBEJ@Extension?5is?5PreSharedKey?4?$AA@ 0000000140071d3e     ExtenList-52deab.o
 0002:0000fd59       ??_C@_0BI@JOOCNLI@Extension?5is?5EarlyData?4?$AA@ 0000000140071d59     ExtenList-52deab.o
 0002:0000fd71       ??_C@_0BF@LLHGBKEF@Extension?5is?5Cookie?4?$AA@ 0000000140071d71     ExtenList-52deab.o
 0002:0000fd86       ??_C@_0BO@EGLKDEEO@Extension?5is?5PskKeyExchModes?4?$AA@ 0000000140071d86     ExtenList-52deab.o
 0002:0000fda4       ??_C@_0CF@CJECOKIF@Extension?5is?5CertificateAuthorit@ 0000000140071da4     ExtenList-52deab.o
 0002:0000fdc9       ??_C@_0BJ@LJFACFB@Extension?5is?5OidFilters?4?$AA@ 0000000140071dc9     ExtenList-52deab.o
 0002:0000fde2       ??_C@_0CA@JNCCEFIP@Extension?5is?5PostHandshakeAuth?4?$AA@ 0000000140071de2     ExtenList-52deab.o
 0002:0000fe02       ??_C@_0BJ@JLIOIPGO@Extension?5type?5unknown?3?5?$AA@ 0000000140071e02     ExtenList-52deab.o
 0002:0000fe1b       ??_C@_0BD@NJGIILHA@Extension?5length?3?5?$AA@ 0000000140071e1b     ExtenList-52deab.o
 0002:0000fe2e       ??_C@_0BK@OLHGAMPC@ServerNameLength?5is?5zero?4?$AA@ 0000000140071e2e     ExtenList-52deab.o
 0002:0000fe48       ??_C@_0BD@PFKJNNFG@keyShareSize?5?$CB?$DN?532?$AA@ 0000000140071e48     ExtenList-52deab.o
 0002:00011430       ??_C@_0BP@NDKFPCFH@CharBuf?4setU8?5where?5past?5last?4?$AA@ 0000000140073430     ExtenList-52deab.o
 0002:0001144f       ??_C@_0CC@JFFOBPKI@Obsolete?5extension?5SessionTicket@ 000000014007344f     Extension-75d7f9.o
 0002:00011471       ??_C@_0BJ@CMOCOJEK@Extension?5is?5ServerName?4?$AA@ 0000000140073471     Extension-75d7f9.o
 0002:0001148a       ??_C@_0BB@PHFIPCP@nameListLength?3?5?$AA@ 000000014007348a     Extension-75d7f9.o
 0002:0001149b       ??_C@_0CI@JAHAEIMP@Extension?5ServerName?5nameType?5no@ 000000014007349b     Extension-75d7f9.o
 0002:000114c3       ??_C@_0N@DLIKNAGO@nameLength?3?5?$AA@ 00000001400734c3     Extension-75d7f9.o
 0002:000114d0       ??_C@_0BE@CFOKJFAG@The?5server?5name?5is?3?$AA@ 00000001400734d0     Extension-75d7f9.o
 0002:000114e4       ??_C@_0BJ@JKAMDJHI@ExtenList?5bad?5host?5name?4?$AA@ 00000001400734e4     Extension-75d7f9.o
 0002:000114fd       ??_C@_0BN@OPBEFJGP@ExtenList?5bad?5host?5name?5127?4?$AA@ 00000001400734fd     Extension-75d7f9.o
 0002:0001151a       ??_C@_0CA@LMIKKLDL@Extension?5is?5SupportedVersions?4?$AA@ 000000014007351a     Extension-75d7f9.o
 0002:0001153a       ??_C@_0CD@ODLFDHHB@SupportedVersions?5for?5server?5?$CB?$DN?5@ 000000014007353a     Extension-75d7f9.o
 0002:0001155d       ??_C@_0L@CFHJEKJM@Ver?5High?3?5?$AA@ 000000014007355d     Extension-75d7f9.o
 0002:00011568       ??_C@_09LGCLPMFG@Ver?5Low?3?5?$AA@ 0000000140073568     Extension-75d7f9.o
 0002:00011572       ??_C@_0BP@KFFLGABB@Server?5hello?5says?5not?5TLS?51?43?4?$AA@ 0000000140073572     Extension-75d7f9.o
 0002:00011591       ??_C@_0BP@GHJLFDMG@SupportedVersions?5has?5no?5data?4?$AA@ 0000000140073591     Extension-75d7f9.o
 0002:000115b0       ??_C@_0BO@EKNBJPJL@SupportedVersions?5listLength?3?$AA@ 00000001400735b0     Extension-75d7f9.o
 0002:000115ce       ??_C@_0CE@MCBMCIEP@SupportedVersions?5verHigh?5is?5not@ 00000001400735ce     Extension-75d7f9.o
 0002:000115f2       ??_C@_0BG@LBJHGJAE@Did?5not?5find?5TLS?51?43?4?$AA@ 00000001400735f2     Extension-75d7f9.o
 0002:00011608       ??_C@_0BA@NLAELPPF@It?5has?5TLS?51?43?4?$AA@ 0000000140073608     Extension-75d7f9.o
 0002:00011618       ??_C@_0BO@GIOLMNHN@Extension?5is?5SupportedGroups?4?$AA@ 0000000140073618     Extension-75d7f9.o
 0002:00011636       ??_C@_0BJ@BFCDNGFO@SupportedGroups?5no?5data?4?$AA@ 0000000140073636     Extension-75d7f9.o
 0002:0001164f       ??_C@_0N@GJDGBGMA@listLength?3?5?$AA@ 000000014007364f     Extension-75d7f9.o
 0002:0001165c       ??_C@_06JMMJEMME@high?3?5?$AA@ 000000014007365c     Extension-75d7f9.o
 0002:00011663       ??_C@_05GAPJKNCA@low?3?5?$AA@ 0000000140073663     Extension-75d7f9.o
 0002:00011669       ??_C@_0M@KJIFNKBP@Has?5x25519?4?$AA@ 0000000140073669     Extension-75d7f9.o
 0002:00011675       ??_C@_0BD@MHLGFLCB@Finite?5Field?5low?3?5?$AA@ 0000000140073675     Extension-75d7f9.o
 0002:00011688       ??_C@_0CC@POMADCJP@Extension?5is?5SignatureAlgorithms@ 0000000140073688     Extension-75d7f9.o
 0002:000116aa       ??_C@_0BN@DDKIGLHP@SignatureAlgorithms?5no?5data?4?$AA@ 00000001400736aa     Extension-75d7f9.o
 0002:000116c7       ??_C@_0L@JCDPKGGH@byteHigh?3?5?$AA@ 00000001400736c7     Extension-75d7f9.o
 0002:000116d2       ??_C@_09ENJLDMCI@byteLow?3?5?$AA@ 00000001400736d2     Extension-75d7f9.o
 0002:000116dc       ??_C@_0CE@GKKODDOF@SignatureAlgorithmsCert?5needs?5wo@ 00000001400736dc     Extension-75d7f9.o
 0002:00011700       ??_C@_0CB@MEOOEHKF@SignatureAlgorithmsCert?5no?5data?4@ 0000000140073700     Extension-75d7f9.o
 0002:00011721       ??_C@_0BH@CNNBCFCH@Extension?5is?5KeyShare?4?$AA@ 0000000140073721     Extension-75d7f9.o
 0002:00011738       ??_C@_0BD@EFABLOEC@Key?5Share?5no?5data?4?$AA@ 0000000140073738     Extension-75d7f9.o
 0002:0001174b       ??_C@_0BA@PABHDMCI@last?5keyshare?3?5?$AA@ 000000014007374b     Extension-75d7f9.o
 0002:0001175b       ??_C@_0BK@LBBPEFGO@It?5is?5a?5ClientHello?5list?4?$AA@ 000000014007375b     Extension-75d7f9.o
 0002:00011775       ??_C@_0BB@GILOLOGJ@Group?5is?5x25519?4?$AA@ 0000000140073775     Extension-75d7f9.o
 0002:00011786       ??_C@_0P@KGIGIMDD@Group?5is?5x448?4?$AA@ 0000000140073786     Extension-75d7f9.o
 0002:00011795       ??_C@_0BK@CKACBENK@namedGroup?5is?5not?5x25519?4?$AA@ 0000000140073795     Extension-75d7f9.o
 0002:000117af       ??_C@_0N@FNBALHOJ@namedGroup?3?5?$AA@ 00000001400737af     Extension-75d7f9.o
 0002:000117bc       ??_C@_0L@HMHAEBOO@keyExLen?3?5?$AA@ 00000001400737bc     Extension-75d7f9.o
 0002:000117c7       ??_C@_0BJ@PLPPEFPP@keyExLen?5?$CB?$DN?532?4?5Length?3?5?$AA@ 00000001400737c7     Extension-75d7f9.o
 0002:000117e0       ??_C@_0BK@KCCHFMLO@Getting?532?5bytes?5for?5key?4?$AA@ 00000001400737e0     Extension-75d7f9.o
 0002:00012dd0       ??_C@_0BK@NMEDKIOB@Parsing?5Finished?5Message?4?$AA@ 0000000140074dd0     FinishedMesg-8cddce.o
 0002:00012dea       ??_C@_0BJ@JCEIDKMB@End?5of?5Finished?5Message?4?$AA@ 0000000140074dea     FinishedMesg-8cddce.o
 0002:00012e03       ??_C@_0CF@EABLJJHN@HandshakeCl?5copy?5constructor?5cal@ 0000000140074e03     HandshakeCl-e7316f.o
 0002:00012e28       ??_C@_0BN@GMCAJPHH@accumByte?5HandshakeCl?5type?3?5?$AA@ 0000000140074e28     HandshakeCl-e7316f.o
 0002:00012e45       ??_C@_0N@DLMHIAKL@First?5byte?3?5?$AA@ 0000000140074e45     HandshakeCl-e7316f.o
 0002:00012e52       ??_C@_0O@EBBDFPBH@Second?5byte?3?5?$AA@ 0000000140074e52     HandshakeCl-e7316f.o
 0002:00012e60       ??_C@_0N@LKOMLFJF@Third?5byte?3?5?$AA@ 0000000140074e60     HandshakeCl-e7316f.o
 0002:00012e6d       ??_C@_0BL@KOEMPPDD@Handshake?5?5length?5is?5zero?4?$AA@ 0000000140074e6d     HandshakeCl-e7316f.o
 0002:00012e88       ??_C@_0BK@NFNDMOIH@Handshake?5record?5length?3?5?$AA@ 0000000140074e88     HandshakeCl-e7316f.o
 0002:00012ea2       ??_C@_0CC@IIBEBJPM@Doing?5HandShakeCl?5parseMessage?$CI?$CJ@ 0000000140074ea2     HandshakeCl-e7316f.o
 0002:00012ec4       ??_C@_0BJ@BFGBLAAJ@HandshakeCl?5parse?5last?3?5?$AA@ 0000000140074ec4     HandshakeCl-e7316f.o
 0002:00012edd       ??_C@_0CE@LNJHKPLO@The?5HandshakeCl?5record?5type?5is?5b@ 0000000140074edd     HandshakeCl-e7316f.o
 0002:00012f01       ??_C@_0BH@FLCKNIMP@?6HelloRequestRESERVED?4?$AA@ 0000000140074f01     HandshakeCl-e7316f.o
 0002:00012f18       ??_C@_0BE@INICNOC@Got?5a?5ServerHelloID?$AA@ 0000000140074f18     HandshakeCl-e7316f.o
 0002:00012f2c       ??_C@_0BI@GCMJPKDA@NewSessionTicketID?5hex?3?$AA@ 0000000140074f2c     HandshakeCl-e7316f.o
 0002:00012f44       ??_C@_0BB@CCFGNJBG@EndOfEarlyDataID?$AA@ 0000000140074f44     HandshakeCl-e7316f.o
 0002:00012f55       ??_C@_0BG@EOJFBLJI@EncryptedExtensionsID?$AA@ 0000000140074f55     HandshakeCl-e7316f.o
 0002:00012f6b       ??_C@_0CC@EFNDBBHF@EncryptedExtensionsID?5first?5byte@ 0000000140074f6b     HandshakeCl-e7316f.o
 0002:00012f8d       ??_C@_0O@NJOHJILG@CertificateID?$AA@ 0000000140074f8d     HandshakeCl-e7316f.o
 0002:00012f9b       ??_C@_0BF@OBOIOGG@CertificateRequestID?$AA@ 0000000140074f9b     HandshakeCl-e7316f.o
 0002:00012fb0       ??_C@_0BE@BNKHMKMK@CertificateVerifyID?$AA@ 0000000140074fb0     HandshakeCl-e7316f.o
 0002:00012fc4       ??_C@_0L@OLJNLAAF@FinishedID?$AA@ 0000000140074fc4     HandshakeCl-e7316f.o
 0002:00012fcf       ??_C@_0M@CNDEOCJG@KeyUpdateID?$AA@ 0000000140074fcf     HandshakeCl-e7316f.o
 0002:00012fdb       ??_C@_0O@HOBBLMIJ@MessageHashID?$AA@ 0000000140074fdb     HandshakeCl-e7316f.o
 0002:00012fe9       ??_C@_0BK@JBOKNOJG@HelloRetryRequestRESERVED?$AA@ 0000000140074fe9     HandshakeCl-e7316f.o
 0002:00013003       ??_C@_0CK@BDAMIGKL@HandshakeCl?4parseMessage?5unexpec@ 0000000140075003     HandshakeCl-e7316f.o
 0002:0001302d       ??_C@_0BL@NJBBPCMJ@?6HandshakeCl?5processInBuf?4?$AA@ 000000014007502d     HandshakeCl-e7316f.o
 0002:00013048       ??_C@_0L@KMHNGFKB@recvLast?3?5?$AA@ 0000000140075048     HandshakeCl-e7316f.o
 0002:00013053       ??_C@_0CA@HLPPAAIG@Error?5in?5HandshakeCl?5accumByte?4?$AA@ 0000000140075053     HandshakeCl-e7316f.o
 0002:00013073       ??_C@_0BP@FDJKKFOH@Collected?5a?5Handshake?5message?4?$AA@ 0000000140075073     HandshakeCl-e7316f.o
 0002:00013092       ??_C@_0CA@LGIKMPFP@allBytes?5has?5a?5partial?5message?4?$AA@ 0000000140075092     HandshakeCl-e7316f.o
 0002:000130b2       ??_C@_0BG@JCADANMG@CircleBuf?5overflowed?4?$AA@ 00000001400750b2     HandshakeCl-e7316f.o
 0002:000130c8       ??_C@_0CG@JLMELDJO@HandshakeSrv?5copy?5constructor?5ca@ 00000001400750c8     HandshakeSrv-eaa349.o
 0002:000130ee       ??_C@_0BL@CLDOPANN@accumByte?5Handshake?5type?3?5?$AA@ 00000001400750ee     HandshakeSrv-eaa349.o
 0002:00013109       ??_C@_0CD@JJEBPGMD@Doing?5HandShakeSrv?5parseMessage?$CI@ 0000000140075109     HandshakeSrv-eaa349.o
 0002:0001312c       ??_C@_0BK@FCFMLPJN@HandshakeSrv?5parse?5last?3?5?$AA@ 000000014007512c     HandshakeSrv-eaa349.o
 0002:00013146       ??_C@_0CC@MDJDBPOJ@The?5Handshake?5record?5type?5is?5bad@ 0000000140075146     HandshakeSrv-eaa349.o
 0002:00013168       ??_C@_0BI@DAMEGOIF@But?5this?5is?5the?5server?4?$AA@ 0000000140075168     HandshakeSrv-eaa349.o
 0002:00013180       ??_C@_0BD@GFNCCHJM@NewSessionTicketID?$AA@ 0000000140075180     HandshakeSrv-eaa349.o
 0002:00013193       ??_C@_0BB@GEAEPEPM@From?5the?5Client?4?$AA@ 0000000140075193     HandshakeSrv-eaa349.o
 0002:000131a4       ??_C@_0BM@OIDKAMGO@Did?5this?5server?5ask?5for?5it?$DP?$AA@ 00000001400751a4     HandshakeSrv-eaa349.o
 0002:000131c0       ??_C@_0BN@LHEIJBOI@Server?5doesn?8t?5receive?5this?4?$AA@ 00000001400751c0     HandshakeSrv-eaa349.o
 0002:000131dd       ??_C@_0BJ@GIIDDJOL@Not?5ready?5on?5Server?5yet?4?$AA@ 00000001400751dd     HandshakeSrv-eaa349.o
 0002:000131f6       ??_C@_0BF@HENMHAH@Handshake?5FinishedID?$AA@ 00000001400751f6     HandshakeSrv-eaa349.o
 0002:0001320b       ??_C@_0CL@FHOOBKCH@HandshakeSrv?4parseMessage?5unexpe@ 000000014007520b     HandshakeSrv-eaa349.o
 0002:00013236       ??_C@_0BJ@JIOEHKDO@?6Handshake?5processInBuf?4?$AA@ 0000000140075236     HandshakeSrv-eaa349.o
 0002:0001324f       ??_C@_0BO@DLIMGBNA@Error?5in?5Handshake?5accumByte?4?$AA@ 000000014007524f     HandshakeSrv-eaa349.o
 0002:0001326d       ??_C@_0DN@CLLJAOLL@The?5NetClient?5copy?5constructor?5s@ 000000014007526d     NetClient-bca97d.o
 0002:000132aa       ??_C@_0BP@JEPMGGFG@receiveCharBuf?5returned?5false?4?$AA@ 00000001400752aa     NetClient-bca97d.o
 0002:000132c9       ??_C@_0CD@KBGDMABG@Copy?5constructor?5for?5SClientArra@ 00000001400752c9     SClientArray-44ad03.o
 0002:000132ec       ??_C@_0DD@PFMADAFI@The?5Server?5copy?5constructor?5shou@ 00000001400752ec     Server-6b994e.o
 0002:0001331f       ??_C@_0BB@DDHDCBJK@Starting?5server?4?$AA@ 000000014007531f     Server-6b994e.o
 0002:00013330       ??_C@_0BM@PCJELBDG@Could?5not?5start?5the?5server?4?$AA@ 0000000140075330     Server-6b994e.o
 0002:0001334c       ??_C@_0BF@KLPAOHON@Server?5is?5listening?4?$AA@ 000000014007534c     Server-6b994e.o
 0002:00013361       ??_C@_0BK@FHFLNCOA@Closing?5server?5on?5Ctrl?9C?4?$AA@ 0000000140075361     Server-6b994e.o
 0002:0001337b       ??_C@_0P@MPAIENBD@Closed?5server?4?$AA@ 000000014007537b     Server-6b994e.o
 0002:0001338a       ??_C@_0CF@NKHNFLAN@ServerHello?5copy?5constructor?5cal@ 000000014007538a     ServerHello-92682c.o
 0002:000133af       ??_C@_0BF@JAIICEHM@Parsing?5ServerHello?4?$AA@ 00000001400753af     ServerHello-92682c.o
 0002:000133c4       ??_C@_0N@DDNEINM@cipherHigh?3?5?$AA@ 00000001400753c4     ServerHello-92682c.o
 0002:000133d1       ??_C@_0M@CLBJBAGG@cipherLow?3?5?$AA@ 00000001400753d1     ServerHello-92682c.o
 0002:000133dd       ??_C@_0BG@KPADDCHF@cipher?5can?8t?5be?5used?4?$AA@ 00000001400753dd     ServerHello-92682c.o
 0002:000133f3       ??_C@_0CJ@FPDCBIP@ServerHello?5compression?5length?5n@ 00000001400753f3     ServerHello-92682c.o
 0002:0001341c       ??_C@_0CG@IHDFMGGM@Exception?5in?5ServerHello?4parseBu@ 000000014007541c     ServerHello-92682c.o
 0002:00013442       ??_C@_0CH@LOGMPADP@Exception?5in?5ServerHello?4parseBu@ 0000000140075442     ServerHello-92682c.o
 0002:00013469       ??_C@_0CB@PADAJEGF@Top?5of?5ServerHello?4makeHelloBuf?4@ 0000000140075469     ServerHello-92682c.o
 0002:0001348a       ??_C@_0BE@OLFFJAEF@Session?5ID?5length?3?5?$AA@ 000000014007548a     ServerHello-92682c.o
 0002:0001349e       ??_C@_0BL@PBPDEDGG@ServerHello?5idLength?5?$DO?532?4?$AA@ 000000014007549e     ServerHello-92682c.o
 0002:000134b9       ??_C@_0BG@GGKCDMGH@After?5the?5extentions?4?$AA@ 00000001400754b9     ServerHello-92682c.o
 0002:000134cf       ??_C@_0M@BMEACKOO@outBufLen?3?5?$AA@ 00000001400754cf     ServerHello-92682c.o
 0002:00014ab0       ??_C@_0DG@CHJAHBIJ@The?5ServerTls?5copy?5constructor?5s@ 0000000140076ab0     ServerTls-6fd03c.o
 0002:00014ae6       ??_C@_0BD@OFGICIJM@Top?5of?5mainLoop?$CI?$CJ?4?$AA@ 0000000140076ae6     ServerTls-6fd03c.o
 0002:00014af9       ??_C@_0BE@INPJKAPE@Added?5new?5SrvClTls?3?$AA@ 0000000140076af9     ServerTls-6fd03c.o
 0002:00014b0d       ??_C@_01CLKCMJKC@?5?$AA@   0000000140076b0d     ServerTls-6fd03c.o
 0002:00014b0f       ??_C@_0BO@GJCMCLLF@SocketsApi?5getaddrinfo?5error?4?$AA@ 0000000140076b0f     SocketsApiWin-7e7fe5.o
 0002:00014b2d       ??_C@_0BA@GFEMFDFG@Host?5not?5found?4?$AA@ 0000000140076b2d     SocketsApiWin-7e7fe5.o
 0002:00014b3d       ??_C@_0BL@GEEOCPJM@resultList?5can?8t?5be?5right?4?$AA@ 0000000140076b3d     SocketsApiWin-7e7fe5.o
 0002:00014b58       ??_C@_0CC@LCLGJHP@The?5sa?5was?5null?5in?5getAddressStr@ 0000000140076b58     SocketsApiWin-7e7fe5.o
 0002:00014b7a       ??_C@_0BM@FLKFHPLK@The?5sa_family?5is?5not?5right?4?$AA@ 0000000140076b7a     SocketsApiWin-7e7fe5.o
 0002:00014b96       ??_C@_0CC@JGADPKJE@Error?5getting?5the?5address?5string@ 0000000140076b96     SocketsApiWin-7e7fe5.o
 0002:00014bb8       ??_C@_0BI@BKECNDK@WSAStartup?5didn?8t?5work?4?$AA@ 0000000140076bb8     SocketsApiWin-7e7fe5.o
 0002:00014bd0       ??_C@_0DH@GHOBGECB@The?5SocketsApi?5copy?5constructor?5@ 0000000140076bd0     SocketsApiWin-7e7fe5.o
 0002:00014c07       ??_C@_0BL@CJPMHFF@Closing?5an?5invalid?5socket?4?$AA@ 0000000140076c07     SocketsApiWin-7e7fe5.o
 0002:00014c22       ??_C@_0CB@KPKELOEJ@connect?$CI?$CJ?5could?5not?5get?5address?4@ 0000000140076c22     SocketsApiWin-7e7fe5.o
 0002:00014c43       ??_C@_0BI@JCBPLGLA@Client?5connect?5address?3?$AA@ 0000000140076c43     SocketsApiWin-7e7fe5.o
 0002:00014c5b       ??_C@_0BH@HBBAOCHC@showAddr?5size?5is?5zero?4?$AA@ 0000000140076c5b     SocketsApiWin-7e7fe5.o
 0002:00014c72       ??_C@_0BN@MCFMPBME@No?5sockets?5left?5for?5connect?4?$AA@ 0000000140076c72     SocketsApiWin-7e7fe5.o
 0002:00014c8f       ??_C@_0BC@KGPOCMPK@About?5to?5connect?4?$AA@ 0000000140076c8f     SocketsApiWin-7e7fe5.o
 0002:00014ca1       ??_C@_0BK@GGCGGHDB@Could?5not?5connect?5socket?4?$AA@ 0000000140076ca1     SocketsApiWin-7e7fe5.o
 0002:00014cbb       ??_C@_0BE@FEKNMJLM@Socket?5would?5block?4?$AA@ 0000000140076cbb     SocketsApiWin-7e7fe5.o
 0002:00014ccf       ??_C@_0BH@GOCNIHMF@socket?5connect?5failed?4?$AA@ 0000000140076ccf     SocketsApiWin-7e7fe5.o
 0002:00014ce6       ??_C@_0L@DLMOGNMB@Error?5is?3?5?$AA@ 0000000140076ce6     SocketsApiWin-7e7fe5.o
 0002:00014cf1       ??_C@_0BK@GDAMFJDO@No?5more?5addresses?5to?5try?4?$AA@ 0000000140076cf1     SocketsApiWin-7e7fe5.o
 0002:00014d0b       ??_C@_0CA@GKJGJLF@Connected?5to?5an?5invalid?5socket?$DP?$AA@ 0000000140076d0b     SocketsApiWin-7e7fe5.o
 0002:00014d2b       ??_C@_0BJ@NFPMHBNG@False?5on?5setNonBlocking?4?$AA@ 0000000140076d2b     SocketsApiWin-7e7fe5.o
 0002:00014d44       ??_C@_0O@IKLBNAML@Connected?5to?3?$AA@ 0000000140076d44     SocketsApiWin-7e7fe5.o
 0002:00014d52       ??_C@_0BF@DLOEFOMD@socket?5ioctl?5failed?4?$AA@ 0000000140076d52     SocketsApiWin-7e7fe5.o
 0002:00014d67       ??_C@_0CE@JFEANDFC@openServer?$CI?$CJ?5could?5not?5get?5addre@ 0000000140076d67     SocketsApiWin-7e7fe5.o
 0002:00014d8b       ??_C@_0BO@DFPBOKLM@No?5IP?5address?5for?5the?5server?4?$AA@ 0000000140076d8b     SocketsApiWin-7e7fe5.o
 0002:00014da9       ??_C@_0BD@MJKGNOKA@Server?5IP?5address?3?$AA@ 0000000140076da9     SocketsApiWin-7e7fe5.o
 0002:00014dbc       ??_C@_0BD@JDMGKHJN@Server?5no?5sockets?4?$AA@ 0000000140076dbc     SocketsApiWin-7e7fe5.o
 0002:00014dcf       ??_C@_0BD@NFAFHPOH@Server?5bind?5error?4?$AA@ 0000000140076dcf     SocketsApiWin-7e7fe5.o
 0002:00014de2       ??_C@_0BF@KJHBDOBH@Server?5listen?5error?4?$AA@ 0000000140076de2     SocketsApiWin-7e7fe5.o
 0002:00014df7       ??_C@_0BP@CAKIDOAK@setNonBlocking?5returned?5false?4?$AA@ 0000000140076df7     SocketsApiWin-7e7fe5.o
 0002:00014e16       ??_C@_0BF@GLBAIMEF@Got?5a?5server?5socket?4?$AA@ 0000000140076e16     SocketsApiWin-7e7fe5.o
 0002:00014e2b       ??_C@_0BJ@FJLIOHEK@socket?5accept?5error?5is?3?5?$AA@ 0000000140076e2b     SocketsApiWin-7e7fe5.o
 0002:00014e44       ??_C@_0BF@EBBGCOJM@Accepted?5IP?5address?3?$AA@ 0000000140076e44     SocketsApiWin-7e7fe5.o
 0002:00014e59       ??_C@_0CB@FBCBAMFF@sendBuf?$CI?$CJ?5sendToSock?5is?5invalid?4@ 0000000140076e59     SocketsApiWin-7e7fe5.o
 0002:00014e7a       ??_C@_0BM@DJGLCCKN@SocketsApi?5sendBuf?$CI?$CJ?5error?4?$AA@ 0000000140076e7a     SocketsApiWin-7e7fe5.o
 0002:00014e96       ??_C@_0CD@BKCFPKAL@SocketsApi?3?3sendCharBuf?5exceptio@ 0000000140076e96     SocketsApiWin-7e7fe5.o
 0002:00014eb9       ??_C@_0CF@MMPIPNIC@Exception?5in?5SocketsApi?3?3sendCha@ 0000000140076eb9     SocketsApiWin-7e7fe5.o
 0002:00014ede       ??_C@_0CB@DMNFCGPA@receiveBuf?$CI?$CJ?5recSock?5is?5invalid?4@ 0000000140076ede     SocketsApiWin-7e7fe5.o
 0002:00014eff       ??_C@_0BH@CNEBCMPP@socket?5recv?5error?5is?3?5?$AA@ 0000000140076eff     SocketsApiWin-7e7fe5.o
 0002:00014f16       ??_C@_0CD@HGFPDGNL@SocketsApi?5receiveCharBuf?5too?5bi@ 0000000140076f16     SocketsApiWin-7e7fe5.o
 0002:00014f39       ??_C@_0CF@BKOKLDII@SocketsApi?5receiveCharBuf?5except@ 0000000140076f39     SocketsApiWin-7e7fe5.o
 0002:00014f5e       ??_C@_0CI@MGLHIJJP@U64ToI32?3?5Casting?5from?5too?5big?5o@ 0000000140076f5e     SocketsApiWin-7e7fe5.o
 0002:00014f98       ??_7SrvClient@@6B@         0000000140076f98     SrvClient-d45776.o
 0002:00014fa8       ??_C@_0BO@LOKNHEDE@SrvClient?5constructor?5called?4?$AA@ 0000000140076fa8     SrvClient-d45776.o
 0002:00014fc6       ??_C@_0CB@MEKJFOEM@SrvClient?5useSocket?5constructor?4@ 0000000140076fc6     SrvClient-d45776.o
 0002:00014fe7       ??_C@_0DG@PFIHBHPN@The?5SrvClient?5copy?5constructor?5s@ 0000000140076fe7     SrvClient-d45776.o
 0002:0001501d       ??_C@_0BN@ICGMDMJ@SrvClient?5destructor?5called?4?$AA@ 000000014007701d     SrvClient-d45776.o
 0002:0001503a       ??_C@_0CD@HMFGOCBB@SrvClient?5could?5not?5send?5all?5dat@ 000000014007703a     SrvClient-d45776.o
 0002:00015060       ??_R4SrvClient@@6B@        0000000140077060     SrvClient-d45776.o
 0002:00015078       ??_R3SrvClient@@8          0000000140077078     SrvClient-d45776.o
 0002:00015088       ??_R2SrvClient@@8          0000000140077088     SrvClient-d45776.o
 0002:00015090       ??_R1A@?0A@EA@SrvClient@@8 0000000140077090     SrvClient-d45776.o
 0002:000150b8       ??_7SrvClTls@@6B@          00000001400770b8     SrvClTls-58f311.o
 0002:000150c8       ??_C@_0BN@BDMPOJAD@SrvClTls?5constructor?5called?4?$AA@ 00000001400770c8     SrvClTls-58f311.o
 0002:000150e5       ??_C@_0CA@ICNOFJNH@SrvClTls?5useSocket?5constructor?4?$AA@ 00000001400770e5     SrvClTls-58f311.o
 0002:00015105       ??_C@_0BM@NDDLCKD@SrvClTls?5destructor?5called?4?$AA@ 0000000140077105     SrvClTls-58f311.o
 0002:00015121       ??_C@_0BJ@MMNKEEMB@Closing?5inactive?5socket?4?$AA@ 0000000140077121     SrvClTls-58f311.o
 0002:0001513a       ??_C@_0CD@KLHHGFFN@SrvClTls?5could?5not?5write?5all?5dat@ 000000014007713a     SrvClTls-58f311.o
 0002:0001515d       ??_C@_0CC@KIAGBHBL@Exception?5in?5SrvClTls?4processDat@ 000000014007715d     SrvClTls-58f311.o
 0002:0001517f       ??_C@_0CD@IBMKMGNH@Exception?5in?5SrvClTls?4processDat@ 000000014007717f     SrvClTls-58f311.o
 0002:000151b0       ??_R4SrvClTls@@6B@         00000001400771b0     SrvClTls-58f311.o
 0002:000151c8       ??_R3SrvClTls@@8           00000001400771c8     SrvClTls-58f311.o
 0002:000151d8       ??_R2SrvClTls@@8           00000001400771d8     SrvClTls-58f311.o
 0002:000151f0       ??_R1A@?0A@EA@SrvClTls@@8  00000001400771f0     SrvClTls-58f311.o
 0002:000167e0       ??_C@_0CE@OHLOEBPC@TlsMainCl?5could?5not?5write?5all?5da@ 00000001400787e0     TlsMainCl-89780c.o
 0002:00016804       ??_C@_0CD@PFALHEDK@TlsMainCl?3?3processIncoming?5bytes@ 0000000140078804     TlsMainCl-89780c.o
 0002:00016827       ??_C@_0BO@KEIHHENH@tlsOuterRead?4accumByte?5error?4?$AA@ 0000000140078827     TlsMainCl-89780c.o
 0002:00016845       ??_C@_0BD@MCHFEKAA@recordBytes?5last?3?5?$AA@ 0000000140078845     TlsMainCl-89780c.o
 0002:00016858       ??_C@_0BI@NBOHJLOP@Got?5a?5ChangeCipherSpec?4?$AA@ 0000000140078858     TlsMainCl-89780c.o
 0002:00016870       ??_C@_0BL@PHOBOINO@Ignoring?5ChangeCipherSpec?4?$AA@ 0000000140078870     TlsMainCl-89780c.o
 0002:0001688b       ??_C@_0CB@MJNKEOIP@Alert?5recBytesLast?5is?5not?5right?4@ 000000014007888b     TlsMainCl-89780c.o
 0002:000168ac       ??_C@_0O@IEMAFOHG@Got?5an?5Alert?4?$AA@ 00000001400788ac     TlsMainCl-89780c.o
 0002:000168ba       ??_C@_0BF@BFHAIFHA@Got?5ApplicationData?4?$AA@ 00000001400788ba     TlsMainCl-89780c.o
 0002:000168cf       ??_C@_0BA@CMOIDOIN@appBytes?5last?3?5?$AA@ 00000001400788cf     TlsMainCl-89780c.o
 0002:000168df       ??_C@_0BB@FIFHCIEE@Got?5a?5HeartBeat?4?$AA@ 00000001400788df     TlsMainCl-89780c.o
 0002:000168f0       ??_C@_0BB@EMCLBEBG@processHandshake?$AA@ 00000001400788f0     TlsMainCl-89780c.o
 0002:00016901       ??_C@_0BO@JEKFBHDO@Handshake?5processInbuf?5error?4?$AA@ 0000000140078901     TlsMainCl-89780c.o
 0002:0001691f       ??_C@_07OEKPNBBO@msgID?3?5?$AA@ 000000014007891f     TlsMainCl-89780c.o
 0002:00016927       ??_C@_0BK@MFBGKCGC@Client?5got?5a?5ClientHello?4?$AA@ 0000000140078927     TlsMainCl-89780c.o
 0002:00016941       ??_C@_0BD@OOBNLHKE@Got?5a?5ServerHello?4?$AA@ 0000000140078941     TlsMainCl-89780c.o
 0002:00016954       ??_C@_0BK@KJBAJOMN@Got?5a?5NewSessionTicketID?4?$AA@ 0000000140078954     TlsMainCl-89780c.o
 0002:0001696e       ??_C@_0BI@BBGIBMPJ@Got?5a?5EndOfEarlyDataID?4?$AA@ 000000014007896e     TlsMainCl-89780c.o
 0002:00016986       ??_C@_0CB@POPNCHHC@Got?5a?5HelloRetryRequestRESERVED?4@ 0000000140078986     TlsMainCl-89780c.o
 0002:000169a7       ??_C@_0BO@DCIHBOOH@Got?5an?5EncryptedExtensionsID?4?$AA@ 00000001400789a7     TlsMainCl-89780c.o
 0002:000169c5       ??_C@_0BF@FOAKIGCA@Got?5a?5CertificateID?4?$AA@ 00000001400789c5     TlsMainCl-89780c.o
 0002:000169da       ??_C@_0BM@MAMHPFPO@Got?5a?5CertificateRequestID?4?$AA@ 00000001400789da     TlsMainCl-89780c.o
 0002:000169f6       ??_C@_0BL@NPPKFFJO@Got?5a?5CertificateVerifyID?4?$AA@ 00000001400789f6     TlsMainCl-89780c.o
 0002:00016a11       ??_C@_0BC@KILCJDEE@Got?5a?5FinishedID?4?$AA@ 0000000140078a11     TlsMainCl-89780c.o
 0002:00016a23       ??_C@_0BD@OHJKPLBL@Got?5a?5KeyUpdateID?4?$AA@ 0000000140078a23     TlsMainCl-89780c.o
 0002:00016a36       ??_C@_0BF@OIMLFNDJ@Got?5a?5MessageHashID?4?$AA@ 0000000140078a36     TlsMainCl-89780c.o
 0002:00016a4b       ??_C@_0BL@JEEFOLGC@Handshake?5message?5unknown?4?$AA@ 0000000140078a4b     TlsMainCl-89780c.o
 0002:00016a66       ??_C@_0CA@BPDGNOBF@It?5should?5never?5loop?5100?5times?4?$AA@ 0000000140078a66     TlsMainCl-89780c.o
 0002:00016a86       ??_C@_0BE@GFEJMIEI@App?5data?5plainText?3?$AA@ 0000000140078a86     TlsMainCl-89780c.o
 0002:00016a9a       ??_C@_0CD@LLJNKLCI@processAppData?5messages?5was?5empt@ 0000000140078a9a     TlsMainCl-89780c.o
 0002:00016abd       ??_C@_0CI@DCNKHIKM@processAppData?5Message?5was?5all?5p@ 0000000140078abd     TlsMainCl-89780c.o
 0002:00016ae5       ??_C@_09EGJLPIIE@messages?3?$AA@ 0000000140078ae5     TlsMainCl-89780c.o
 0002:00016aef       ??_C@_0CD@HIHBDPKK@App?5data?5messageType?5is?5handshak@ 0000000140078aef     TlsMainCl-89780c.o
 0002:00016b12       ??_C@_0CB@NCHMLIKE@messageType?5is?5ChangeCipherSpec?4@ 0000000140078b12     TlsMainCl-89780c.o
 0002:00016b33       ??_C@_0BG@COHMIKFK@messageType?5is?5Alert?4?$AA@ 0000000140078b33     TlsMainCl-89780c.o
 0002:00016b49       ??_C@_0CA@CFLANILH@messageType?5is?5ApplicationData?4?$AA@ 0000000140078b49     TlsMainCl-89780c.o
 0002:00016b69       ??_C@_0BK@DIHLGADM@messageType?5is?5HeartBeat?4?$AA@ 0000000140078b69     TlsMainCl-89780c.o
 0002:00016b83       ??_C@_0BI@LAJBNHDP@messageType?5is?5unknown?4?$AA@ 0000000140078b83     TlsMainCl-89780c.o
 0002:00016b9b       ??_C@_0BJ@BNOLJGCA@Parameter?5is?5being?5used?4?$AA@ 0000000140078b9b     TlsMainCl-89780c.o
 0002:00016bb4       ??_C@_0BN@ILFJKAOB@Send?5plain?5alert?5needs?5work?4?$AA@ 0000000140078bb4     TlsMainCl-89780c.o
 0002:00016bd1       ??_C@_0BL@LBICDPGE@Sending?5test?5vec?5finished?4?$AA@ 0000000140078bd1     TlsMainCl-89780c.o
 0002:00016bec       ??_C@_0GJ@MHICFFOL@14?500?500?520?5a8?5ec?543?56d?567?576?534@ 0000000140078bec     TlsMainCl-89780c.o
 0002:00016c55       ??_C@_0L@PIICHHOA@finMsgBuf?3?$AA@ 0000000140078c55     TlsMainCl-89780c.o
 0002:00016c60       ??_C@_0KK@EFOCDGJD@17?503?503?500?535?575?5ec?54d?5c2?538?5cc@ 0000000140078c60     TlsMainCl-89780c.o
 0002:00016d0a       ??_C@_0L@MCIGLPIF@finRecBuf?3?$AA@ 0000000140078d0a     TlsMainCl-89780c.o
 0002:00016d15       ??_C@_0BG@FDGMHKP@Connecting?5to?5server?4?$AA@ 0000000140078d15     TlsMainCl-89780c.o
 0002:00016d2b       ??_C@_0FN@IHEEBJAE@49?5af?542?5ba?57f?579?594?5852d?571?53e?5@ 0000000140078d2b     TlsMainCl-89780c.o
 0002:00016d88       ??_C@_0FN@CKKNJJLA@99?538?51d?5e5?560?5e4?5bd?543d2?53d?58e?5@ 0000000140078d88     TlsMainCl-89780c.o
 0002:00016de5       ??_C@_0N@MAANGMDH@Private?5key?3?$AA@ 0000000140078de5     TlsMainCl-89780c.o
 0002:00016df2       ??_C@_0M@LGKEBPMF@Public?5key?3?$AA@ 0000000140078df2     TlsMainCl-89780c.o
 0002:00016dfe       ??_C@_0M@IOCNJHDO@pubKeyTest?3?$AA@ 0000000140078dfe     TlsMainCl-89780c.o
 0002:00016e0a       ??_C@_0CL@IJGPLMDG@startTestVecHandshake?5Test?5keys?5@ 0000000140078e0a     TlsMainCl-89780c.o
 0002:00016e35       ??_C@_0BE@EGDCCABD@Got?5the?5keys?5right?4?$AA@ 0000000140078e35     TlsMainCl-89780c.o
 0002:00016e49       ??_C@_06HJHJCKIO@server?$AA@ 0000000140078e49     TlsMainCl-89780c.o
 0002:00016e50       ??_C@_0CDK@KOCIEFCA@01?500?500?5c0?503?503?5cb34?5ec?5b1?5e7?5@ 0000000140078e50     TlsMainCl-89780c.o
 0002:0001708a       ??_C@_09MLDOICCL@clRecBuf?3?$AA@ 000000014007908a     TlsMainCl-89780c.o
 0002:00017094       ??_C@_0CEJ@LBOMLLIG@16?503?501?500?5c4?501?500?500?5c0?503?503@ 0000000140079094     TlsMainCl-89780c.o
 0002:000172dd       ??_C@_0L@JGGONLEB@recordBuf?3?$AA@ 00000001400792dd     TlsMainCl-89780c.o
 0002:000172e8       ??_C@_0BC@NBDBNGJA@End?5of?5recordBuf?4?$AA@ 00000001400792e8     TlsMainCl-89780c.o
 0002:000172fa       ??_C@_0N@GEGGCNOH@Sent?5bytes?3?5?$AA@ 00000001400792fa     TlsMainCl-89780c.o
 0002:00017307       ??_C@_0P@PPFCBCNH@cHelloBufLen?3?5?$AA@ 0000000140079307     TlsMainCl-89780c.o
 0002:00017316       ??_C@_0BM@DMMEFHBI@Fix?5cHelloBuf?5not?5all?5sent?4?$AA@ 0000000140079316     TlsMainCl-89780c.o
 0002:00017332       ??_C@_0CB@HHLMCDLJ@Fix?5sentBytes?5in?5startHandshake?4@ 0000000140079332     TlsMainCl-89780c.o
 0002:00017353       ??_C@_0BG@OKNBNBKP@Alert?5is?5CloseNotify?4?$AA@ 0000000140079353     TlsMainCl-89780c.o
 0002:00017369       ??_C@_0BH@EAFCPBMA@Alert?5is?5UserCanceled?4?$AA@ 0000000140079369     TlsMainCl-89780c.o
 0002:00017380       ??_C@_0BM@PELHCDMK@Alert?5is?5UnexpectedMessage?4?$AA@ 0000000140079380     TlsMainCl-89780c.o
 0002:0001739c       ??_C@_0BH@FGCJCPHD@Alert?5is?5BadRecordMac?4?$AA@ 000000014007939c     TlsMainCl-89780c.o
 0002:000173b3       ??_C@_0BJ@NBMPEEOI@Alert?5is?5RecordOverflow?4?$AA@ 00000001400793b3     TlsMainCl-89780c.o
 0002:000173cc       ??_C@_0BL@PPOFIIKJ@Alert?5is?5HandshakeFailure?4?$AA@ 00000001400793cc     TlsMainCl-89780c.o
 0002:000173e7       ??_C@_0BJ@PHIFIEBK@Alert?5is?5BadCertificate?4?$AA@ 00000001400793e7     TlsMainCl-89780c.o
 0002:00017400       ??_C@_0CB@GKJFODCC@Alert?5is?5UnsupportedCertificate?4@ 0000000140079400     TlsMainCl-89780c.o
 0002:00017421       ??_C@_0BN@EJGKEJH@Alert?5is?5CertificateRevoked?4?$AA@ 0000000140079421     TlsMainCl-89780c.o
 0002:0001743e       ??_C@_0BN@PDPAIMAB@Alert?5is?5CertificateExpired?4?$AA@ 000000014007943e     TlsMainCl-89780c.o
 0002:0001745b       ??_C@_0BN@PCMPEHKB@Alert?5is?5CertificateUnknown?4?$AA@ 000000014007945b     TlsMainCl-89780c.o
 0002:00017478       ??_C@_0BL@BBIMKAOE@Alert?5is?5IllegalParameter?4?$AA@ 0000000140079478     TlsMainCl-89780c.o
 0002:00017493       ??_C@_0BE@HNKHIHEF@Alert?5is?5UnknownCa?4?$AA@ 0000000140079493     TlsMainCl-89780c.o
 0002:000174a7       ??_C@_0BH@KADPEMBN@Alert?5is?5AccessDenied?4?$AA@ 00000001400794a7     TlsMainCl-89780c.o
 0002:000174be       ??_C@_0BG@FFBNPHLD@Alert?5is?5DecodeError?4?$AA@ 00000001400794be     TlsMainCl-89780c.o
 0002:000174d4       ??_C@_0BH@HDFJLBNN@Alert?5is?5DecryptError?4?$AA@ 00000001400794d4     TlsMainCl-89780c.o
 0002:000174eb       ??_C@_0BK@FNJNCOBA@Alert?5is?5ProtocolVersion?4?$AA@ 00000001400794eb     TlsMainCl-89780c.o
 0002:00017505       ??_C@_0BP@KFPHLJJK@Alert?5is?5InsufficientSecurity?4?$AA@ 0000000140079505     TlsMainCl-89780c.o
 0002:00017524       ??_C@_0BI@NJJNMLMB@Alert?5is?5InternalError?4?$AA@ 0000000140079524     TlsMainCl-89780c.o
 0002:0001753c       ??_C@_0CA@FOOLHAPD@Alert?5is?5InappropriateFallback?4?$AA@ 000000014007953c     TlsMainCl-89780c.o
 0002:0001755c       ??_C@_0BL@IIHKAKEP@Alert?5is?5MissingExtension?4?$AA@ 000000014007955c     TlsMainCl-89780c.o
 0002:00017577       ??_C@_0BP@PPFGEMJC@Alert?5is?5UnsupportedExtension?4?$AA@ 0000000140079577     TlsMainCl-89780c.o
 0002:00017596       ??_C@_0BL@HJOAEDGD@Alert?5is?5UnrecognizedName?4?$AA@ 0000000140079596     TlsMainCl-89780c.o
 0002:000175b1       ??_C@_0CH@OAODJIEN@Alert?5is?5BadCertificateStatusRes@ 00000001400795b1     TlsMainCl-89780c.o
 0002:000175d8       ??_C@_0BN@CGPDGHNI@Alert?5is?5UnknownPskIdentity?4?$AA@ 00000001400795d8     TlsMainCl-89780c.o
 0002:000175f5       ??_C@_0BO@PGLKNGBM@Alert?5is?5CertificateRequired?4?$AA@ 00000001400795f5     TlsMainCl-89780c.o
 0002:00017613       ??_C@_0CA@JLJMMNLI@Alert?5is?5NoApplicationProtocol?4?$AA@ 0000000140079613     TlsMainCl-89780c.o
 0002:00017633       ??_C@_0BI@DMNMDDFP@Alert?5is?5unknown?5type?3?5?$AA@ 0000000140079633     TlsMainCl-89780c.o
 0002:00018c20       ??_C@_0CD@MGKHALIG@Top?5of?5setTestVecServerCertOnly?$CI@ 000000014007ac20     TlsMainSrv-bbf05b.o
 0002:00018c43       ??_C@_0FAO@GIEJHNJG@0b?500?501?5b900?500?501?5b5?500?501?5b0?5@ 000000014007ac43     TlsMainSrv-bbf05b.o
 0002:00019151       ??_C@_0BA@DDEOMLIO@certBuf?5?$CIonly?$CJ?3?$AA@ 000000014007b151     TlsMainSrv-bbf05b.o
 0002:00019161       ??_C@_0CA@CMBAPALE@Top?5of?5setTestVecServerHello?$CI?$CJ?4?$AA@ 000000014007b161     TlsMainSrv-bbf05b.o
 0002:00019181       ??_C@_0FO@KKMABIPG@b1?558?50e?5ea?5df?56d?5d5?589?5b8?5ef?54f@ 000000014007b181     TlsMainSrv-bbf05b.o
 0002:000191df       ??_C@_0FO@FDAIDFCN@c9?582?588?576?511?520?595?5fe?566?576?52b@ 000000014007b1df     TlsMainSrv-bbf05b.o
 0002:0001923d       ??_C@_0M@DOBABFCP@privKeyBuf?3?$AA@ 000000014007b23d     TlsMainSrv-bbf05b.o
 0002:00019249       ??_C@_0L@JONKCIIC@pubKeyBuf?3?$AA@ 000000014007b249     TlsMainSrv-bbf05b.o
 0002:00019254       ??_C@_0CL@JFDDGHHH@setTestVecServerHello?5Test?5keys?5@ 000000014007b254     TlsMainSrv-bbf05b.o
 0002:0001927f       ??_C@_0BAI@FMCMPIEE@02?500?500?556?503?503?5a6?5af?506?5a4?512@ 000000014007b27f     TlsMainSrv-bbf05b.o
 0002:00019387       ??_C@_0BBG@EICNJPOB@16?503?503?500?55a?502?500?500?556?503?503@ 000000014007b387     TlsMainSrv-bbf05b.o
 0002:0001949d       ??_C@_0CE@OFFDLELI@TlsMainSrv?3?3processIncoming?5byte@ 000000014007b49d     TlsMainSrv-bbf05b.o
 0002:000194c1       ??_C@_0BN@EICMENEP@Handshake?5processInbuf?5Done?4?$AA@ 000000014007b4c1     TlsMainSrv-bbf05b.o
 0002:000194de       ??_C@_0CA@IDALGKIP@Handshake?5message?5out?5of?5order?4?$AA@ 000000014007b4de     TlsMainSrv-bbf05b.o
 0002:000194fe       ??_C@_0BD@MCMHMFNB@Got?5a?5ClientHello?4?$AA@ 000000014007b4fe     TlsMainSrv-bbf05b.o
 0002:00019511       ??_C@_0BF@JJHNDANH@Sending?5ServerHello?4?$AA@ 000000014007b511     TlsMainSrv-bbf05b.o
 0002:00019526       ??_C@_0BL@LJHPMJOO@Got?5a?5Finished?5Message?4?6?6?6?$AA@ 000000014007b526     TlsMainSrv-bbf05b.o
 0002:00019541       ??_C@_0CJ@OILEFCNF@App?5data?5messageType?5is?5Applicat@ 000000014007b541     TlsMainSrv-bbf05b.o
 0002:0001956a       ??_C@_0BK@DHLCKLGD@Sending?5ChangeCipherSpec?4?$AA@ 000000014007b56a     TlsMainSrv-bbf05b.o
 0002:00019584       ??_C@_0CD@ECPEJENL@Top?5of?5setTestVecServerEncExten?$CI@ 000000014007b584     TlsMainSrv-bbf05b.o
 0002:000195a7       ??_C@_0HD@OIFFONFK@08?500?500?52400?522?500?50a?500?514?5001@ 000000014007b5a7     TlsMainSrv-bbf05b.o
 0002:0001961a       ??_C@_0N@MKBJCFI@encExtenBuf?3?$AA@ 000000014007b61a     TlsMainSrv-bbf05b.o
 0002:00019627       ??_C@_0CF@LJLLCEIC@Top?5of?5setTestVecServerCertVerif@ 000000014007b627     TlsMainSrv-bbf05b.o
 0002:0001964c       ??_C@_0BIH@BNEDCKKF@0f?500?500?58408?504?500?580?55a?574?57c5@ 000000014007b64c     TlsMainSrv-bbf05b.o
 0002:000197d3       ??_C@_0P@OLKLNOKI@certVerifyBuf?3?$AA@ 000000014007b7d3     TlsMainSrv-bbf05b.o
 0002:000197e2       ??_C@_0CD@DKMOFLOC@Top?5of?5setTestVecServerFinished?$CI@ 000000014007b7e2     TlsMainSrv-bbf05b.o
 0002:00019805       ??_C@_0GI@EOGOLICN@14?500?500?5209b?59b?514?51d?590?563?537?5@ 000000014007b805     TlsMainSrv-bbf05b.o
 0002:0001986d       ??_C@_0N@FDNMCAJP@finishedBuf?3?$AA@ 000000014007b86d     TlsMainSrv-bbf05b.o
 0002:0001987a       ??_C@_0CE@MBLOBDIM@Top?5of?5setTestVecServerCertOuter@ 000000014007b87a     TlsMainSrv-bbf05b.o
 0002:0001989e       ??_C@_0HLH@FFHOONPC@17?503?50302?5a2?5d1?5ff?533?54a?556?5f5?5@ 000000014007b89e     TlsMainSrv-bbf05b.o
 0002:0001a055       ??_C@_0O@DOHEMDKE@certOuterBuf?3?$AA@ 000000014007c055     TlsMainSrv-bbf05b.o
 0002:0001a063       ??_C@_0CI@PNJHHDOE@?6?6?6Top?5of?5setTestVecNewSessionTi@ 000000014007c063     TlsMainSrv-bbf05b.o
 0002:0001a08b       ??_C@_0CJE@BPNIHHKD@17?503?503?500?5de?53a6b?58f?590?541?54a?5@ 000000014007c08b     TlsMainSrv-bbf05b.o
 0002:0001a31f       ??_C@_0L@EBACFPKN@ticketBuf?3?$AA@ 000000014007c31f     TlsMainSrv-bbf05b.o
 0002:0001b900       ??_C@_0BA@EMFJBOG@?6New?5Outer?5Rec?4?$AA@ 000000014007d900     TlsOuterRec-2f5f15.o
 0002:0001b910       ??_C@_09HNNCJCCO@Byte?5is?3?5?$AA@ 000000014007d910     TlsOuterRec-2f5f15.o
 0002:0001b91a       ??_C@_0BI@ONICAFHN@Outer?5Rec?5is?5handshake?4?$AA@ 000000014007d91a     TlsOuterRec-2f5f15.o
 0002:0001b932       ??_C@_0BP@DPICJOEB@Outer?5Rec?5is?5ChangeCipherSpec?4?$AA@ 000000014007d932     TlsOuterRec-2f5f15.o
 0002:0001b951       ??_C@_0BE@OBCOPMLF@Outer?5Rec?5is?5alert?4?$AA@ 000000014007d951     TlsOuterRec-2f5f15.o
 0002:0001b965       ??_C@_0BP@HFKKINOJ@Outer?5Rec?5is?5application?5data?4?$AA@ 000000014007d965     TlsOuterRec-2f5f15.o
 0002:0001b984       ??_C@_0BI@GCOBMAHB@Outer?5Rec?5is?5heartbeat?4?$AA@ 000000014007d984     TlsOuterRec-2f5f15.o
 0002:0001b99c       ??_C@_0CC@MOEBCHPC@The?5outer?5record?5type?5is?5unknown@ 000000014007d99c     TlsOuterRec-2f5f15.o
 0002:0001b9be       ??_C@_0BN@FAAJCAJO@Outer?5Record?5length?5is?5zero?4?$AA@ 000000014007d9be     TlsOuterRec-2f5f15.o
 0002:0001b9db       ??_C@_0CA@CHGCFCAJ@Outer?5Record?5length?5is?5too?5big?4?$AA@ 000000014007d9db     TlsOuterRec-2f5f15.o
 0002:0001b9fb       ??_C@_0BG@PABIKBGL@Outer?5Record?5length?3?5?$AA@ 000000014007d9fb     TlsOuterRec-2f5f15.o
 0002:0001ba11       ??_C@_0CD@HJGIJOPD@Outer?5Rec?5is?5complete?5for?5length@ 000000014007da11     TlsOuterRec-2f5f15.o
 0002:0001ba34       ??_C@_0CM@PECFHIEG@TlsOuterRec?5Handshake?5msgLength?5@ 000000014007da34     TlsOuterRec-2f5f15.o
 0002:0001ba60       ??_C@_0O@FFDIKPCP@outBuf?5last?3?5?$AA@ 000000014007da60     TlsOuterRec-2f5f15.o
 0002:0001ba6e       ??_C@_0CK@GMBOMAGO@TlsOuterRec?5appdata?5msgLength?5?$DO?5@ 000000014007da6e     TlsOuterRec-2f5f15.o
 0002:0001baa0       __xmm@000000ff000000ff000000ff000000ff 000000014007daa0     Aes-9fcd55.o
 0002:0001bab0       __xmm@40404040101010101010101010101010 000000014007dab0     Aes-9fcd55.o
 0002:0001bac0       __xmm@00000000000000004040404040404040 000000014007dac0     Aes-9fcd55.o
 0002:0001bad0       __xmm@ffffffff000000000000000000000000 000000014007dad0     Aes-9fcd55.o
 0002:0001bae0       __xmm@00000000000000000000000002020202 000000014007dae0     Aes-9fcd55.o
 0002:0001baf0       __xmm@00000000000000000000000004040404 000000014007daf0     Aes-9fcd55.o
 0002:0001bb00       __xmm@00000000000000000000000008080808 000000014007db00     Aes-9fcd55.o
 0002:0001bb10       __xmm@00000000000000000000000001010101 000000014007db10     Aes-9fcd55.o
 0002:0001bb20       __xmm@00000000000000000000000020202020 000000014007db20     Aes-9fcd55.o
 0002:0001bb30       __xmm@00000000000000000000000060606060 000000014007db30     Aes-9fcd55.o
 0002:0001bb40       __xmm@ffffffffffffffffffffff00ffffffff 000000014007db40     Aes-9fcd55.o
 0002:0001bb50       __xmm@ffffffffffffffffffff00ffffffffff 000000014007db50     Aes-9fcd55.o
 0002:0001bb60       __xmm@ffffffffffffffffff00ffffffffffff 000000014007db60     Aes-9fcd55.o
 0002:0001bb70       __xmm@ffffffffffffffff00ffffffffffffff 000000014007db70     Aes-9fcd55.o
 0002:0001bb80       __xmm@00000000000000000101010101010101 000000014007db80     Aes-9fcd55.o
 0002:0001bb90       __xmm@00000000000000000202020202020202 000000014007db90     Aes-9fcd55.o
 0002:0001bba0       __xmm@10101010040404040404040404040404 000000014007dba0     Aes-9fcd55.o
 0002:0001bbb0       __xmm@20202020080808080808080808080808 000000014007dbb0     Aes-9fcd55.o
 0002:0001bbc0       __xmm@00000000000000002020202020202020 000000014007dbc0     Aes-9fcd55.o
 0002:0001bbd0       __xmm@00000000000000006060606060606060 000000014007dbd0     Aes-9fcd55.o
 0002:0001bbe0       __xmm@0c0c0c0c030303030303030303030303 000000014007dbe0     Aes-9fcd55.o
 0002:0001bbf0       __xmm@18181818060606060606060606060606 000000014007dbf0     Aes-9fcd55.o
 0002:0001bc00       __xmm@303030300c0c0c0c0c0c0c0c0c0c0c0c 000000014007dc00     Aes-9fcd55.o
 0002:0001bc10       __xmm@60606060181818181818181818181818 000000014007dc10     Aes-9fcd55.o
 0002:0001bc20       __xmm@c0c0c0c0303030303030303030303030 000000014007dc20     Aes-9fcd55.o
 0002:0001bc30       __xmm@06060606060606060606060606060606 000000014007dc30     Aes-9fcd55.o
 0002:0001bc40       __xmm@00000000000000000000000040404040 000000014007dc40     Aes-9fcd55.o
 0002:0001bc50       __xmm@00000000c0c0c0c0c0c0c0c0c0c0c0c0 000000014007dc50     Aes-9fcd55.o
 0002:0001bc60       __xmm@1b1b1b1b000000000000000000000000 000000014007dc60     Aes-9fcd55.o
 0002:0001bc70       __xmm@00ff00ff00ff00ff00ff00ff00ff00ff 000000014007dc70     Aes-9fcd55.o
 0002:0001bc80       __xmm@80808080808080808080808080808080 000000014007dc80     Aes-9fcd55.o
 0002:0001bc90       __xmm@00000000000000001b1b1b1b1b1b1b1b 000000014007dc90     Aes-9fcd55.o
 0002:0001bca0       __xmm@00000000000000009b9b9b9b1b1b1b1b 000000014007dca0     Aes-9fcd55.o
 0002:0001bcb0       __xmm@06060606000000000000000000000000 000000014007dcb0     Aes-9fcd55.o
 0002:0001bcc0       __xmm@000000009b9b9b9b9b9b9b9b9b9b9b9b 000000014007dcc0     Aes-9fcd55.o
 0002:0001bcd0       __xmm@03030303030303030303030303030303 000000014007dcd0     Aes-9fcd55.o
 0002:0001bce0       __xmm@00000000000000000000000000000000 000000014007dce0     Aes-9fcd55.o
 0002:0001bcf0       ??_C@_0P@EIOBCDCO@PlainText?5set?4?$AA@ 000000014007dcf0     Aes-9fcd55.o
 0002:0001bcff       ??_C@_08EJBDBMBE@Key?5set?4?$AA@ 000000014007dcff     Aes-9fcd55.o
 0002:0001bd08       ??_C@_0CH@ECKDIJGL@AesKeySched?4getWord?$CI?$CJ?5range?5for?5@ 000000014007dd08     Aes-9fcd55.o
 0002:0001bd30       ?SBox@AesSBox@@0QBEB       000000014007dd30     Aes-9fcd55.o
 0002:0001be30       ??_C@_0CD@BDPJEGBA@AesState?5moveCharBufToState?5rang@ 000000014007de30     Aes-9fcd55.o
 0002:0001bea0       __xmm@00000005000000040000000300000002 000000014007dea0     AesGalois-eee68e.o
 0002:0001beb0       __xmm@00000009000000080000000700000006 000000014007deb0     AesGalois-eee68e.o
 0002:0001bec0       __xmm@0000000d0000000c0000000b0000000a 000000014007dec0     AesGalois-eee68e.o
 0002:0001bed0       ??_C@_0BO@NCPIOMCL@AesGalois?5encrypt?5test?5start?4?$AA@ 000000014007ded0     AesGalois-eee68e.o
 0002:0001beee       ??_C@_0BA@IHJIHGOP@This?5is?5the?5IV?4?$AA@ 000000014007deee     AesGalois-eee68e.o
 0002:0001befe       ??_C@_0BN@EFMKOEJP@This?5is?5the?5additional?5data?4?$AA@ 000000014007defe     AesGalois-eee68e.o
 0002:0001bf1b       ??_C@_0BI@MGEGCDID@This?5is?5the?5plain?5text?4?$AA@ 000000014007df1b     AesGalois-eee68e.o
 0002:0001bf33       ??_C@_09HHNLJFPE@plainBuf?3?$AA@ 000000014007df33     AesGalois-eee68e.o
 0002:0001bf3d       ??_C@_0BA@NIDDBGDM@Before?5encrypt?4?$AA@ 000000014007df3d     AesGalois-eee68e.o
 0002:0001bf4d       ??_C@_0BA@JCCCBOCJ@Before?5decrypt?4?$AA@ 000000014007df4d     AesGalois-eee68e.o
 0002:0001bf5d       ??_C@_0L@JBBNGCFB@plainBuf2?3?$AA@ 000000014007df5d     AesGalois-eee68e.o
 0002:0001bf68       ??_C@_0BJ@EJIIALAC@AesGalois?5test?5finished?4?$AA@ 000000014007df68     AesGalois-eee68e.o
 0002:0001bf81       ??_C@_0CH@EMHJKALB@Set?5key?5before?5calling?5makeHashS@ 000000014007df81     AesGalois-eee68e.o
 0002:0001bfa8       ??_C@_0CB@MFCNPJEE@byteCount?5has?5to?5be?5zero?5mod?516?4@ 000000014007dfa8     AesGalois-eee68e.o
 0002:0001bfc9       ??_C@_0BH@GALPEGPI@gHash?$CI?$CJ?5byteCount?5?$DM?516?$AA@ 000000014007dfc9     AesGalois-eee68e.o
 0002:0001bfe0       ??_C@_0CJ@NJBFINBD@gHash?$CI?$CJ?5byteCount?5has?5to?5be?5zero@ 000000014007dfe0     AesGalois-eee68e.o
 0002:0001c009       ??_C@_0BJ@FKPGEMJA@Auth?5tags?5are?5not?5equal?4?$AA@ 000000014007e009     AesGalois-eee68e.o
 0002:0001c022       ??_C@_0CA@OHLEBMG@Auth?5tags?5are?5equal?5in?5decrypt?4?$AA@ 000000014007e022     AesGalois-eee68e.o
 0002:0001c042       ??_C@_0CB@CJKNKKGF@Aes?5key?5size?5has?5to?5be?516?5or?532?4@ 000000014007e042     AesKeySched-e19566.o
 0002:0001c063       ??_C@_0BL@LBNOEBFJ@Aes?5keySize?5doesn?8t?5match?4?$AA@ 000000014007e063     AesKeySched-e19566.o
 0002:0001c07e       ??_C@_0CF@LDDPIALE@AesKey?4getKeyByte?$CI?$CJ?5range?5for?5wh@ 000000014007e07e     AesKeySched-e19566.o
 0002:0001c0a3       ??_C@_0CH@HNJGEJHL@AesKeySched?4setWord?$CI?$CJ?5range?5for?5@ 000000014007e0a3     AesKeySched-e19566.o
 0002:0001c0ca       ??_C@_0CA@HHBNCNBM@AesRCon?4getV?$CI?$CJ?5range?5for?5where?4?$AA@ 000000014007e0ca     AesKeySched-e19566.o
 0002:0001c0ea       ?RCon@AesRCon@@0QBEB       000000014007e0ea     AesKeySched-e19566.o
 0002:0001c0f5       ??_C@_0CF@DCFADAJG@AesKey?4setKeyByte?$CI?$CJ?5range?5for?5wh@ 000000014007e0f5     AesKeySched-e19566.o
 0002:0001c120       __real@3fe8000000000000    000000014007e120     Base64-ae634d.o
 0002:0001c128       __real@3ff5555555555555    000000014007e128     Base64-ae634d.o
 0002:0001c130       ??_C@_0BP@HHDEAAP@Bad?5characters?5in?5codeToBytes?4?$AA@ 000000014007e130     Base64-ae634d.o
 0002:0001c14f       ??_C@_0BG@OBBMBCJB@Starting?5Base64?5test?4?$AA@ 000000014007e14f     Base64-ae634d.o
 0002:0001c165       ??_C@_0BH@FECFEGMD@?2ABackups?2TestGMap?4zip?$AA@ 000000014007e165     Base64-ae634d.o
 0002:0001c17c       ??_C@_0O@GFOABALN@Test?5is?5good?4?$AA@ 000000014007e17c     Base64-ae634d.o
 0002:0001c18a       ??_C@_0N@KCODMGLK@Test?5is?5bad?4?$AA@ 000000014007e18a     Base64-ae634d.o
 0002:0001c197       ??_C@_0BL@BOHJEGAO@?2ABackups?2TestGMapTest?4zip?$AA@ 000000014007e197     Base64-ae634d.o
 0002:0001c1b2       ??_C@_0CA@OOOIMDI@BoolArray?4setVal?$CI?$CJ?5where?5range?4?$AA@ 000000014007e1b2     Base64-ae634d.o
 0002:0001c1d2       ??_C@_0CA@PLLIFFHJ@BoolArray?4getVal?$CI?$CJ?5where?5range?4?$AA@ 000000014007e1d2     Base64-ae634d.o
 0002:0001c1f2       ??_C@_0CG@HOJAOOPB@Euclid?4GCD?5with?5a?5param?5that?5is?5@ 000000014007e1f2     Euclid-4b5e91.o
 0002:0001c218       ??_C@_0CD@NPFBOPMB@Euclid?4multInverse?5knownX?5is?5zer@ 000000014007e218     Euclid-4b5e91.o
 0002:0001c23b       ??_C@_0CB@KLGLPIGD@Euclid?4multInverse?5modulus?5zero?4@ 000000014007e23b     Euclid-4b5e91.o
 0002:0001c25c       ??_C@_0CA@GBMPFFMH@Euclid?5U2?5modulus?5was?5negative?4?$AA@ 000000014007e25c     Euclid-4b5e91.o
 0002:0001c27c       ??_C@_0BI@JDBIMPJD@Euclid?5V2?5was?5negative?4?$AA@ 000000014007e27c     Euclid-4b5e91.o
 0002:0001c294       ??_C@_0BO@CIMOJEAA@Euclid?5multInverse?$CI?$CJ?5is?5bad?4?6?$AA@ 000000014007e294     Euclid-4b5e91.o
 0002:0001d888       ??_C@_0BM@FFLGIBCA@?$CJ?5Did?5not?5pass?5Fermat?5test?4?$AA@ 000000014007f888     Fermat-87405a.o
 0002:0001d8a4       ??_C@_0BG@LOFHLJHG@Got?5a?5probable?5prime?4?$AA@ 000000014007f8a4     Fermat-87405a.o
 0002:0001d8ba       ??_C@_0BP@LEMPGEAF@Fermat?4makeAPrime?5End?5of?5loop?4?$AA@ 000000014007f8ba     Fermat-87405a.o
 0002:0001eeb0       __xmm@00000000000000008ba36db7aaabcccd 0000000140080eb0     FindFacSm-eb81d6.o
 0002:0001eec0       __xmm@00000000000000001745249255553333 0000000140080ec0     FindFacSm-eb81d6.o
 0002:0001eed0       ??_C@_0BG@LJNAFDFP@howMany?5?$CB?$DN?5phi?5for?513?$AA@ 0000000140080ed0     FindFacSm-eb81d6.o
 0002:0001eee6       ??_C@_0BK@NBDEJPOP@howMany?5?$CB?$DN?5phi?5for?5big?519?$AA@ 0000000140080ee6     FindFacSm-eb81d6.o
 0002:0001ef00       ??_C@_0BP@CFHFJCLC@Int32Array?4setVal?5where?5range?4?$AA@ 0000000140080f00     FindFacSm-eb81d6.o
 0002:0001ef1f       ??_C@_0BK@DHKHMNII@No?5more?5small?964?5factors?4?$AA@ 0000000140080f1f     MakePrime-db421e.o
 0002:0001ef39       ??_C@_0BK@CEPGHHJG@Removing?5small?964?5factor?3?$AA@ 0000000140080f39     MakePrime-db421e.o
 0002:0001ef53       ??_C@_0BN@KJDOEBOH@P?5?9?51?5had?5all?5small?5factors?4?$AA@ 0000000140080f53     MakePrime-db421e.o
 0002:00020540       ??_C@_0BG@DEIFNGAP@tempAdd?5not?5on?5curve?4?$AA@ 0000000140082540     MCurve-538f45.o
 0002:00020556       ??_C@_0BH@MCCPFGPA@toDouble?5not?5on?5curve?4?$AA@ 0000000140082556     MCurve-538f45.o
 0002:0002056d       ??_C@_0BF@OIBDFKPE@montLadder1?5U?4isZero?$AA@ 000000014008256d     MCurve-538f45.o
 0002:00020582       ??_C@_0BF@OOAEBLE@montLadder1?5k?4isZero?$AA@ 0000000140082582     MCurve-538f45.o
 0002:00020597       ??_C@_0CH@CGKGHBGC@montLadder1?5?$CBresult2?4isEqual?$CI?5re@ 0000000140082597     MCurve-538f45.o
 0002:000205be       ??_C@_0CB@GMLCMBIP@Exception?5in?5MCurve?3?3montLadder1@ 00000001400825be     MCurve-538f45.o
 0002:000205df       ??_C@_0BP@MEAGAFNK@An?5unknown?5exception?5happened?4?$AA@ 00000001400825df     MCurve-538f45.o
 0002:000205fe       ??_C@_0BF@NMKOHEJA@curve25519?5prime?5is?3?$AA@ 00000001400825fe     MCurve-538f45.o
 0002:00020613       ??_C@_0EO@HPFEOOJI@57896044618658097711785492504343@ 0000000140082613     MCurve-538f45.o
 0002:00020661       ??_C@_0BE@OKAAJDO@Prime?5is?5not?5right?4?$AA@ 0000000140082661     MCurve-538f45.o
 0002:00020675       ??_C@_0BM@KPIAIJEJ@make32Bytes?5prime?5is?5equal?4?$AA@ 0000000140082675     MCurve-538f45.o
 0002:00020691       ??_C@_0BC@OFFELKBF@tempU?5is?5?$DO?5prime?3?$AA@ 0000000140082691     MCurve-538f45.o
 0002:000206a3       ??_C@_0CF@OHHGAPF@This?5can?8t?5happen?5with?5max?5too?5l@ 00000001400826a3     MCurve-538f45.o
 0002:00021c98       ??_C@_0BM@ODLLLIEB@Not?5conjugate?4?5It?5is?5equal?4?$AA@ 0000000140083c98     MPoint-bbd93d.o
 0002:00021cb4       ??_C@_0CC@IMCOEIJK@Can?8t?5happen?4?5Point?5not?5on?5curve@ 0000000140083cb4     MPoint-bbd93d.o
 0002:00021cd6       ??_C@_0CC@CHFCACAD@Can?8t?5happen?4?5?$CBp?4isConjugate?$CI?5q?5@ 0000000140083cd6     MPoint-bbd93d.o
 0002:000232d0       __xmm@00000008000000100000000900000004 00000001400852d0     QuadRes-65cbe1.o
 0002:000232e0       __xmm@00000006000000100000000900000004 00000001400852e0     QuadRes-65cbe1.o
 0002:000232f0       __xmm@0000000800000012000000030000000d 00000001400852f0     QuadRes-65cbe1.o
 0002:00023300       __xmm@00000002000000100000000900000004 0000000140085300     QuadRes-65cbe1.o
 0002:00023310       __xmm@00000017000000060000001400000007 0000000140085310     QuadRes-65cbe1.o
 0002:00023320       __xmm@00000019000000100000000900000004 0000000140085320     QuadRes-65cbe1.o
 0002:00023330       ??_C@_0BF@JLFLMIHI@QuadRes?5constructor?4?$AA@ 0000000140085330     QuadRes-65cbe1.o
 0002:00023345       ??_C@_0BO@MHAEBMFC@Copy?5constructor?5for?5QuadRes?4?$AA@ 0000000140085345     QuadRes-65cbe1.o
 0002:00023363       ??_C@_0BA@FHCBKJIL@QuadRes?4init?$CI?$CJ?4?$AA@ 0000000140085363     QuadRes-65cbe1.o
 0002:00023373       ??_C@_0BH@FKJHCPCN@End?5of?5QuadRes?4init?$CI?$CJ?4?$AA@ 0000000140085373     QuadRes-65cbe1.o
 0002:0002338a       ??_C@_0BK@NJGCDDEA@BoolArray?5array?5size?5?$DM?51?4?$AA@ 000000014008538a     QuadRes-65cbe1.o
 0002:000233b0       __xmm@80000000800000008000000080000000 00000001400853b0     Randomish-40248b.o
 0002:000233c0       __xmm@7ffffffe7ffffffe7ffffffe7ffffffe 00000001400853c0     Randomish-40248b.o
 0002:000233d0       __xmm@9908b0df9908b0df9908b0df9908b0df 00000001400853d0     Randomish-40248b.o
 0002:000233e0       ??_C@_07EGMOGKJC@primeP?3?$AA@ 00000001400853e0     Rsa-1b4059.o
 0002:000233e8       ??_C@_07EHAMAAKF@primeQ?3?$AA@ 00000001400853e8     Rsa-1b4059.o
 0002:000233f0       ??_C@_0BC@INFNPDKM@isGoodPair?5false?4?$AA@ 00000001400853f0     Rsa-1b4059.o
 0002:00023402       ??_C@_0BD@KCNNIKBO@?$CBsetPrivateKeys?$CI?$CJ?4?$AA@ 0000000140085402     Rsa-1b4059.o
 0002:00023415       ??_C@_0BE@FOFHEDAB@?$CBtestEncryption?$CI?$CJ?4?6?$AA@ 0000000140085415     Rsa-1b4059.o
 0002:00023429       ??_C@_0BK@OHICCBII@FindFacSm?5found?5testFac?3?5?$AA@ 0000000140085429     Rsa-1b4059.o
 0002:00023443       ??_C@_0CE@GNCIKNEO@GarnerCrt?4toInteger?$CI?$CJ?5test?5was?5b@ 0000000140085443     Rsa-1b4059.o
 0002:00023467       ??_C@_0BP@BKAGFAMI@Crt3?4toInteger?$CI?$CJ?5test?5was?5bad?4?$AA@ 0000000140085467     Rsa-1b4059.o
 0002:00023486       ??_C@_0BD@GOGFEKNJ@Finished?5makeKeys?4?$AA@ 0000000140085486     Rsa-1b4059.o
 0002:00023499       ??_C@_0BP@GBNAOCED@Rsa?5multInverse?5was?5false?4?5?$CI1?$CJ?$AA@ 0000000140085499     Rsa-1b4059.o
 0002:000234b8       ??_C@_0BP@GDJGFMBK@Rsa?5multInverse?5was?5false?4?5?$CI2?$CJ?$AA@ 00000001400854b8     Rsa-1b4059.o
 0002:000234d7       ??_C@_0CA@OIFLPEAN@Rsa?5Bad?5privKInverseExponentDP?4?$AA@ 00000001400854d7     Rsa-1b4059.o
 0002:000234f7       ??_C@_0BP@GCFEDGCN@Rsa?5multInverse?5was?5false?4?5?$CI3?$CJ?$AA@ 00000001400854f7     Rsa-1b4059.o
 0002:00023516       ??_C@_0BN@FEPIMDEF@Bad?5privKInverseExponentDQ?4?6?$AA@ 0000000140085516     Rsa-1b4059.o
 0002:00023533       ??_C@_0BE@GMIDMNHA@testEncryption?5top?4?$AA@ 0000000140085533     Rsa-1b4059.o
 0002:00023547       ??_C@_0P@EEALOIPD@testIndex?5?$DM?50?4?$AA@ 0000000140085547     Rsa-1b4059.o
 0002:00023556       ??_C@_0CG@CJIJNGCG@Error?5making?5toEncrypt?5random?5nu@ 0000000140085556     Rsa-1b4059.o
 0002:0002357c       ??_C@_0BM@KIMDLKJG@PlainTextNumber?5not?5equal?4?6?$AA@ 000000014008557c     Rsa-1b4059.o
 0002:00023598       ??_C@_0BN@NPLEDJHM@Garner?5test?51?5was?5not?5right?4?$AA@ 0000000140085598     Rsa-1b4059.o
 0002:000235b5       ??_C@_0BN@IMCOGCPI@Garner?5test?52?5was?5not?5right?4?$AA@ 00000001400855b5     Rsa-1b4059.o
 0002:00024ba8       ??_C@_0BB@CHEMHFII@Top?5of?5RSA?5test?4?$AA@ 0000000140086ba8     RsaTest-5dc46d.o
 0002:00024bb9       ??_C@_0BF@CNFKEMLI@Before?5RSA?5makeKeys?4?$AA@ 0000000140086bb9     RsaTest-5dc46d.o
 0002:00024bce       ??_C@_09OAIGABEM@Seconds?3?5?$AA@ 0000000140086bce     RsaTest-5dc46d.o
 0002:00024bd8       ??_C@_0P@GLEEPBPB@Finished?5test?4?$AA@ 0000000140086bd8     RsaTest-5dc46d.o
 0002:000261b8       ??_C@_0CE@PIPPMGMK@SHA?5padding?5finalSize?5is?5not?5rig@ 00000001400881b8     Sha256-24ff28.o
 0002:000261dc       ??_C@_0CB@GDLGOEKO@processAllBlocks?5?$CImax?5?$CF?564?$CJ?5?$CB?$DN?50@ 00000001400881dc     Sha256-24ff28.o
 0002:000261fd       ??_C@_0CC@NADLONDP@Sha256?4processMessageBlock?$CI?5last@ 00000001400881fd     Sha256-24ff28.o
 0002:00026220       ?K@Sha256@@0QBIB           0000000140088220     Sha256-24ff28.o
 0002:00026320       ??_C@_0BL@LBPJKOBL@Inner?5key?5padding?5was?5bad?4?$AA@ 0000000140088320     Sha256-24ff28.o
 0002:0002633b       ??_C@_0BO@KGFIDHCK@The?5hash?5length?5is?5not?5right?4?$AA@ 000000014008833b     Sha256-24ff28.o
 0002:00026359       ??_C@_0BM@DGAAIGKP@Uint32Array?4setVal?$CI?$CJ?5range?4?$AA@ 0000000140088359     Sha256-24ff28.o
 0002:00026375       ??_C@_0BM@EBGPELG@Uint32Array?4getVal?$CI?$CJ?5range?4?$AA@ 0000000140088375     Sha256-24ff28.o
 0002:000263d4       ??_C@_0CC@HCMLNLEH@SPrimes?4getFirstFactor?5Max?5range@ 00000001400883d4     SPrimes-cd9ebe.o
 0002:000263f6       ??_C@_0BF@DPOALLE@SPrimes?4makeArray?$CI?$CJ?4?$AA@ 00000001400883f6     SPrimes-cd9ebe.o
 0002:0002640b       ??_C@_0BM@OINGAJ@Crt3?4toInteger?5digit?5range?4?$AA@ 000000014008840b     Crt3-a2e725.o
 0002:000279f8       ??_C@_0BP@LOFKIOBM@CrtMath?4getCrtDigit?5row?5range?4?$AA@ 00000001400899f8     Crt3-a2e725.o
 0002:00027a17       ??_C@_0BP@PPLHEJLL@CrtMath?4getCrtDigit?5col?5range?4?$AA@ 0000000140089a17     Crt3-a2e725.o
 0002:00027a36       ??_C@_0CA@LNEHHFFJ@Crt3?3?3setFromCrtAt?5where?5range?4?$AA@ 0000000140089a36     Crt3-a2e725.o
 0002:00027a56       ??_C@_0BA@GABOPAAC@CrtMath?5init?$CI?$CJ?4?$AA@ 0000000140089a56     CrtMath-8b8978.o
 0002:00029038       ??_C@_0CD@BCFEFKGF@MultInverse?$CI?$CJ?5false?5with?5Garner?5@ 000000014008b038     Garner-e5c102.o
 0002:0002905b       ??_C@_0CD@BABCOEDM@MultInverse?$CI?$CJ?5false?5with?5Garner?5@ 000000014008b05b     Garner-e5c102.o
 0002:0002907e       ??_C@_0BP@FEGMGBM@MultInverse?$CI?$CJ?5false?5with?5qInv?4?$AA@ 000000014008b07e     Garner-e5c102.o
 0002:0002909d       ??_C@_0BL@HHGBJILK@Garner?3?3testCrt?$CI?$CJ?5was?5bad?4?$AA@ 000000014008b09d     Garner-e5c102.o
 0002:0002a688       ??_C@_0BM@CBLANJNP@GarnerCrt?4setupConstants?$CI?$CJ?4?$AA@ 000000014008c688     GarnerCrt-d733a2.o
 0002:0002a6a4       ??_C@_02GFBIKAOH@m?3?$AA@  000000014008c6a4     GarnerCrt-d733a2.o
 0002:0002a6a7       ??_C@_0BJ@MALCFLAG@GarnerCrt?4setupConstants?$AA@ 000000014008c6a7     GarnerCrt-d733a2.o
 0002:0002a6c0       ??_C@_0CG@KNODPJIP@MultInverse?$CI?$CJ?5false?5with?5GarnerC@ 000000014008c6c0     GarnerCrt-d733a2.o
 0002:0002a6e6       ??_C@_0BH@KPJMPLII@GarnerCrt?4toInteger?$CI?$CJ?4?$AA@ 000000014008c6e6     GarnerCrt-d733a2.o
 0002:0002bcd0       ??_C@_0BD@FBFKJMDF@GoodX?5constructor?4?$AA@ 000000014008dcd0     GoodX-3a7b51.o
 0002:0002bce3       ??_C@_0BM@KMHHIFLP@Copy?5constructor?5for?5GoodX?4?$AA@ 000000014008dce3     GoodX-3a7b51.o
 0002:0002bcff       ??_C@_0O@NPNDOBJJ@GoodX?5init?$CI?$CJ?4?$AA@ 000000014008dcff     GoodX-3a7b51.o
 0002:0002bd0d       ??_C@_0BF@DFLLADCP@MultInv?5constructor?4?$AA@ 000000014008dd0d     MultInv-eb6499.o
 0002:0002bd22       ??_C@_0BO@CJALCNBF@Copy?5constructor?5for?5MultInv?4?$AA@ 000000014008dd22     MultInv-eb6499.o
 0002:0002bd40       ??_C@_0BH@OGIOCMNM@getInv?5knownX?5is?5zero?4?$AA@ 000000014008dd40     MultInv-eb6499.o
 0002:0002bd57       ??_C@_0CC@EIEJGNGP@getInv?5with?5modulus?5that?5is?5zero@ 000000014008dd57     MultInv-eb6499.o
 0002:0002bd79       ??_C@_0BP@IIPBHPHB@getInv?5with?5modulus?5?$DM?$DN?5knownX?4?$AA@ 000000014008dd79     MultInv-eb6499.o
 0002:0002bd98       ??_C@_0CI@MCPNCCPH@getInv?5The?5initialModulus?5was?5ne@ 000000014008dd98     MultInv-eb6499.o
 0002:0002bdc0       ??_C@_0CD@FFCILGCJ@getInv?5initialKnownX?5was?5negativ@ 000000014008ddc0     MultInv-eb6499.o
 0002:0002bde3       ??_C@_0BC@NPMGDHHE@getInv?$CI?$CJ?5is?5bad?4?6?$AA@ 000000014008dde3     MultInv-eb6499.o
 0002:0002bdf5       ??_C@_0BN@LOAFPCKB@Floating?5point?5error?5signal?4?$AA@ 000000014008ddf5     Signals-709666.o
 0002:0002be12       ??_C@_0BN@MBCDCGAP@This?5is?5not?5going?5to?5happen?4?$AA@ 000000014008de12     Signals-709666.o
 0002:0002be2f       ??_C@_0BH@JOOEDPNK@Got?5illegal?5op?5signal?4?$AA@ 000000014008de2f     Signals-709666.o
 0002:0002be46       ??_C@_0BH@NDKKOGA@Got?5bad?5memory?5signal?4?$AA@ 000000014008de46     Signals-709666.o
 0002:0002be5d       ??_C@_0CG@LKBJFCNF@Error?5setting?5the?5Fpe?5signal?5han@ 000000014008de5d     Signals-709666.o
 0002:0002be83       ??_C@_0CM@ELHLGCHK@Error?5setting?5the?5Control?5C?5sign@ 000000014008de83     Signals-709666.o
 0002:0002beaf       ??_C@_0CN@LPBIAJIL@Error?5setting?5the?5illegal?5op?5sig@ 000000014008deaf     Signals-709666.o
 0002:0002bedc       ??_C@_0CK@BBABBOC@Error?5setting?5the?5bad?5mem?5signal@ 000000014008dedc     Signals-709666.o
 0002:0002bf06       ??_C@_0BI@IJKEMLLD@Error?5with?5time?5set?5up?4?$AA@ 000000014008df06     TimeApiWin-5d41be.o
 0002:0002bf1e       ??_C@_01JLIPDDHJ@?3?$AA@   000000014008df1e     TimeApiWin-5d41be.o
 0002:0002bf20       ??_C@_01GBGANLPD@0?$AA@    000000014008df20     TimeApiWin-5d41be.o
 0002:0002bf30       ??_7type_info@@6B@         000000014008df30     libcmt:std_type_info_static.obj
 0002:0002bf40       __xmm@ffffffffffffffffffffffffffffffff 000000014008df40     libcmt:utility.obj
 0002:0002bf50       ??_C@_0P@GHFPNOJB@bad?5allocation@ 000000014008df50     libcmt:throw_bad_alloc.obj
 0002:0002bf60       ??_C@_0BF@KINCDENJ@bad?5array?5new?5length@ 000000014008df60     libcmt:throw_bad_alloc.obj
 0002:0002bf78       ?_BADOFF@std@@3_JB         000000014008df78     libcpmt:ios.obj
 0002:0002bf88       ??_7_Locimp@locale@std@@6B@ 000000014008df88     libcpmt:locale0.obj
 0002:0002bfa0       ??_C@_01NBENCBCI@?$CK@     000000014008dfa0     libcpmt:locale0.obj
 0002:0002bfa4       ??_C@_01GFHCPBMG@C@        000000014008dfa4     libcpmt:locale0.obj
 0002:0002bfa6       ??_C@_00CNPNBAHC@@         000000014008dfa6     libcpmt:locale0.obj
 0002:0002bfb0       ??_7logic_error@std@@6B@   000000014008dfb0     libcpmt:xthrow.obj
 0002:0002bfc8       ??_7length_error@std@@6B@  000000014008dfc8     libcpmt:xthrow.obj
 0002:0002bfe0       ??_7out_of_range@std@@6B@  000000014008dfe0     libcpmt:xthrow.obj
 0002:0002c098       ??_C@_01KDCPPGHE@r@        000000014008e098     libcpmt:fiopen.obj
 0002:0002c09c       ??_C@_01NOFIACDB@w@        000000014008e09c     libcpmt:fiopen.obj
 0002:0002c0a0       ??_C@_01MCMALHOG@a@        000000014008e0a0     libcpmt:fiopen.obj
 0002:0002c0a4       ??_C@_02JDPG@rb@           000000014008e0a4     libcpmt:fiopen.obj
 0002:0002c0a8       ??_C@_02GMLFBBN@wb@        000000014008e0a8     libcpmt:fiopen.obj
 0002:0002c0ac       ??_C@_02BOGAIONP@ab@       000000014008e0ac     libcpmt:fiopen.obj
 0002:0002c0b0       ??_C@_02CBLLGHLK@r?$CL@    000000014008e0b0     libcpmt:fiopen.obj
 0002:0002c0b4       ??_C@_02CHHAKFFB@w?$CL@    000000014008e0b4     libcpmt:fiopen.obj
 0002:0002c0b8       ??_C@_02DPNLHKJD@a?$CL@    000000014008e0b8     libcpmt:fiopen.obj
 0002:0002c0bc       ??_C@_03HMFOOINA@r?$CLb@   000000014008e0bc     libcpmt:fiopen.obj
 0002:0002c0c0       ??_C@_03ELIABIOC@w?$CLb@   000000014008e0c0     libcpmt:fiopen.obj
 0002:0002c0c4       ??_C@_03DOPCBAKB@a?$CLb@   000000014008e0c4     libcpmt:fiopen.obj
 0002:0002c0c8       ??_C@_02LGOGKLMG@wx@       000000014008e0c8     libcpmt:fiopen.obj
 0002:0002c0cc       ??_C@_03PLKNOCDJ@w?$CLx@   000000014008e0cc     libcpmt:fiopen.obj
 0002:0002c0d0       ??_C@_03IEOGFEHG@wbx@      000000014008e0d0     libcpmt:fiopen.obj
 0002:0002c0d4       ??_C@_04KJKJPALC@w?$CLbx@  000000014008e0d4     libcpmt:fiopen.obj
 0002:0002c870       ??_C@_07IPNMCAN@success@   000000014008e870     libcpmt:syserror.obj
 0002:0002c878       ??_C@_0BN@LKKBCCDB@address?5family?5not?5supported@ 000000014008e878     libcpmt:syserror.obj
 0002:0002c898       ??_C@_0P@LDMLAFHI@address?5in?5use@ 000000014008e898     libcpmt:syserror.obj
 0002:0002c8a8       ??_C@_0BG@DHPCNBJB@address?5not?5available@ 000000014008e8a8     libcpmt:syserror.obj
 0002:0002c8c0       ??_C@_0BC@DFIBIBIL@already?5connected@ 000000014008e8c0     libcpmt:syserror.obj
 0002:0002c8d8       ??_C@_0BH@CAKOHOMI@argument?5list?5too?5long@ 000000014008e8d8     libcpmt:syserror.obj
 0002:0002c8f0       ??_C@_0BH@CGIMPKIM@argument?5out?5of?5domain@ 000000014008e8f0     libcpmt:syserror.obj
 0002:0002c908       ??_C@_0M@KGHGGJGL@bad?5address@ 000000014008e908     libcpmt:syserror.obj
 0002:0002c918       ??_C@_0BE@MPJPGCEO@bad?5file?5descriptor@ 000000014008e918     libcpmt:syserror.obj
 0002:0002c930       ??_C@_0M@PMMIEFCP@bad?5message@ 000000014008e930     libcpmt:syserror.obj
 0002:0002c940       ??_C@_0M@KPHOFDBE@broken?5pipe@ 000000014008e940     libcpmt:syserror.obj
 0002:0002c950       ??_C@_0BD@MGNDDEGM@connection?5aborted@ 000000014008e950     libcpmt:syserror.obj
 0002:0002c968       ??_C@_0BP@KAIHPOGN@connection?5already?5in?5progress@ 000000014008e968     libcpmt:syserror.obj
 0002:0002c988       ??_C@_0BD@PJLIIJEL@connection?5refused@ 000000014008e988     libcpmt:syserror.obj
 0002:0002c9a0       ??_C@_0BB@IECNJNOI@connection?5reset@ 000000014008e9a0     libcpmt:syserror.obj
 0002:0002c9b8       ??_C@_0BC@PPHBOELF@cross?5device?5link@ 000000014008e9b8     libcpmt:syserror.obj
 0002:0002c9d0       ??_C@_0BN@KDMIFEIP@destination?5address?5required@ 000000014008e9d0     libcpmt:syserror.obj
 0002:0002c9f0       ??_C@_0BI@NGCEHDD@device?5or?5resource?5busy@ 000000014008e9f0     libcpmt:syserror.obj
 0002:0002ca08       ??_C@_0BE@JIDOCPHM@directory?5not?5empty@ 000000014008ea08     libcpmt:syserror.obj
 0002:0002ca20       ??_C@_0BI@BNCLIGPB@executable?5format?5error@ 000000014008ea20     libcpmt:syserror.obj
 0002:0002ca38       ??_C@_0M@MIDIAGJP@file?5exists@ 000000014008ea38     libcpmt:syserror.obj
 0002:0002ca48       ??_C@_0P@DNAJLBJK@file?5too?5large@ 000000014008ea48     libcpmt:syserror.obj
 0002:0002ca58       ??_C@_0BC@EJHOMAAK@filename?5too?5long@ 000000014008ea58     libcpmt:syserror.obj
 0002:0002ca70       ??_C@_0BH@KEFGLDAF@function?5not?5supported@ 000000014008ea70     libcpmt:syserror.obj
 0002:0002ca88       ??_C@_0BB@DHFDFGDM@host?5unreachable@ 000000014008ea88     libcpmt:syserror.obj
 0002:0002caa0       ??_C@_0BD@JPHBMONG@identifier?5removed@ 000000014008eaa0     libcpmt:syserror.obj
 0002:0002cab8       ??_C@_0BG@CDNPAGJK@illegal?5byte?5sequence@ 000000014008eab8     libcpmt:syserror.obj
 0002:0002cad0       ??_C@_0CD@BNPLBMNA@inappropriate?5io?5control?5operat@ 000000014008ead0     libcpmt:syserror.obj
 0002:0002caf8       ??_C@_0M@EGEKIIMP@interrupted@ 000000014008eaf8     libcpmt:syserror.obj
 0002:0002cb08       ??_C@_0BB@FCMFBGOM@invalid?5argument@ 000000014008eb08     libcpmt:syserror.obj
 0002:0002cb20       ??_C@_0N@OHAFKDEK@invalid?5seek@ 000000014008eb20     libcpmt:syserror.obj
 0002:0002cb30       ??_C@_08GLNPIFBN@io?5error@ 000000014008eb30     libcpmt:syserror.obj
 0002:0002cb40       ??_C@_0P@FLLDBIDK@is?5a?5directory@ 000000014008eb40     libcpmt:syserror.obj
 0002:0002cb50       ??_C@_0N@IFLPBIOP@message?5size@ 000000014008eb50     libcpmt:syserror.obj
 0002:0002cb60       ??_C@_0N@KIIEAAIO@network?5down@ 000000014008eb60     libcpmt:syserror.obj
 0002:0002cb70       ??_C@_0O@FNPDBHEE@network?5reset@ 000000014008eb70     libcpmt:syserror.obj
 0002:0002cb80       ??_C@_0BE@IFNCKGE@network?5unreachable@ 000000014008eb80     libcpmt:syserror.obj
 0002:0002cb98       ??_C@_0BA@PFFCAOFK@no?5buffer?5space@ 000000014008eb98     libcpmt:syserror.obj
 0002:0002cba8       ??_C@_0BB@IEPBLJHK@no?5child?5process@ 000000014008eba8     libcpmt:syserror.obj
 0002:0002cbc0       ??_C@_07PLECNNKG@no?5link@ 000000014008ebc0     libcpmt:syserror.obj
 0002:0002cbc8       ??_C@_0BC@NJECKMKE@no?5lock?5available@ 000000014008ebc8     libcpmt:syserror.obj
 0002:0002cbe0       ??_C@_0BF@PBGGPKKE@no?5message?5available@ 000000014008ebe0     libcpmt:syserror.obj
 0002:0002cbf8       ??_C@_0L@EDOLMPAK@no?5message@ 000000014008ebf8     libcpmt:syserror.obj
 0002:0002cc08       ??_C@_0BD@EAMBFIDF@no?5protocol?5option@ 000000014008ec08     libcpmt:syserror.obj
 0002:0002cc20       ??_C@_0BD@IJDJKDEA@no?5space?5on?5device@ 000000014008ec20     libcpmt:syserror.obj
 0002:0002cc38       ??_C@_0BE@MKFDAFMP@no?5stream?5resources@ 000000014008ec38     libcpmt:syserror.obj
 0002:0002cc50       ??_C@_0BK@IMCPHCBI@no?5such?5device?5or?5address@ 000000014008ec50     libcpmt:syserror.obj
 0002:0002cc70       ??_C@_0P@FDINDDOK@no?5such?5device@ 000000014008ec70     libcpmt:syserror.obj
 0002:0002cc80       ??_C@_0BK@NDOCBPGE@no?5such?5file?5or?5directory@ 000000014008ec80     libcpmt:syserror.obj
 0002:0002cca0       ??_C@_0BA@ENLPPKBN@no?5such?5process@ 000000014008eca0     libcpmt:syserror.obj
 0002:0002ccb0       ??_C@_0BA@DOCPFFJG@not?5a?5directory@ 000000014008ecb0     libcpmt:syserror.obj
 0002:0002ccc0       ??_C@_0N@POEIPGGF@not?5a?5socket@ 000000014008ecc0     libcpmt:syserror.obj
 0002:0002ccd0       ??_C@_0N@LGAPMMPI@not?5a?5stream@ 000000014008ecd0     libcpmt:syserror.obj
 0002:0002cce0       ??_C@_0O@GLMIBBEG@not?5connected@ 000000014008ece0     libcpmt:syserror.obj
 0002:0002ccf0       ??_C@_0BC@ENOOLCNF@not?5enough?5memory@ 000000014008ecf0     libcpmt:syserror.obj
 0002:0002cd08       ??_C@_0O@NHEDABJP@not?5supported@ 000000014008ed08     libcpmt:syserror.obj
 0002:0002cd18       ??_C@_0BD@MOLBPMEA@operation?5canceled@ 000000014008ed18     libcpmt:syserror.obj
 0002:0002cd30       ??_C@_0BG@KDKHOPCO@operation?5in?5progress@ 000000014008ed30     libcpmt:syserror.obj
 0002:0002cd48       ??_C@_0BI@OHIEJAAB@operation?5not?5permitted@ 000000014008ed48     libcpmt:syserror.obj
 0002:0002cd60       ??_C@_0BI@LNEGIFLN@operation?5not?5supported@ 000000014008ed60     libcpmt:syserror.obj
 0002:0002cd78       ??_C@_0BG@OEMDKMEE@operation?5would?5block@ 000000014008ed78     libcpmt:syserror.obj
 0002:0002cd90       ??_C@_0L@BLPOFLNJ@owner?5dead@ 000000014008ed90     libcpmt:syserror.obj
 0002:0002cda0       ??_C@_0BC@CIJDGCDI@permission?5denied@ 000000014008eda0     libcpmt:syserror.obj
 0002:0002cdb8       ??_C@_0P@FNPOCJBE@protocol?5error@ 000000014008edb8     libcpmt:syserror.obj
 0002:0002cdc8       ??_C@_0BH@JPPPLHJB@protocol?5not?5supported@ 000000014008edc8     libcpmt:syserror.obj
 0002:0002cde0       ??_C@_0BG@EICBIHDP@read?5only?5file?5system@ 000000014008ede0     libcpmt:syserror.obj
 0002:0002cdf8       ??_C@_0BO@BJBOMOEJ@resource?5deadlock?5would?5occur@ 000000014008edf8     libcpmt:syserror.obj
 0002:0002ce18       ??_C@_0BP@LKNGHENJ@resource?5unavailable?5try?5again@ 000000014008ee18     libcpmt:syserror.obj
 0002:0002ce38       ??_C@_0BE@GOIPJJHG@result?5out?5of?5range@ 000000014008ee38     libcpmt:syserror.obj
 0002:0002ce50       ??_C@_0BG@MPLKFPAE@state?5not?5recoverable@ 000000014008ee50     libcpmt:syserror.obj
 0002:0002ce68       ??_C@_0P@DIIFGFCG@stream?5timeout@ 000000014008ee68     libcpmt:syserror.obj
 0002:0002ce78       ??_C@_0P@IPFDMIFL@text?5file?5busy@ 000000014008ee78     libcpmt:syserror.obj
 0002:0002ce88       ??_C@_09KJPPMAOI@timed?5out@ 000000014008ee88     libcpmt:syserror.obj
 0002:0002ce98       ??_C@_0BO@HACHBEKI@too?5many?5files?5open?5in?5system@ 000000014008ee98     libcpmt:syserror.obj
 0002:0002ceb8       ??_C@_0BE@GHAFMPAH@too?5many?5files?5open@ 000000014008eeb8     libcpmt:syserror.obj
 0002:0002ced0       ??_C@_0P@HCOMKFCC@too?5many?5links@ 000000014008eed0     libcpmt:syserror.obj
 0002:0002cee0       ??_C@_0BO@EFGOJEF@too?5many?5symbolic?5link?5levels@ 000000014008eee0     libcpmt:syserror.obj
 0002:0002cf00       ??_C@_0BA@KGKGOOJA@value?5too?5large@ 000000014008ef00     libcpmt:syserror.obj
 0002:0002cf10       ??_C@_0BE@MIEJDDNH@wrong?5protocol?5type@ 000000014008ef10     libcpmt:syserror.obj
 0002:0002cf28       ??_C@_0O@BFJCFAAK@unknown?5error@ 000000014008ef28     libcpmt:syserror.obj
 0002:0002cf38       ??_C@_0BM@EEBBMCOD@invalid?5random_device?5value@ 000000014008ef38     libcpmt:xrngdev.obj
 0002:0002d060       ??_C@_1BK@MGMFAEKH@?$AAk?$AAe?$AAr?$AAn?$AAe?$AAl?$AA3?$AA2?$AA?4?$AAd?$AAl?$AAl@ 000000014008f060     libcpmt:winapisupp.obj
 0002:0002d080       ??_C@_0BE@JOGNEJCI@GetCurrentPackageId@ 000000014008f080     libcpmt:winapisupp.obj
 0002:0002d098       ??_C@_0BP@FPNJPEJC@GetSystemTimePreciseAsFileTime@ 000000014008f098     libcpmt:winapisupp.obj
 0002:0002d0b8       ??_C@_0O@NNMIPI@GetTempPath2W@ 000000014008f0b8     libcpmt:winapisupp.obj
 0002:0002d0c8       ??_C@_11LOCGONAA@@         000000014008f0c8     libcpmt:wlocale.obj
 0002:0002d0cc       ??_C@_13IMODFHAA@?$AA?9@   000000014008f0cc     libcpmt:wlocale.obj
 0002:0002d0d0       ??_C@_01JOAMLHOP@?9@       000000014008f0d0     libcpmt:wlocale.obj
 0002:0002d178       ?s_negLengthTab@FH4@@3QBCB 000000014008f178     libvcruntime:risctrnsctrl.obj
 0002:0002d188       ?s_shiftTab@FH4@@3QBEB     000000014008f188     libvcruntime:risctrnsctrl.obj
 0002:0002d2d8       _pDestructExceptionObject  000000014008f2d8     libvcruntime:ehhelpers.obj
 0002:0002d2e8       ??_7bad_exception@std@@6B@ 000000014008f2e8     libvcruntime:frame.obj
 0002:0002d2f8       ??_C@_0O@DPKOEFFH@bad?5exception@ 000000014008f2f8     libvcruntime:frame.obj
 0002:0002da20       ??_C@_08EHJDFFNH@__based?$CI@ 000000014008fa20     libvcruntime:undname.obj
 0002:0002da30       ??_C@_07KOLFKCDI@__cdecl@  000000014008fa30     libvcruntime:undname.obj
 0002:0002da38       ??_C@_08GHMPAG@__pascal@   000000014008fa38     libvcruntime:undname.obj
 0002:0002da48       ??_C@_09IFJBGAPI@__stdcall@ 000000014008fa48     libvcruntime:undname.obj
 0002:0002da58       ??_C@_0L@NPHFGOKO@__thiscall@ 000000014008fa58     libvcruntime:undname.obj
 0002:0002da68       ??_C@_0L@JMKHOMEK@__fastcall@ 000000014008fa68     libvcruntime:undname.obj
 0002:0002da78       ??_C@_0N@BCKKPABJ@__vectorcall@ 000000014008fa78     libvcruntime:undname.obj
 0002:0002da88       ??_C@_09HIJEGCPM@__clrcall@ 000000014008fa88     libvcruntime:undname.obj
 0002:0002da94       ??_C@_06GHPCKEAG@__eabi@   000000014008fa94     libvcruntime:undname.obj
 0002:0002daa0       ??_C@_09IOPIDJLG@__swift_1@ 000000014008faa0     libvcruntime:undname.obj
 0002:0002dab0       ??_C@_09KFNFGKHF@__swift_2@ 000000014008fab0     libvcruntime:undname.obj
 0002:0002dac0       ??_C@_09LMMOFLDE@__swift_3@ 000000014008fac0     libvcruntime:undname.obj
 0002:0002dad0       ??_C@_07JOMMBBKO@__ptr64@  000000014008fad0     libvcruntime:undname.obj
 0002:0002dad8       ??_C@_0L@PILCLIHE@__restrict@ 000000014008fad8     libvcruntime:undname.obj
 0002:0002dae8       ??_C@_0M@GFIIJFMG@__unaligned@ 000000014008fae8     libvcruntime:undname.obj
 0002:0002daf8       ??_C@_09DHDLOLLB@restrict?$CI@ 000000014008faf8     libvcruntime:undname.obj
 0002:0002db04       ??_C@_04NIHEBCM@?5new@     000000014008fb04     libvcruntime:undname.obj
 0002:0002db10       ??_C@_07FPCDHGMM@?5delete@ 000000014008fb10     libvcruntime:undname.obj
 0002:0002db18       ??_C@_01NEMOKFLO@?$DN@     000000014008fb18     libvcruntime:undname.obj
 0002:0002db1c       ??_C@_02GPIOPFAK@?$DO?$DO@ 000000014008fb1c     libvcruntime:undname.obj
 0002:0002db20       ??_C@_02FODMEDOG@?$DM?$DM@ 000000014008fb20     libvcruntime:undname.obj
 0002:0002db24       ??_C@_01DCLJPIOD@?$CB@     000000014008fb24     libvcruntime:undname.obj
 0002:0002db28       ??_C@_02EGOFBIJA@?$DN?$DN@ 000000014008fb28     libvcruntime:undname.obj
 0002:0002db2c       ??_C@_02FDNJECIE@?$CB?$DN@ 000000014008fb2c     libvcruntime:undname.obj
 0002:0002db30       ??_C@_02GPECMEKF@?$FL?$FN@ 000000014008fb30     libvcruntime:undname.obj
 0002:0002db38       ??_C@_08LHJFAFGD@operator@ 000000014008fb38     libvcruntime:undname.obj
 0002:0002db44       ??_C@_02HBOOOICD@?9?$DO@   000000014008fb44     libvcruntime:undname.obj
 0002:0002db48       ??_C@_02ECNGHCIF@?$CL?$CL@ 000000014008fb48     libvcruntime:undname.obj
 0002:0002db4c       ??_C@_02BAABKJLB@?9?9@     000000014008fb4c     libvcruntime:undname.obj
 0002:0002db50       ??_C@_01MIFGBAGJ@?$CL@     000000014008fb50     libvcruntime:undname.obj
 0002:0002db54       ??_C@_01HNPIGOCE@?$CG@     000000014008fb54     libvcruntime:undname.obj
 0002:0002db58       ??_C@_03MNHNFDLC@?9?$DO?$CK@ 000000014008fb58     libvcruntime:undname.obj
 0002:0002db5c       ??_C@_01KMDKNFGN@?1@       000000014008fb5c     libvcruntime:undname.obj
 0002:0002db60       ??_C@_01FGNFDNOH@?$CF@     000000014008fb60     libvcruntime:undname.obj
 0002:0002db64       ??_C@_01MNNFJEPP@?$DM@     000000014008fb64     libvcruntime:undname.obj
 0002:0002db68       ??_C@_02EHCHHCKH@?$DM?$DN@ 000000014008fb68     libvcruntime:undname.obj
 0002:0002db6c       ??_C@_01PPODPGHN@?$DO@     000000014008fb6c     libvcruntime:undname.obj
 0002:0002db70       ??_C@_02EEKDKGMJ@?$DO?$DN@ 000000014008fb70     libvcruntime:undname.obj
 0002:0002db74       ??_C@_01IHBHIGKO@?0@       000000014008fb74     libvcruntime:undname.obj
 0002:0002db78       ??_C@_02HCKGKOFO@?$CI?$CJ@ 000000014008fb78     libvcruntime:undname.obj
 0002:0002db7c       ??_C@_01PJKLJHI@?$HO@      000000014008fb7c     libvcruntime:undname.obj
 0002:0002db80       ??_C@_01JKBOJNNK@?$FO@     000000014008fb80     libvcruntime:undname.obj
 0002:0002db84       ??_C@_01DNKMNLPK@?$HM@     000000014008fb84     libvcruntime:undname.obj
 0002:0002db88       ??_C@_02PPKAJPJL@?$CG?$CG@ 000000014008fb88     libvcruntime:undname.obj
 0002:0002db8c       ??_C@_02NONPIBCD@?$HM?$HM@ 000000014008fb8c     libvcruntime:undname.obj
 0002:0002db90       ??_C@_02FPIMKNGF@?$CK?$DN@ 000000014008fb90     libvcruntime:undname.obj
 0002:0002db94       ??_C@_02FOEOMHFC@?$CL?$DN@ 000000014008fb94     libvcruntime:undname.obj
 0002:0002db98       ??_C@_02FKMDLLOA@?9?$DN@   000000014008fb98     libvcruntime:undname.obj
 0002:0002db9c       ??_C@_02FJEHGPIO@?1?$DN@   000000014008fb9c     libvcruntime:undname.obj
 0002:0002dba0       ??_C@_02FENAOKFI@?$CF?$DN@ 000000014008fba0     libvcruntime:undname.obj
 0002:0002dba4       ??_C@_03IKFCCPFF@?$DO?$DO?$DN@ 000000014008fba4     libvcruntime:undname.obj
 0002:0002dba8       ??_C@_03CDNPDDLA@?$DM?$DM?$DN@ 000000014008fba8     libvcruntime:undname.obj
 0002:0002dbac       ??_C@_02FGJGFEAB@?$CG?$DN@ 000000014008fbac     libvcruntime:undname.obj
 0002:0002dbb0       ??_C@_02DHLNPPGH@?$HM?$DN@ 000000014008fbb0     libvcruntime:undname.obj
 0002:0002dbb4       ??_C@_02MHEGNOJ@?$FO?$DN@  000000014008fbb4     libvcruntime:undname.obj
 0002:0002dbb8       ??_C@_09IFPLHPGF@?$GAvftable?8@ 000000014008fbb8     libvcruntime:undname.obj
 0002:0002dbc8       ??_C@_09BLBHBJP@?$GAvbtable?8@ 000000014008fbc8     libvcruntime:undname.obj
 0002:0002dbd8       ??_C@_07FEEIOKP@?$GAvcall?8@ 000000014008fbd8     libvcruntime:undname.obj
 0002:0002dbe0       ??_C@_08LLFFHHDJ@?$GAtypeof?8@ 000000014008fbe0     libvcruntime:undname.obj
 0002:0002dbf0       ??_C@_0BF@KDPPACIK@?$GAlocal?5static?5guard?8@ 000000014008fbf0     libvcruntime:undname.obj
 0002:0002dc08       ??_C@_08OBABFOLI@?$GAstring?8@ 000000014008fc08     libvcruntime:undname.obj
 0002:0002dc18       ??_C@_0BD@JDLKDPAB@?$GAvbase?5destructor?8@ 000000014008fc18     libvcruntime:undname.obj
 0002:0002dc30       ??_C@_0BN@DEGPLNFK@?$GAvector?5deleting?5destructor?8@ 000000014008fc30     libvcruntime:undname.obj
 0002:0002dc50       ??_C@_0BO@OBMKPJIG@?$GAdefault?5constructor?5closure?8@ 000000014008fc50     libvcruntime:undname.obj
 0002:0002dc70       ??_C@_0BN@IMDCHIKM@?$GAscalar?5deleting?5destructor?8@ 000000014008fc70     libvcruntime:undname.obj
 0002:0002dc90       ??_C@_0BO@PFGOCPJJ@?$GAvector?5constructor?5iterator?8@ 000000014008fc90     libvcruntime:undname.obj
 0002:0002dcb0       ??_C@_0BN@LFPFMEDL@?$GAvector?5destructor?5iterator?8@ 000000014008fcb0     libvcruntime:undname.obj
 0002:0002dcd0       ??_C@_0CE@IKBNEHA@?$GAvector?5vbase?5constructor?5itera@ 000000014008fcd0     libvcruntime:undname.obj
 0002:0002dcf8       ??_C@_0BL@NILFHHPC@?$GAvirtual?5displacement?5map?8@ 000000014008fcf8     libvcruntime:undname.obj
 0002:0002dd18       ??_C@_0CB@JONCMFFK@?$GAeh?5vector?5constructor?5iterator@ 000000014008fd18     libvcruntime:undname.obj
 0002:0002dd40       ??_C@_0CA@GCEOPDGL@?$GAeh?5vector?5destructor?5iterator?8@ 000000014008fd40     libvcruntime:undname.obj
 0002:0002dd60       ??_C@_0CH@OOJPLCPH@?$GAeh?5vector?5vbase?5constructor?5it@ 000000014008fd60     libvcruntime:undname.obj
 0002:0002dd88       ??_C@_0BL@LLKPOHJI@?$GAcopy?5constructor?5closure?8@ 000000014008fd88     libvcruntime:undname.obj
 0002:0002dda8       ??_C@_0BA@KBCDOMBN@?$GAudt?5returning?8@ 000000014008fda8     libvcruntime:undname.obj
 0002:0002ddb8       ??_C@_03KLGMFNMG@?$GAEH@   000000014008fdb8     libvcruntime:undname.obj
 0002:0002ddbc       ??_C@_05KHLCHHI@?$GARTTI@  000000014008fdbc     libvcruntime:undname.obj
 0002:0002ddc8       ??_C@_0BA@KKLDJDLB@?$GAlocal?5vftable?8@ 000000014008fdc8     libvcruntime:undname.obj
 0002:0002ddd8       ??_C@_0CE@IIHCMGGL@?$GAlocal?5vftable?5constructor?5clos@ 000000014008fdd8     libvcruntime:undname.obj
 0002:0002ddfc       ??_C@_06FHBGPFGH@?5new?$FL?$FN@ 000000014008fdfc     libvcruntime:undname.obj
 0002:0002de08       ??_C@_09LBNFPBCA@?5delete?$FL?$FN@ 000000014008fe08     libvcruntime:undname.obj
 0002:0002de18       ??_C@_0P@HJKNJFNN@?$GAomni?5callsig?8@ 000000014008fe18     libvcruntime:undname.obj
 0002:0002de28       ??_C@_0BL@CNOONJFP@?$GAplacement?5delete?5closure?8@ 000000014008fe28     libvcruntime:undname.obj
 0002:0002de48       ??_C@_0BN@CKNJLHMB@?$GAplacement?5delete?$FL?$FN?5closure?8@ 000000014008fe48     libvcruntime:undname.obj
 0002:0002de68       ??_C@_0CG@CFDHKGGD@?$GAmanaged?5vector?5constructor?5ite@ 000000014008fe68     libvcruntime:undname.obj
 0002:0002de90       ??_C@_0CF@IMGKMJNO@?$GAmanaged?5vector?5destructor?5iter@ 000000014008fe90     libvcruntime:undname.obj
 0002:0002deb8       ??_C@_0CG@HLDDJMAG@?$GAeh?5vector?5copy?5constructor?5ite@ 000000014008feb8     libvcruntime:undname.obj
 0002:0002dee0       ??_C@_0CM@FCBBDIGB@?$GAeh?5vector?5vbase?5copy?5construct@ 000000014008fee0     libvcruntime:undname.obj
 0002:0002df10       ??_C@_0BL@CLIPGLGB@?$GAdynamic?5initializer?5for?5?8@ 000000014008ff10     libvcruntime:undname.obj
 0002:0002df30       ??_C@_0CB@PDBIFEP@?$GAdynamic?5atexit?5destructor?5for?5@ 000000014008ff30     libvcruntime:undname.obj
 0002:0002df58       ??_C@_0CD@CGAJBKEJ@?$GAvector?5copy?5constructor?5iterat@ 000000014008ff58     libvcruntime:undname.obj
 0002:0002df80       ??_C@_0CJ@GJELGAMM@?$GAvector?5vbase?5copy?5constructor?5@ 000000014008ff80     libvcruntime:undname.obj
 0002:0002dfb0       ??_C@_0CL@FGIJHLCE@?$GAmanaged?5vector?5copy?5constructo@ 000000014008ffb0     libvcruntime:undname.obj
 0002:0002dfe0       ??_C@_0BM@PMGGMLDN@?$GAlocal?5static?5thread?5guard?8@ 000000014008ffe0     libvcruntime:undname.obj
 0002:0002e000       ??_C@_0N@BDNMDMOL@operator?5?$CC?$CC?5@ 0000000140090000     libvcruntime:undname.obj
 0002:0002e010       ??_C@_0BC@GGEBGALA@operator?5co_await@ 0000000140090010     libvcruntime:undname.obj
 0002:0002e028       ??_C@_0M@GAAIMMOH@operator?$DM?$DN?$DO@ 0000000140090028     libvcruntime:undname.obj
 0002:0002e038       ??_C@_0BC@DAFEJGAK@?5Type?5Descriptor?8@ 0000000140090038     libvcruntime:undname.obj
 0002:0002e050       ??_C@_0BM@LDKODKLH@?5Base?5Class?5Descriptor?5at?5?$CI@ 0000000140090050     libvcruntime:undname.obj
 0002:0002e070       ??_C@_0BD@LGICGFMM@?5Base?5Class?5Array?8@ 0000000140090070     libvcruntime:undname.obj
 0002:0002e088       ??_C@_0BN@MECKDCOJ@?5Class?5Hierarchy?5Descriptor?8@ 0000000140090088     libvcruntime:undname.obj
 0002:0002e0a8       ??_C@_0BK@CFCOFLF@?5Complete?5Object?5Locator?8@ 00000001400900a8     libvcruntime:undname.obj
 0002:0002e0c8       ??_C@_0BG@JNJLAMPM@?$GAanonymous?5namespace?8@ 00000001400900c8     libvcruntime:undname.obj
 0002:0002e0f8       ??_C@_1DM@KHCHBNEB@?$AAa?$AAp?$AAi?$AA?9?$AAm?$AAs?$AA?9?$AAw?$AAi?$AAn?$AA?9?$AAc?$AAo?$AAr?$AAe@ 00000001400900f8     libvcruntime:winapi_downlevel.obj
 0002:0002e138       ??_C@_1DK@LPPGFMPP@?$AAa?$AAp?$AAi?$AA?9?$AAm?$AAs?$AA?9?$AAw?$AAi?$AAn?$AA?9?$AAc?$AAo?$AAr?$AAe@ 0000000140090138     libvcruntime:winapi_downlevel.obj
 0002:0002e178       ??_C@_1BC@GDMECMAK@?$AAk?$AAe?$AAr?$AAn?$AAe?$AAl?$AA3?$AA2@ 0000000140090178     libvcruntime:winapi_downlevel.obj
 0002:0002e190       ??_C@_1BA@PFFKHIOG@?$AAa?$AAp?$AAi?$AA?9?$AAm?$AAs?$AA?9@ 0000000140090190     libvcruntime:winapi_downlevel.obj
 0002:0002e1a8       ??_C@_08KNHFBNJ@FlsAlloc@  00000001400901a8     libvcruntime:winapi_downlevel.obj
 0002:0002e1c0       ??_C@_07PEJMOBNF@FlsFree@  00000001400901c0     libvcruntime:winapi_downlevel.obj
 0002:0002e1d0       ??_C@_0M@GDNOONDI@FlsGetValue@ 00000001400901d0     libvcruntime:winapi_downlevel.obj
 0002:0002e1e8       ??_C@_0M@JCPCPOEF@FlsSetValue@ 00000001400901e8     libvcruntime:winapi_downlevel.obj
 0002:0002e200       ??_C@_0BM@HCFOFFN@InitializeCriticalSectionEx@ 0000000140090200     libvcruntime:winapi_downlevel.obj
 0002:0002e220       __real@3ff0000000000000    0000000140090220     libucrt:round.obj
 0002:0002e228       __real@bff0000000000000    0000000140090228     libucrt:round.obj
 0002:0002e230       __real@41dfffffffc00000    0000000140090230     libucrt:lround.obj
 0002:0002e238       __real@c1e0000000000000    0000000140090238     libucrt:lround.obj
 0002:0002e240       ?standard_lookup_table_spectre@__crt_stdio_output@@3V?$spectre_mitigated_lookup_table@Ustate_transition_pair@__crt_stdio_output@@$0IA@@1@B 0000000140090240     libucrt:output.obj
 0002:0002e340       ??_C@_1O@CEDCILHN@?$AA?$CI?$AAn?$AAu?$AAl?$AAl?$AA?$CJ@ 0000000140090340     libucrt:output.obj
 0002:0002e350       ??_C@_06OJHGLDPL@?$CInull?$CJ@ 0000000140090350     libucrt:output.obj
 0002:0002e360       __acrt_exception_action_table 0000000140090360     libucrt:exception_filter.obj
 0002:0002e420       __acrt_signal_action_table_count 0000000140090420     libucrt:exception_filter.obj
 0002:0002e428       __acrt_signal_action_table_size 0000000140090428     libucrt:exception_filter.obj
 0002:0002e430       __acrt_signal_action_first_fpe_index 0000000140090430     libucrt:exception_filter.obj
 0002:0002e438       __acrt_signal_action_fpe_count 0000000140090438     libucrt:exception_filter.obj
 0002:0002e490       ??_C@_1BI@BGOHAHKC@?$AAm?$AAs?$AAc?$AAo?$AAr?$AAe?$AAe?$AA?4?$AAd?$AAl?$AAl@ 0000000140090490     libucrt:exit.obj
 0002:0002e4a8       ??_C@_0P@MIGLKIOC@CorExitProcess@ 00000001400904a8     libucrt:exit.obj
 0002:0002e690       __lc_category              0000000140090690     libucrt:wsetlocale.obj
 0002:0002e720       ??_C@_1O@GIFLHMA@?$AAL?$AAC?$AA_?$AAA?$AAL?$AAL@ 0000000140090720     libucrt:wsetlocale.obj
 0002:0002e730       ??_C@_1BG@PPOMIBNJ@?$AAL?$AAC?$AA_?$AAC?$AAO?$AAL?$AAL?$AAA?$AAT?$AAE@ 0000000140090730     libucrt:wsetlocale.obj
 0002:0002e748       ??_C@_1BC@FFJGAPJM@?$AAL?$AAC?$AA_?$AAC?$AAT?$AAY?$AAP?$AAE@ 0000000140090748     libucrt:wsetlocale.obj
 0002:0002e760       ??_C@_1BI@PCKFNJFB@?$AAL?$AAC?$AA_?$AAM?$AAO?$AAN?$AAE?$AAT?$AAA?$AAR?$AAY@ 0000000140090760     libucrt:wsetlocale.obj
 0002:0002e778       ??_C@_1BG@ENIEDKID@?$AAL?$AAC?$AA_?$AAN?$AAU?$AAM?$AAE?$AAR?$AAI?$AAC@ 0000000140090778     libucrt:wsetlocale.obj
 0002:0002e790       ??_C@_1BA@HAAOMIIG@?$AAL?$AAC?$AA_?$AAT?$AAI?$AAM?$AAE@ 0000000140090790     libucrt:wsetlocale.obj
 0002:0002e7a0       ??_C@_15NBPDDFIP@?$AA?$DN?$AA?$DL@ 00000001400907a0     libucrt:wsetlocale.obj
 0002:0002e7a8       ??_C@_13PJJBFPED@?$AA?$DL@ 00000001400907a8     libucrt:wsetlocale.obj
 0002:0002e7ac       ??_C@_13NMPKAAJP@?$AA?$DN@ 00000001400907ac     libucrt:wsetlocale.obj
 0002:0002e7b0       ??_C@_17EFJLDFDO@?$AA?9?$AA_?$AA?4@ 00000001400907b0     libucrt:wsetlocale.obj
 0002:0002e7b8       ??_C@_13FHBKNHDA@?$AAC@    00000001400907b8     libucrt:wsetlocale.obj
 0002:0002e7c0       ??_C@_17MBJJLFDM@?$AA_?$AA?4?$AA?0@ 00000001400907c0     libucrt:wsetlocale.obj
 0002:0002e7c8       ??_C@_13ENNFDPBH@?$AA_@    00000001400907c8     libucrt:wsetlocale.obj
 0002:0002e7cc       ??_C@_13JOFGPIOO@?$AA?4@   00000001400907cc     libucrt:wsetlocale.obj
 0002:0002e7d0       __newctype                 00000001400907d0     libucrt:ctype.obj
 0002:0002ead0       __newclmap                 0000000140090ad0     libucrt:ctype.obj
 0002:0002ec50       __newcumap                 0000000140090c50     libucrt:ctype.obj
 0002:0002edd0       _wctype                    0000000140090dd0     libucrt:ctype.obj
 0002:0002f150       ?large_power_data@?1??multiply_by_power_of_ten@__crt_strtox@@YA_NAEAUbig_integer@2@I@Z@4QBIB 0000000140091150     libucrt:strtod.obj
 0002:0002fa60       ?large_power_indices@?1??multiply_by_power_of_ten@__crt_strtox@@YA_NAEAUbig_integer@2@I@Z@4QBUunpack_index@?1??12@YA_N0I@Z@B 0000000140091a60     libucrt:strtod.obj
 0002:0002faf8       ?small_powers_of_ten@?1??multiply_by_power_of_ten@__crt_strtox@@YA_NAEAUbig_integer@2@I@Z@4QBIB 0000000140091af8     libucrt:strtod.obj
 0002:0002fb90       __lc_time_c                0000000140091b90     libucrt:nlsdata.obj
 0002:0002fe50       ??_C@_03KOEHGMDN@Sun@      0000000140091e50     libucrt:nlsdata.obj
 0002:0002fe54       ??_C@_03PDAGKDH@Mon@       0000000140091e54     libucrt:nlsdata.obj
 0002:0002fe58       ??_C@_03NAGEINEP@Tue@      0000000140091e58     libucrt:nlsdata.obj
 0002:0002fe5c       ??_C@_03MHOMLAJA@Wed@      0000000140091e5c     libucrt:nlsdata.obj
 0002:0002fe60       ??_C@_03IOFIKPDN@Thu@      0000000140091e60     libucrt:nlsdata.obj
 0002:0002fe64       ??_C@_03IDIOELNC@Fri@      0000000140091e64     libucrt:nlsdata.obj
 0002:0002fe68       ??_C@_03FEFJNEK@Sat@       0000000140091e68     libucrt:nlsdata.obj
 0002:0002fe6c       ??_C@_06OOPIFAJ@Sunday@    0000000140091e6c     libucrt:nlsdata.obj
 0002:0002fe74       ??_C@_06JLEDEDGH@Monday@   0000000140091e74     libucrt:nlsdata.obj
 0002:0002fe80       ??_C@_07BAAGCFCM@Tuesday@  0000000140091e80     libucrt:nlsdata.obj
 0002:0002fe88       ??_C@_09DLIGFAKA@Wednesday@ 0000000140091e88     libucrt:nlsdata.obj
 0002:0002fe98       ??_C@_08HACCIKIA@Thursday@ 0000000140091e98     libucrt:nlsdata.obj
 0002:0002fea4       ??_C@_06JECMNKMI@Friday@   0000000140091ea4     libucrt:nlsdata.obj
 0002:0002feb0       ??_C@_08INBOOONO@Saturday@ 0000000140091eb0     libucrt:nlsdata.obj
 0002:0002febc       ??_C@_03JIHJHPIE@Jan@      0000000140091ebc     libucrt:nlsdata.obj
 0002:0002fec0       ??_C@_03HJBDCHOM@Feb@      0000000140091ec0     libucrt:nlsdata.obj
 0002:0002fec4       ??_C@_03ODNJBKGA@Mar@      0000000140091ec4     libucrt:nlsdata.obj
 0002:0002fec8       ??_C@_03LEOLGMJP@Apr@      0000000140091ec8     libucrt:nlsdata.obj
 0002:0002fecc       ??_C@_03CNMDKL@May@        0000000140091ecc     libucrt:nlsdata.obj
 0002:0002fed0       ??_C@_03IDFGHECI@Jun@      0000000140091ed0     libucrt:nlsdata.obj
 0002:0002fed4       ??_C@_03LBGABGKK@Jul@      0000000140091ed4     libucrt:nlsdata.obj
 0002:0002fed8       ??_C@_03IFJFEIGA@Aug@      0000000140091ed8     libucrt:nlsdata.obj
 0002:0002fedc       ??_C@_03GGCAPAJC@Sep@      0000000140091edc     libucrt:nlsdata.obj
 0002:0002fee0       ??_C@_03BMAOKBAD@Oct@      0000000140091ee0     libucrt:nlsdata.obj
 0002:0002fee4       ??_C@_03JPJOFNIA@Nov@      0000000140091ee4     libucrt:nlsdata.obj
 0002:0002fee8       ??_C@_03MKABNOCG@Dec@      0000000140091ee8     libucrt:nlsdata.obj
 0002:0002fef0       ??_C@_07CGJPFGJA@January@  0000000140091ef0     libucrt:nlsdata.obj
 0002:0002fef8       ??_C@_08GNJGEPFN@February@ 0000000140091ef8     libucrt:nlsdata.obj
 0002:0002ff04       ??_C@_05HPCKOFNC@March@    0000000140091f04     libucrt:nlsdata.obj
 0002:0002ff0c       ??_C@_05DMJDNLEJ@April@    0000000140091f0c     libucrt:nlsdata.obj
 0002:0002ff14       ??_C@_04CNLMGBGM@June@     0000000140091f14     libucrt:nlsdata.obj
 0002:0002ff1c       ??_C@_04MIEPOIFP@July@     0000000140091f1c     libucrt:nlsdata.obj
 0002:0002ff24       ??_C@_06LBBHFDDG@August@   0000000140091f24     libucrt:nlsdata.obj
 0002:0002ff30       ??_C@_09BHHEALKD@September@ 0000000140091f30     libucrt:nlsdata.obj
 0002:0002ff40       ??_C@_07JJNFCEND@October@  0000000140091f40     libucrt:nlsdata.obj
 0002:0002ff48       ??_C@_08HCHEGEOA@November@ 0000000140091f48     libucrt:nlsdata.obj
 0002:0002ff58       ??_C@_08EDHMEBNP@December@ 0000000140091f58     libucrt:nlsdata.obj
 0002:0002ff64       ??_C@_02DEDBPAFC@AM@       0000000140091f64     libucrt:nlsdata.obj
 0002:0002ff68       ??_C@_02CJNFDJBF@PM@       0000000140091f68     libucrt:nlsdata.obj
 0002:0002ff70       ??_C@_08BPBNCDIB@MM?1dd?1yy@ 0000000140091f70     libucrt:nlsdata.obj
 0002:0002ff80       ??_C@_0BE@CKGJFCPC@dddd?0?5MMMM?5dd?0?5yyyy@ 0000000140091f80     libucrt:nlsdata.obj
 0002:0002ff98       ??_C@_08JCCMCCIL@HH?3mm?3ss@ 0000000140091f98     libucrt:nlsdata.obj
 0002:0002ffa8       ??_C@_17MBGCMIPB@?$AAS?$AAu?$AAn@ 0000000140091fa8     libucrt:nlsdata.obj
 0002:0002ffb0       ??_C@_17KBOMKBF@?$AAM?$AAo?$AAn@ 0000000140091fb0     libucrt:nlsdata.obj
 0002:0002ffb8       ??_C@_17BMKGEGOJ@?$AAT?$AAu?$AAe@ 0000000140091fb8     libucrt:nlsdata.obj
 0002:0002ffc0       ??_C@_17CJEDCEPE@?$AAW?$AAe?$AAd@ 0000000140091fc0     libucrt:nlsdata.obj
 0002:0002ffc8       ??_C@_17PDPHAADD@?$AAT?$AAh?$AAu@ 0000000140091fc8     libucrt:nlsdata.obj
 0002:0002ffd0       ??_C@_17HFOLPPLP@?$AAF?$AAr?$AAi@ 0000000140091fd0     libucrt:nlsdata.obj
 0002:0002ffd8       ??_C@_17GGIBDPIH@?$AAS?$AAa?$AAt@ 0000000140091fd8     libucrt:nlsdata.obj
 0002:0002ffe0       ??_C@_1O@IHNHDHPB@?$AAS?$AAu?$AAn?$AAd?$AAa?$AAy@ 0000000140091fe0     libucrt:nlsdata.obj
 0002:0002fff0       ??_C@_1O@MMNBFLIA@?$AAM?$AAo?$AAn?$AAd?$AAa?$AAy@ 0000000140091ff0     libucrt:nlsdata.obj
 0002:00030000       ??_C@_1BA@ENFBFFEK@?$AAT?$AAu?$AAe?$AAs?$AAd?$AAa?$AAy@ 0000000140092000     libucrt:nlsdata.obj
 0002:00030010       ??_C@_1BE@EBOGMDOH@?$AAW?$AAe?$AAd?$AAn?$AAe?$AAs?$AAd?$AAa?$AAy@ 0000000140092010     libucrt:nlsdata.obj
 0002:00030028       ??_C@_1BC@HHMNLIHE@?$AAT?$AAh?$AAu?$AAr?$AAs?$AAd?$AAa?$AAy@ 0000000140092028     libucrt:nlsdata.obj
 0002:00030040       ??_C@_1O@PDICJHAG@?$AAF?$AAr?$AAi?$AAd?$AAa?$AAy@ 0000000140092040     libucrt:nlsdata.obj
 0002:00030050       ??_C@_1BC@ENMNNPAJ@?$AAS?$AAa?$AAt?$AAu?$AAr?$AAd?$AAa?$AAy@ 0000000140092050     libucrt:nlsdata.obj
 0002:00030068       ??_C@_17DKNBKCHM@?$AAJ?$AAa?$AAn@ 0000000140092068     libucrt:nlsdata.obj
 0002:00030070       ??_C@_17LMDJEKJN@?$AAF?$AAe?$AAb@ 0000000140092070     libucrt:nlsdata.obj
 0002:00030078       ??_C@_17CKNLEDEC@?$AAM?$AAa?$AAr@ 0000000140092078     libucrt:nlsdata.obj
 0002:00030080       ??_C@_17LFPOIHDD@?$AAA?$AAp?$AAr@ 0000000140092080     libucrt:nlsdata.obj
 0002:00030088       ??_C@_17PNNKMEED@?$AAM?$AAa?$AAy@ 0000000140092088     libucrt:nlsdata.obj
 0002:00030090       ??_C@_17KCJGOCPB@?$AAJ?$AAu?$AAn@ 0000000140092090     libucrt:nlsdata.obj
 0002:00030098       ??_C@_17IJPCKHK@?$AAJ?$AAu?$AAl@ 0000000140092098     libucrt:nlsdata.obj
 0002:000300a0       ??_C@_17ICPELBCN@?$AAA?$AAu?$AAg@ 00000001400920a0     libucrt:nlsdata.obj
 0002:000300a8       ??_C@_17HCHCOKMG@?$AAS?$AAe?$AAp@ 00000001400920a8     libucrt:nlsdata.obj
 0002:000300b0       ??_C@_17FNLKOI@?$AAO?$AAc?$AAt@ 00000001400920b0     libucrt:nlsdata.obj
 0002:000300b8       ??_C@_17BBDMLCIG@?$AAN?$AAo?$AAv@ 00000001400920b8     libucrt:nlsdata.obj
 0002:000300c0       ??_C@_17EGKACKIF@?$AAD?$AAe?$AAc@ 00000001400920c0     libucrt:nlsdata.obj
 0002:000300c8       ??_C@_1BA@EFMEIEBA@?$AAJ?$AAa?$AAn?$AAu?$AAa?$AAr?$AAy@ 00000001400920c8     libucrt:nlsdata.obj
 0002:000300d8       ??_C@_1BC@JGDDFFAM@?$AAF?$AAe?$AAb?$AAr?$AAu?$AAa?$AAr?$AAy@ 00000001400920d8     libucrt:nlsdata.obj
 0002:000300f0       ??_C@_1M@IKEENEDF@?$AAM?$AAa?$AAr?$AAc?$AAh@ 00000001400920f0     libucrt:nlsdata.obj
 0002:00030100       ??_C@_1M@GJNLMHFD@?$AAA?$AAp?$AAr?$AAi?$AAl@ 0000000140092100     libucrt:nlsdata.obj
 0002:00030110       ??_C@_19EPFLPGAP@?$AAJ?$AAu?$AAn?$AAe@ 0000000140092110     libucrt:nlsdata.obj
 0002:00030120       ??_C@_19BIFMLPCD@?$AAJ?$AAu?$AAl?$AAy@ 0000000140092120     libucrt:nlsdata.obj
 0002:00030130       ??_C@_1O@PAHLKOAC@?$AAA?$AAu?$AAg?$AAu?$AAs?$AAt@ 0000000140092130     libucrt:nlsdata.obj
 0002:00030140       ??_C@_1BE@DKAAMBJL@?$AAS?$AAe?$AAp?$AAt?$AAe?$AAm?$AAb?$AAe?$AAr@ 0000000140092140     libucrt:nlsdata.obj
 0002:00030158       ??_C@_1BA@EPANDLNG@?$AAO?$AAc?$AAt?$AAo?$AAb?$AAe?$AAr@ 0000000140092158     libucrt:nlsdata.obj
 0002:00030168       ??_C@_1BC@BGLIFPF@?$AAN?$AAo?$AAv?$AAe?$AAm?$AAb?$AAe?$AAr@ 0000000140092168     libucrt:nlsdata.obj
 0002:00030180       ??_C@_1BC@FEMKIFH@?$AAD?$AAe?$AAc?$AAe?$AAm?$AAb?$AAe?$AAr@ 0000000140092180     libucrt:nlsdata.obj
 0002:00030194       ??_C@_15ODEHAHHF@?$AAA?$AAM@ 0000000140092194     libucrt:nlsdata.obj
 0002:0003019c       ??_C@_15CLMNNGEL@?$AAP?$AAM@ 000000014009219c     libucrt:nlsdata.obj
 0002:000301a8       ??_C@_1BC@IEBCMHCM@?$AAM?$AAM?$AA?1?$AAd?$AAd?$AA?1?$AAy?$AAy@ 00000001400921a8     libucrt:nlsdata.obj
 0002:000301c0       ??_C@_1CI@KNAKOEBC@?$AAd?$AAd?$AAd?$AAd?$AA?0?$AA?5?$AAM?$AAM?$AAM?$AAM?$AA?5?$AAd?$AAd?$AA?0?$AA?5@ 00000001400921c0     libucrt:nlsdata.obj
 0002:000301e8       ??_C@_1BC@GDGBMEMK@?$AAH?$AAH?$AA?3?$AAm?$AAm?$AA?3?$AAs?$AAs@ 00000001400921e8     libucrt:nlsdata.obj
 0002:00030200       ??_C@_1M@BMHNFIME@?$AAe?$AAn?$AA?9?$AAU?$AAS@ 0000000140092200     libucrt:nlsdata.obj
 0002:000302c0       ??_C@_1EA@JGEFHKEI@?$AAa?$AAp?$AAi?$AA?9?$AAm?$AAs?$AA?9?$AAw?$AAi?$AAn?$AA?9?$AAc?$AAo?$AAr?$AAe@ 00000001400922c0     libucrt:winapi_thunks.obj
 0002:00030300       ??_C@_1DI@KMEPCBPN@?$AAa?$AAp?$AAi?$AA?9?$AAm?$AAs?$AA?9?$AAw?$AAi?$AAn?$AA?9?$AAc?$AAo?$AAr?$AAe@ 0000000140092300     libucrt:winapi_thunks.obj
 0002:00030338       ??_C@_1DI@IJCEHOCB@?$AAa?$AAp?$AAi?$AA?9?$AAm?$AAs?$AA?9?$AAw?$AAi?$AAn?$AA?9?$AAc?$AAo?$AAr?$AAe@ 0000000140092338     libucrt:winapi_thunks.obj
 0002:00030370       ??_C@_1EI@MPIAOHOC@?$AAa?$AAp?$AAi?$AA?9?$AAm?$AAs?$AA?9?$AAw?$AAi?$AAn?$AA?9?$AAc?$AAo?$AAr?$AAe@ 0000000140092370     libucrt:winapi_thunks.obj
 0002:000303c0       ??_C@_1FK@FPHCKFIE@?$AAa?$AAp?$AAi?$AA?9?$AAm?$AAs?$AA?9?$AAw?$AAi?$AAn?$AA?9?$AAc?$AAo?$AAr?$AAe@ 00000001400923c0     libucrt:winapi_thunks.obj
 0002:00030420       ??_C@_1EM@DILCGIIO@?$AAa?$AAp?$AAi?$AA?9?$AAm?$AAs?$AA?9?$AAw?$AAi?$AAn?$AA?9?$AAc?$AAo?$AAr?$AAe@ 0000000140092420     libucrt:winapi_thunks.obj
 0002:00030470       ??_C@_1DM@LNCGDDPN@?$AAa?$AAp?$AAi?$AA?9?$AAm?$AAs?$AA?9?$AAw?$AAi?$AAn?$AA?9?$AAc?$AAo?$AAr?$AAe@ 0000000140092470     libucrt:winapi_thunks.obj
 0002:000304b0       ??_C@_1DO@FPAPJEMD@?$AAa?$AAp?$AAi?$AA?9?$AAm?$AAs?$AA?9?$AAw?$AAi?$AAn?$AA?9?$AAc?$AAo?$AAr?$AAe@ 00000001400924b0     libucrt:winapi_thunks.obj
 0002:000304f0       ??_C@_1DK@NDHNAHIO@?$AAa?$AAp?$AAi?$AA?9?$AAm?$AAs?$AA?9?$AAw?$AAi?$AAn?$AA?9?$AAc?$AAo?$AAr?$AAe@ 00000001400924f0     libucrt:winapi_thunks.obj
 0002:00030530       ??_C@_1DM@KGHDGBCM@?$AAa?$AAp?$AAi?$AA?9?$AAm?$AAs?$AA?9?$AAw?$AAi?$AAn?$AA?9?$AAc?$AAo?$AAr?$AAe@ 0000000140092530     libucrt:winapi_thunks.obj
 0002:00030570       ??_C@_1EO@IJIOEFOH@?$AAa?$AAp?$AAi?$AA?9?$AAm?$AAs?$AA?9?$AAw?$AAi?$AAn?$AA?9?$AAr?$AAt?$AAc?$AAo@ 0000000140092570     libucrt:winapi_thunks.obj
 0002:000305c0       ??_C@_1FG@HHGEKANL@?$AAa?$AAp?$AAi?$AA?9?$AAm?$AAs?$AA?9?$AAw?$AAi?$AAn?$AA?9?$AAs?$AAe?$AAc?$AAu@ 00000001400925c0     libucrt:winapi_thunks.obj
 0002:00030620       ??_C@_1EG@DBIOJECG@?$AAe?$AAx?$AAt?$AA?9?$AAm?$AAs?$AA?9?$AAw?$AAi?$AAn?$AA?9?$AAn?$AAt?$AAu?$AAs@ 0000000140092620     libucrt:winapi_thunks.obj
 0002:00030670       ??_C@_1EO@FIHMJCLF@?$AAe?$AAx?$AAt?$AA?9?$AAm?$AAs?$AA?9?$AAw?$AAi?$AAn?$AA?9?$AAn?$AAt?$AAu?$AAs@ 0000000140092670     libucrt:winapi_thunks.obj
 0002:000306c0       ??_C@_1BC@DNHGCMLG@?$AAa?$AAd?$AAv?$AAa?$AAp?$AAi?$AA3?$AA2@ 00000001400926c0     libucrt:winapi_thunks.obj
 0002:000306d8       ??_C@_1BG@CJPGBMEF@?$AAk?$AAe?$AAr?$AAn?$AAe?$AAl?$AAb?$AAa?$AAs?$AAe@ 00000001400926d8     libucrt:winapi_thunks.obj
 0002:000306f0       ??_C@_1M@OAIMIKLP@?$AAn?$AAt?$AAd?$AAl?$AAl@ 00000001400926f0     libucrt:winapi_thunks.obj
 0002:00030700       ??_C@_1EG@DPGNFKGC@?$AAa?$AAp?$AAi?$AA?9?$AAm?$AAs?$AA?9?$AAw?$AAi?$AAn?$AA?9?$AAa?$AAp?$AAp?$AAm@ 0000000140092700     libucrt:winapi_thunks.obj
 0002:00030748       ??_C@_1O@BCCLBEOE@?$AAu?$AAs?$AAe?$AAr?$AA3?$AA2@ 0000000140092748     libucrt:winapi_thunks.obj
 0002:00030758       ??_C@_1BA@IAIFMGEF@?$AAe?$AAx?$AAt?$AA?9?$AAm?$AAs?$AA?9@ 0000000140092758     libucrt:winapi_thunks.obj
 0002:00030770       ??_C@_0BA@FHFNEAED@AreFileApisANSI@ 0000000140092770     libucrt:winapi_thunks.obj
 0002:00030788       ??_C@_0BA@IHGNDAEB@CompareStringEx@ 0000000140092788     libucrt:winapi_thunks.obj
 0002:000307a0       ??_C@_0BE@LJANKFHF@EnumSystemLocalesEx@ 00000001400927a0     libucrt:winapi_thunks.obj
 0002:000307c0       ??_C@_0BA@EPCJIIPD@GetDateFormatEx@ 00000001400927c0     libucrt:winapi_thunks.obj
 0002:000307d8       ??_C@_0BA@ONOKGCMP@GetLocaleInfoEx@ 00000001400927d8     libucrt:winapi_thunks.obj
 0002:000307f0       ??_C@_0BA@CIJJKCJJ@GetTimeFormatEx@ 00000001400927f0     libucrt:winapi_thunks.obj
 0002:00030808       ??_C@_0BJ@PBCCBIPI@GetUserDefaultLocaleName@ 0000000140092808     libucrt:winapi_thunks.obj
 0002:00030838       ??_C@_0BC@CELBKLLA@IsValidLocaleName@ 0000000140092838     libucrt:winapi_thunks.obj
 0002:00030858       ??_C@_0O@KKBNKAPF@LCMapStringEx@ 0000000140092858     libucrt:winapi_thunks.obj
 0002:00030870       ??_C@_0BB@CDHDDLLP@LCIDToLocaleName@ 0000000140092870     libucrt:winapi_thunks.obj
 0002:00030890       ??_C@_0BB@HBDEELFH@LocaleNameToLCID@ 0000000140092890     libucrt:winapi_thunks.obj
 0002:000308a8       ??_C@_0CF@OJOFEIGO@AppPolicyGetProcessTerminationM@ 00000001400928a8     libucrt:winapi_thunks.obj
 0002:000308d8       ??_C@_0BC@JEAENNKH@SystemFunction036@ 00000001400928d8     libucrt:winapi_thunks.obj
 0002:00030970       ??_C@_03OEIAHPBN@INF@      0000000140092970     libucrt:cvt.obj
 0002:00030974       ??_C@_03OJHLLCGB@inf@      0000000140092974     libucrt:cvt.obj
 0002:00030978       ??_C@_03LKNCIKJB@NAN@      0000000140092978     libucrt:cvt.obj
 0002:0003097c       ??_C@_03LHCJEHON@nan@      000000014009297c     libucrt:cvt.obj
 0002:00030980       ??_C@_09OFJJIMPC@NAN?$CISNAN?$CJ@ 0000000140092980     libucrt:cvt.obj
 0002:00030990       ??_C@_09IPFBKMDL@nan?$CIsnan?$CJ@ 0000000140092990     libucrt:cvt.obj
 0002:000309a0       ??_C@_08IKHNHAJ@NAN?$CIIND?$CJ@ 00000001400929a0     libucrt:cvt.obj
 0002:000309b0       ??_C@_08OFCDMILK@nan?$CIind?$CJ@ 00000001400929b0     libucrt:cvt.obj
 0002:000309bc       ??_C@_05KLBDPFGC@e?$CL000@ 00000001400929bc     libucrt:cvt.obj
 0002:000309c4       ??_C@_15HNJCPLHL@?$AAT?$AAZ@ 00000001400929c4     libucrt:tzset.obj
 0002:000309f0       ??_C@_1M@HPNHIDJI@?$AAj?$AAa?$AA?9?$AAJ?$AAP@ 00000001400929f0     libucrt:mbctype.obj
 0002:00030a00       ??_C@_1M@BIBDDEMK@?$AAz?$AAh?$AA?9?$AAC?$AAN@ 0000000140092a00     libucrt:mbctype.obj
 0002:00030a10       ??_C@_1M@JLOOOEGK@?$AAk?$AAo?$AA?9?$AAK?$AAR@ 0000000140092a10     libucrt:mbctype.obj
 0002:00030a20       ??_C@_1M@CLNBBOPM@?$AAz?$AAh?$AA?9?$AAT?$AAW@ 0000000140092a20     libucrt:mbctype.obj
 0002:00030a30       __acrt_rg_language         0000000140092a30     libucrt:get_qualified_locale.obj
 0002:00030e40       __acrt_rg_language_count   0000000140092e40     libucrt:get_qualified_locale.obj
 0002:00030e50       __acrt_rg_country          0000000140092e50     libucrt:get_qualified_locale.obj
 0002:00030fc0       __acrt_rg_country_count    0000000140092fc0     libucrt:get_qualified_locale.obj
 0002:00030fc8       ??_C@_1BC@LLOKLNP@?$AAa?$AAm?$AAe?$AAr?$AAi?$AAc?$AAa?$AAn@ 0000000140092fc8     libucrt:get_qualified_locale.obj
 0002:00030fe0       ??_C@_1CC@HEIGCDGG@?$AAa?$AAm?$AAe?$AAr?$AAi?$AAc?$AAa?$AAn?$AA?5?$AAe?$AAn?$AAg?$AAl?$AAi?$AAs@ 0000000140092fe0     libucrt:get_qualified_locale.obj
 0002:00031008       ??_C@_1CC@IHCNOMIN@?$AAa?$AAm?$AAe?$AAr?$AAi?$AAc?$AAa?$AAn?$AA?9?$AAe?$AAn?$AAg?$AAl?$AAi?$AAs@ 0000000140093008     libucrt:get_qualified_locale.obj
 0002:00031030       ??_C@_1BG@GKAGPCGG@?$AAa?$AAu?$AAs?$AAt?$AAr?$AAa?$AAl?$AAi?$AAa?$AAn@ 0000000140093030     libucrt:get_qualified_locale.obj
 0002:00031048       ??_C@_1BA@GMENCENF@?$AAb?$AAe?$AAl?$AAg?$AAi?$AAa?$AAn@ 0000000140093048     libucrt:get_qualified_locale.obj
 0002:00031058       ??_C@_1BC@PJMIIAAN@?$AAc?$AAa?$AAn?$AAa?$AAd?$AAi?$AAa?$AAn@ 0000000140093058     libucrt:get_qualified_locale.obj
 0002:00031070       ??_C@_17NOIMNFBF@?$AAc?$AAh?$AAh@ 0000000140093070     libucrt:get_qualified_locale.obj
 0002:00031078       ??_C@_17GGDALCHA@?$AAc?$AAh?$AAi@ 0000000140093078     libucrt:get_qualified_locale.obj
 0002:00031080       ??_C@_1BA@NPNJKIBL@?$AAc?$AAh?$AAi?$AAn?$AAe?$AAs?$AAe@ 0000000140093080     libucrt:get_qualified_locale.obj
 0002:00031090       ??_C@_1CC@DINBAMMJ@?$AAc?$AAh?$AAi?$AAn?$AAe?$AAs?$AAe?$AA?9?$AAh?$AAo?$AAn?$AAg?$AAk?$AAo?$AAn@ 0000000140093090     libucrt:get_qualified_locale.obj
 0002:000310b8       ??_C@_1CG@IOBJPACO@?$AAc?$AAh?$AAi?$AAn?$AAe?$AAs?$AAe?$AA?9?$AAs?$AAi?$AAm?$AAp?$AAl?$AAi?$AAf@ 00000001400930b8     libucrt:get_qualified_locale.obj
 0002:000310e0       ??_C@_1CE@GAJNDCKG@?$AAc?$AAh?$AAi?$AAn?$AAe?$AAs?$AAe?$AA?9?$AAs?$AAi?$AAn?$AAg?$AAa?$AAp?$AAo@ 00000001400930e0     libucrt:get_qualified_locale.obj
 0002:00031108       ??_C@_1CI@PAJPIOOD@?$AAc?$AAh?$AAi?$AAn?$AAe?$AAs?$AAe?$AA?9?$AAt?$AAr?$AAa?$AAd?$AAi?$AAt?$AAi@ 0000000140093108     libucrt:get_qualified_locale.obj
 0002:00031130       ??_C@_1BM@NILJBMMD@?$AAd?$AAu?$AAt?$AAc?$AAh?$AA?9?$AAb?$AAe?$AAl?$AAg?$AAi?$AAa?$AAn@ 0000000140093130     libucrt:get_qualified_locale.obj
 0002:00031150       ??_C@_1CC@OOJPJNEJ@?$AAe?$AAn?$AAg?$AAl?$AAi?$AAs?$AAh?$AA?9?$AAa?$AAm?$AAe?$AAr?$AAi?$AAc?$AAa@ 0000000140093150     libucrt:get_qualified_locale.obj
 0002:00031178       ??_C@_1BI@IOLFEEM@?$AAe?$AAn?$AAg?$AAl?$AAi?$AAs?$AAh?$AA?9?$AAa?$AAu?$AAs@ 0000000140093178     libucrt:get_qualified_locale.obj
 0002:00031190       ??_C@_1BO@HFFNLENJ@?$AAe?$AAn?$AAg?$AAl?$AAi?$AAs?$AAh?$AA?9?$AAb?$AAe?$AAl?$AAi?$AAz?$AAe@ 0000000140093190     libucrt:get_qualified_locale.obj
 0002:000311b0       ??_C@_1BI@HAPKJMPO@?$AAe?$AAn?$AAg?$AAl?$AAi?$AAs?$AAh?$AA?9?$AAc?$AAa?$AAn@ 00000001400931b0     libucrt:get_qualified_locale.obj
 0002:000311c8       ??_C@_1CE@HLNDMIOJ@?$AAe?$AAn?$AAg?$AAl?$AAi?$AAs?$AAh?$AA?9?$AAc?$AAa?$AAr?$AAi?$AAb?$AAb?$AAe@ 00000001400931c8     libucrt:get_qualified_locale.obj
 0002:000311f0       ??_C@_1BI@LDHJHHAC@?$AAe?$AAn?$AAg?$AAl?$AAi?$AAs?$AAh?$AA?9?$AAi?$AAr?$AAe@ 00000001400931f0     libucrt:get_qualified_locale.obj
 0002:00031208       ??_C@_1CA@NJMMCFOC@?$AAe?$AAn?$AAg?$AAl?$AAi?$AAs?$AAh?$AA?9?$AAj?$AAa?$AAm?$AAa?$AAi?$AAc?$AAa@ 0000000140093208     libucrt:get_qualified_locale.obj
 0002:00031228       ??_C@_1BG@BHJEBBGG@?$AAe?$AAn?$AAg?$AAl?$AAi?$AAs?$AAh?$AA?9?$AAn?$AAz@ 0000000140093228     libucrt:get_qualified_locale.obj
 0002:00031240       ??_C@_1CK@FGOEJJCO@?$AAe?$AAn?$AAg?$AAl?$AAi?$AAs?$AAh?$AA?9?$AAs?$AAo?$AAu?$AAt?$AAh?$AA?5?$AAa@ 0000000140093240     libucrt:get_qualified_locale.obj
 0002:00031270       ??_C@_1DE@PDBJPCJ@?$AAe?$AAn?$AAg?$AAl?$AAi?$AAs?$AAh?$AA?9?$AAt?$AAr?$AAi?$AAn?$AAi?$AAd?$AAa@ 0000000140093270     libucrt:get_qualified_locale.obj
 0002:000312a8       ??_C@_1BG@JGCANDME@?$AAe?$AAn?$AAg?$AAl?$AAi?$AAs?$AAh?$AA?9?$AAu?$AAk@ 00000001400932a8     libucrt:get_qualified_locale.obj
 0002:000312c0       ??_C@_1BG@DINKMLE@?$AAe?$AAn?$AAg?$AAl?$AAi?$AAs?$AAh?$AA?9?$AAu?$AAs@ 00000001400932c0     libucrt:get_qualified_locale.obj
 0002:000312d8       ??_C@_1BI@NMFDBHJE@?$AAe?$AAn?$AAg?$AAl?$AAi?$AAs?$AAh?$AA?9?$AAu?$AAs?$AAa@ 00000001400932d8     libucrt:get_qualified_locale.obj
 0002:000312f0       ??_C@_1BO@OIHKJKII@?$AAf?$AAr?$AAe?$AAn?$AAc?$AAh?$AA?9?$AAb?$AAe?$AAl?$AAg?$AAi?$AAa?$AAn@ 00000001400932f0     libucrt:get_qualified_locale.obj
 0002:00031310       ??_C@_1CA@NKAELJKI@?$AAf?$AAr?$AAe?$AAn?$AAc?$AAh?$AA?9?$AAc?$AAa?$AAn?$AAa?$AAd?$AAi?$AAa?$AAn@ 0000000140093310     libucrt:get_qualified_locale.obj
 0002:00031330       ??_C@_1CE@MGKCNLGN@?$AAf?$AAr?$AAe?$AAn?$AAc?$AAh?$AA?9?$AAl?$AAu?$AAx?$AAe?$AAm?$AAb?$AAo?$AAu@ 0000000140093330     libucrt:get_qualified_locale.obj
 0002:00031358       ??_C@_1BK@CEGEAILM@?$AAf?$AAr?$AAe?$AAn?$AAc?$AAh?$AA?9?$AAs?$AAw?$AAi?$AAs?$AAs@ 0000000140093358     libucrt:get_qualified_locale.obj
 0002:00031378       ??_C@_1CA@PAFKEOCC@?$AAg?$AAe?$AAr?$AAm?$AAa?$AAn?$AA?9?$AAa?$AAu?$AAs?$AAt?$AAr?$AAi?$AAa?$AAn@ 0000000140093378     libucrt:get_qualified_locale.obj
 0002:00031398       ??_C@_1CI@HCFHGOFD@?$AAg?$AAe?$AAr?$AAm?$AAa?$AAn?$AA?9?$AAl?$AAi?$AAc?$AAh?$AAt?$AAe?$AAn?$AAs@ 0000000140093398     libucrt:get_qualified_locale.obj
 0002:000313c0       ??_C@_1CE@FEDDNPDG@?$AAg?$AAe?$AAr?$AAm?$AAa?$AAn?$AA?9?$AAl?$AAu?$AAx?$AAe?$AAm?$AAb?$AAo?$AAu@ 00000001400933c0     libucrt:get_qualified_locale.obj
 0002:000313e8       ??_C@_1BK@LIMINNMN@?$AAg?$AAe?$AAr?$AAm?$AAa?$AAn?$AA?9?$AAs?$AAw?$AAi?$AAs?$AAs@ 00000001400933e8     libucrt:get_qualified_locale.obj
 0002:00031408       ??_C@_1BM@LGMDBEPD@?$AAi?$AAr?$AAi?$AAs?$AAh?$AA?9?$AAe?$AAn?$AAg?$AAl?$AAi?$AAs?$AAh@ 0000000140093408     libucrt:get_qualified_locale.obj
 0002:00031428       ??_C@_1BM@NNCFBAEE@?$AAi?$AAt?$AAa?$AAl?$AAi?$AAa?$AAn?$AA?9?$AAs?$AAw?$AAi?$AAs?$AAs@ 0000000140093428     libucrt:get_qualified_locale.obj
 0002:00031448       ??_C@_1BE@FEDJNPIB@?$AAn?$AAo?$AAr?$AAw?$AAe?$AAg?$AAi?$AAa?$AAn@ 0000000140093448     libucrt:get_qualified_locale.obj
 0002:00031460       ??_C@_1CC@CILKDEIE@?$AAn?$AAo?$AAr?$AAw?$AAe?$AAg?$AAi?$AAa?$AAn?$AA?9?$AAb?$AAo?$AAk?$AAm?$AAa@ 0000000140093460     libucrt:get_qualified_locale.obj
 0002:00031488       ??_C@_1CE@DHMMHEPL@?$AAn?$AAo?$AAr?$AAw?$AAe?$AAg?$AAi?$AAa?$AAn?$AA?9?$AAn?$AAy?$AAn?$AAo?$AAr@ 0000000140093488     libucrt:get_qualified_locale.obj
 0002:000314b0       ??_C@_1CK@OPNMHECD@?$AAp?$AAo?$AAr?$AAt?$AAu?$AAg?$AAu?$AAe?$AAs?$AAe?$AA?9?$AAb?$AAr?$AAa?$AAz@ 00000001400934b0     libucrt:get_qualified_locale.obj
 0002:000314e0       ??_C@_1CE@KEEHCDB@?$AAs?$AAp?$AAa?$AAn?$AAi?$AAs?$AAh?$AA?9?$AAa?$AAr?$AAg?$AAe?$AAn?$AAt?$AAi@ 00000001400934e0     libucrt:get_qualified_locale.obj
 0002:00031508       ??_C@_1CA@GIAOLHJD@?$AAs?$AAp?$AAa?$AAn?$AAi?$AAs?$AAh?$AA?9?$AAb?$AAo?$AAl?$AAi?$AAv?$AAi?$AAa@ 0000000140093508     libucrt:get_qualified_locale.obj
 0002:00031528       ??_C@_1BM@OJNDFNPD@?$AAs?$AAp?$AAa?$AAn?$AAi?$AAs?$AAh?$AA?9?$AAc?$AAh?$AAi?$AAl?$AAe@ 0000000140093528     libucrt:get_qualified_locale.obj
 0002:00031548       ??_C@_1CC@OCOLPALL@?$AAs?$AAp?$AAa?$AAn?$AAi?$AAs?$AAh?$AA?9?$AAc?$AAo?$AAl?$AAo?$AAm?$AAb?$AAi@ 0000000140093548     libucrt:get_qualified_locale.obj
 0002:00031570       ??_C@_1CG@BPOFMKBB@?$AAs?$AAp?$AAa?$AAn?$AAi?$AAs?$AAh?$AA?9?$AAc?$AAo?$AAs?$AAt?$AAa?$AA?5?$AAr@ 0000000140093570     libucrt:get_qualified_locale.obj
 0002:00031598       ??_C@_1DG@IGOBAPBB@?$AAs?$AAp?$AAa?$AAn?$AAi?$AAs?$AAh?$AA?9?$AAd?$AAo?$AAm?$AAi?$AAn?$AAi?$AAc@ 0000000140093598     libucrt:get_qualified_locale.obj
 0002:000315d0       ??_C@_1CA@JHAPGEGI@?$AAs?$AAp?$AAa?$AAn?$AAi?$AAs?$AAh?$AA?9?$AAe?$AAc?$AAu?$AAa?$AAd?$AAo?$AAr@ 00000001400935d0     libucrt:get_qualified_locale.obj
 0002:000315f0       ??_C@_1CI@LAPALJPP@?$AAs?$AAp?$AAa?$AAn?$AAi?$AAs?$AAh?$AA?9?$AAe?$AAl?$AA?5?$AAs?$AAa?$AAl?$AAv@ 00000001400935f0     libucrt:get_qualified_locale.obj
 0002:00031618       ??_C@_1CE@PDGBOFOM@?$AAs?$AAp?$AAa?$AAn?$AAi?$AAs?$AAh?$AA?9?$AAg?$AAu?$AAa?$AAt?$AAe?$AAm?$AAa@ 0000000140093618     libucrt:get_qualified_locale.obj
 0002:00031640       ??_C@_1CC@NBEBAODI@?$AAs?$AAp?$AAa?$AAn?$AAi?$AAs?$AAh?$AA?9?$AAh?$AAo?$AAn?$AAd?$AAu?$AAr?$AAa@ 0000000140093640     libucrt:get_qualified_locale.obj
 0002:00031668       ??_C@_1CA@LLKGHBMF@?$AAs?$AAp?$AAa?$AAn?$AAi?$AAs?$AAh?$AA?9?$AAm?$AAe?$AAx?$AAi?$AAc?$AAa?$AAn@ 0000000140093668     libucrt:get_qualified_locale.obj
 0002:00031688       ??_C@_1BO@LKNDOIGD@?$AAs?$AAp?$AAa?$AAn?$AAi?$AAs?$AAh?$AA?9?$AAm?$AAo?$AAd?$AAe?$AAr?$AAn@ 0000000140093688     libucrt:get_qualified_locale.obj
 0002:000316a8       ??_C@_1CE@NMDMOEEB@?$AAs?$AAp?$AAa?$AAn?$AAi?$AAs?$AAh?$AA?9?$AAn?$AAi?$AAc?$AAa?$AAr?$AAa?$AAg@ 00000001400936a8     libucrt:get_qualified_locale.obj
 0002:000316d0       ??_C@_1BO@LLCBEJGB@?$AAs?$AAp?$AAa?$AAn?$AAi?$AAs?$AAh?$AA?9?$AAp?$AAa?$AAn?$AAa?$AAm?$AAa@ 00000001400936d0     libucrt:get_qualified_locale.obj
 0002:000316f0       ??_C@_1CC@FKPGGIHO@?$AAs?$AAp?$AAa?$AAn?$AAi?$AAs?$AAh?$AA?9?$AAp?$AAa?$AAr?$AAa?$AAg?$AAu?$AAa@ 00000001400936f0     libucrt:get_qualified_locale.obj
 0002:00031718       ??_C@_1BK@CDEIHOOP@?$AAs?$AAp?$AAa?$AAn?$AAi?$AAs?$AAh?$AA?9?$AAp?$AAe?$AAr?$AAu@ 0000000140093718     libucrt:get_qualified_locale.obj
 0002:00031738       ??_C@_1CI@GAHAKKGP@?$AAs?$AAp?$AAa?$AAn?$AAi?$AAs?$AAh?$AA?9?$AAp?$AAu?$AAe?$AAr?$AAt?$AAo?$AA?5@ 0000000140093738     libucrt:get_qualified_locale.obj
 0002:00031760       ??_C@_1CA@NKJBCAGP@?$AAs?$AAp?$AAa?$AAn?$AAi?$AAs?$AAh?$AA?9?$AAu?$AAr?$AAu?$AAg?$AAu?$AAa?$AAy@ 0000000140093760     libucrt:get_qualified_locale.obj
 0002:00031780       ??_C@_1CE@ODILCONM@?$AAs?$AAp?$AAa?$AAn?$AAi?$AAs?$AAh?$AA?9?$AAv?$AAe?$AAn?$AAe?$AAz?$AAu?$AAe@ 0000000140093780     libucrt:get_qualified_locale.obj
 0002:000317a8       ??_C@_1CA@OBNMCGFO@?$AAs?$AAw?$AAe?$AAd?$AAi?$AAs?$AAh?$AA?9?$AAf?$AAi?$AAn?$AAl?$AAa?$AAn?$AAd@ 00000001400937a8     libucrt:get_qualified_locale.obj
 0002:000317c8       ??_C@_1M@PIPDDPPI@?$AAs?$AAw?$AAi?$AAs?$AAs@ 00000001400937c8     libucrt:get_qualified_locale.obj
 0002:000317d4       ??_C@_15PJPFLCCM@?$AAu?$AAk@ 00000001400937d4     libucrt:get_qualified_locale.obj
 0002:000317dc       ??_C@_15GMFIMNFM@?$AAu?$AAs@ 00000001400937dc     libucrt:get_qualified_locale.obj
 0002:000317e8       ??_C@_17HAEBFAGL@?$AAu?$AAs?$AAa@ 00000001400937e8     libucrt:get_qualified_locale.obj
 0002:000317f0       ??_C@_1BA@DPFJEPHB@?$AAa?$AAm?$AAe?$AAr?$AAi?$AAc?$AAa@ 00000001400937f0     libucrt:get_qualified_locale.obj
 0002:00031800       ??_C@_1BA@ELOGGFK@?$AAb?$AAr?$AAi?$AAt?$AAa?$AAi?$AAn@ 0000000140093800     libucrt:get_qualified_locale.obj
 0002:00031810       ??_C@_1M@GHBGIGDA@?$AAc?$AAh?$AAi?$AAn?$AAa@ 0000000140093810     libucrt:get_qualified_locale.obj
 0002:00031820       ??_C@_1M@NCHEJOPO@?$AAc?$AAz?$AAe?$AAc?$AAh@ 0000000140093820     libucrt:get_qualified_locale.obj
 0002:00031830       ??_C@_1BA@BKPAPBLA@?$AAe?$AAn?$AAg?$AAl?$AAa?$AAn?$AAd@ 0000000140093830     libucrt:get_qualified_locale.obj
 0002:00031840       ??_C@_1BM@HKBCKIPC@?$AAg?$AAr?$AAe?$AAa?$AAt?$AA?5?$AAb?$AAr?$AAi?$AAt?$AAa?$AAi?$AAn@ 0000000140093840     libucrt:get_qualified_locale.obj
 0002:00031860       ??_C@_1BA@PPCHPGJB@?$AAh?$AAo?$AAl?$AAl?$AAa?$AAn?$AAd@ 0000000140093860     libucrt:get_qualified_locale.obj
 0002:00031870       ??_C@_1BE@JBMPEGDG@?$AAh?$AAo?$AAn?$AAg?$AA?9?$AAk?$AAo?$AAn?$AAg@ 0000000140093870     libucrt:get_qualified_locale.obj
 0002:00031888       ??_C@_1BI@KOELBBPJ@?$AAn?$AAe?$AAw?$AA?9?$AAz?$AAe?$AAa?$AAl?$AAa?$AAn?$AAd@ 0000000140093888     libucrt:get_qualified_locale.obj
 0002:000318a0       ??_C@_15HIEBHAIO@?$AAn?$AAz@ 00000001400938a0     libucrt:get_qualified_locale.obj
 0002:000318a8       ??_C@_1BC@CHBCPFPI@?$AAp?$AAr?$AA?5?$AAc?$AAh?$AAi?$AAn?$AAa@ 00000001400938a8     libucrt:get_qualified_locale.obj
 0002:000318c0       ??_C@_1BC@JAOIIFKD@?$AAp?$AAr?$AA?9?$AAc?$AAh?$AAi?$AAn?$AAa@ 00000001400938c0     libucrt:get_qualified_locale.obj
 0002:000318d8       ??_C@_1BI@BEHPPHKC@?$AAp?$AAu?$AAe?$AAr?$AAt?$AAo?$AA?9?$AAr?$AAi?$AAc?$AAo@ 00000001400938d8     libucrt:get_qualified_locale.obj
 0002:000318f0       ??_C@_1O@PAEOFKDI@?$AAs?$AAl?$AAo?$AAv?$AAa?$AAk@ 00000001400938f0     libucrt:get_qualified_locale.obj
 0002:00031900       ??_C@_1BK@FIHMCKAM@?$AAs?$AAo?$AAu?$AAt?$AAh?$AA?5?$AAa?$AAf?$AAr?$AAi?$AAc?$AAa@ 0000000140093900     libucrt:get_qualified_locale.obj
 0002:00031920       ??_C@_1BI@NAEOODKB@?$AAs?$AAo?$AAu?$AAt?$AAh?$AA?5?$AAk?$AAo?$AAr?$AAe?$AAa@ 0000000140093920     libucrt:get_qualified_locale.obj
 0002:00031938       ??_C@_1BK@FBDGGIFF@?$AAs?$AAo?$AAu?$AAt?$AAh?$AA?9?$AAa?$AAf?$AAr?$AAi?$AAc?$AAa@ 0000000140093938     libucrt:get_qualified_locale.obj
 0002:00031958       ??_C@_1BI@GHLEJDPK@?$AAs?$AAo?$AAu?$AAt?$AAh?$AA?9?$AAk?$AAo?$AAr?$AAe?$AAa@ 0000000140093958     libucrt:get_qualified_locale.obj
 0002:00031970       ??_C@_1CE@PLHLOMJF@?$AAt?$AAr?$AAi?$AAn?$AAi?$AAd?$AAa?$AAd?$AA?5?$AA?$CG?$AA?5?$AAt?$AAo?$AAb?$AAa@ 0000000140093970     libucrt:get_qualified_locale.obj
 0002:00031998       ??_C@_1BO@MODIMHHI@?$AAu?$AAn?$AAi?$AAt?$AAe?$AAd?$AA?9?$AAk?$AAi?$AAn?$AAg?$AAd?$AAo?$AAm@ 0000000140093998     libucrt:get_qualified_locale.obj
 0002:000319b8       ??_C@_1BM@FFHJONBJ@?$AAu?$AAn?$AAi?$AAt?$AAe?$AAd?$AA?9?$AAs?$AAt?$AAa?$AAt?$AAe?$AAs@ 00000001400939b8     libucrt:get_qualified_locale.obj
 0002:000319d8       ??_C@_19MPDNHKDG@?$AAu?$AAt?$AAf?$AA8@ 00000001400939d8     libucrt:get_qualified_locale.obj
 0002:000319e8       ??_C@_17DNCLJFIF@?$AAA?$AAC?$AAP@ 00000001400939e8     libucrt:get_qualified_locale.obj
 0002:000319f0       ??_C@_1M@FPEIIFAM@?$AAu?$AAt?$AAf?$AA?9?$AA8@ 00000001400939f0     libucrt:get_qualified_locale.obj
 0002:00031a00       ??_C@_17CIKBIHLH@?$AAO?$AAC?$AAP@ 0000000140093a00     libucrt:get_qualified_locale.obj
 0002:00031a08       __rglangidNotDefault       0000000140093a08     libucrt:getqloc_downlevel.obj
 0002:00031a48       ?ccs@?1???$__acrt_stdio_parse_mode@D@@YA?AU__acrt_stdio_stream_mode@@QEBD@Z@4QBDB 0000000140093a48     libucrt:openfile.obj
 0002:00031a4c       ?utf8_encoding@?1???$__acrt_stdio_parse_mode@D@@YA?AU__acrt_stdio_stream_mode@@QEBD@Z@4QBDB 0000000140093a4c     libucrt:openfile.obj
 0002:00031a58       ?utf16_encoding@?1???$__acrt_stdio_parse_mode@D@@YA?AU__acrt_stdio_stream_mode@@QEBD@Z@4QBDB 0000000140093a58     libucrt:openfile.obj
 0002:00031a60       ?unicode_encoding@?1???$__acrt_stdio_parse_mode@D@@YA?AU__acrt_stdio_stream_mode@@QEBD@Z@4QBDB 0000000140093a60     libucrt:openfile.obj
 0002:00031a68       ??_C@_05HGHHAHAP@log10@    0000000140093a68     libucrt:fpexcept.obj
 0002:000328b0       ??_C@_15EMKDOKLE@?$AAa?$AAr@ 00000001400948b0     libucrt:lcidtoname_downlevel.obj
 0002:000328b8       ??_C@_15KNPADPLH@?$AAb?$AAg@ 00000001400948b8     libucrt:lcidtoname_downlevel.obj
 0002:000328c0       ??_C@_15EDMHLDMO@?$AAc?$AAa@ 00000001400948c0     libucrt:lcidtoname_downlevel.obj
 0002:000328c8       ??_C@_1O@BPEAJADD@?$AAz?$AAh?$AA?9?$AAC?$AAH?$AAS@ 00000001400948c8     libucrt:lcidtoname_downlevel.obj
 0002:000328d8       ??_C@_15LJNHCMNK@?$AAc?$AAs@ 00000001400948d8     libucrt:lcidtoname_downlevel.obj
 0002:000328e0       ??_C@_15FOMCIDHG@?$AAd?$AAa@ 00000001400948e0     libucrt:lcidtoname_downlevel.obj
 0002:000328e8       ??_C@_15NBKABECB@?$AAd?$AAe@ 00000001400948e8     libucrt:lcidtoname_downlevel.obj
 0002:000328f0       ??_C@_15GHPEIIAO@?$AAe?$AAl@ 00000001400948f0     libucrt:lcidtoname_downlevel.obj
 0002:000328f8       ??_C@_15MNPNEAIF@?$AAe?$AAn@ 00000001400948f8     libucrt:lcidtoname_downlevel.obj
 0002:00032900       ??_C@_15GPIOMPMH@?$AAe?$AAs@ 0000000140094900     libucrt:lcidtoname_downlevel.obj
 0002:00032908       ??_C@_15NGLOAKJC@?$AAf?$AAi@ 0000000140094908     libucrt:lcidtoname_downlevel.obj
 0002:00032910       ??_C@_15FBKGNKAM@?$AAf?$AAr@ 0000000140094910     libucrt:lcidtoname_downlevel.obj
 0002:00032918       ??_C@_15KGGCNEFK@?$AAh?$AAe@ 0000000140094918     libucrt:lcidtoname_downlevel.obj
 0002:00032920       ??_C@_15PGHLIDMF@?$AAh?$AAu@ 0000000140094920     libucrt:lcidtoname_downlevel.obj
 0002:00032928       ??_C@_15BIEMAPLM@?$AAi?$AAs@ 0000000140094928     libucrt:lcidtoname_downlevel.obj
 0002:00032930       ??_C@_15IFJLDHAF@?$AAi?$AAt@ 0000000140094930     libucrt:lcidtoname_downlevel.obj
 0002:00032938       ??_C@_15GEMIOCAG@?$AAj?$AAa@ 0000000140094938     libucrt:lcidtoname_downlevel.obj
 0002:00032940       ??_C@_15EPELEGJA@?$AAk?$AAo@ 0000000140094940     libucrt:lcidtoname_downlevel.obj
 0002:00032948       ??_C@_15NDDHIMN@?$AAn?$AAl@ 0000000140094948     libucrt:lcidtoname_downlevel.obj
 0002:00032950       ??_C@_15BPIGNHCD@?$AAn?$AAo@ 0000000140094950     libucrt:lcidtoname_downlevel.obj
 0002:00032958       ??_C@_15DEOPBLCG@?$AAp?$AAl@ 0000000140094958     libucrt:lcidtoname_downlevel.obj
 0002:00032960       ??_C@_15KBECGEFG@?$AAp?$AAt@ 0000000140094960     libucrt:lcidtoname_downlevel.obj
 0002:00032968       ??_C@_15GLJCBFMD@?$AAr?$AAo@ 0000000140094968     libucrt:lcidtoname_downlevel.obj
 0002:00032970       ??_C@_15FEDGKCDI@?$AAr?$AAu@ 0000000140094970     libucrt:lcidtoname_downlevel.obj
 0002:00032978       ??_C@_15GLKMLLHM@?$AAh?$AAr@ 0000000140094978     libucrt:lcidtoname_downlevel.obj
 0002:00032980       ??_C@_15CPKMFBDB@?$AAs?$AAk@ 0000000140094980     libucrt:lcidtoname_downlevel.obj
 0002:00032988       ??_C@_15BAAIOGMK@?$AAs?$AAq@ 0000000140094988     libucrt:lcidtoname_downlevel.obj
 0002:00032990       ??_C@_15INNPNOHD@?$AAs?$AAv@ 0000000140094990     libucrt:lcidtoname_downlevel.obj
 0002:00032998       ??_C@_15CABMMOGH@?$AAt?$AAh@ 0000000140094998     libucrt:lcidtoname_downlevel.obj
 0002:000329a0       ??_C@_15BPLIHJJM@?$AAt?$AAr@ 00000001400949a0     libucrt:lcidtoname_downlevel.obj
 0002:000329a8       ??_C@_15NEOEKKDJ@?$AAu?$AAr@ 00000001400949a8     libucrt:lcidtoname_downlevel.obj
 0002:000329b0       ??_C@_15NFICGAJK@?$AAi?$AAd@ 00000001400949b0     libucrt:lcidtoname_downlevel.obj
 0002:000329b8       ??_C@_15HPJPHDM@?$AAb?$AAe@ 00000001400949b8     libucrt:lcidtoname_downlevel.obj
 0002:000329c0       ??_C@_15LCHLGJII@?$AAs?$AAl@ 00000001400949c0     libucrt:lcidtoname_downlevel.obj
 0002:000329c8       ??_C@_15PCFJPHHO@?$AAe?$AAt@ 00000001400949c8     libucrt:lcidtoname_downlevel.obj
 0002:000329d0       ??_C@_15HPFPGODN@?$AAl?$AAv@ 00000001400949d0     libucrt:lcidtoname_downlevel.obj
 0002:000329d8       ??_C@_15NFFGKGLG@?$AAl?$AAt@ 00000001400949d8     libucrt:lcidtoname_downlevel.obj
 0002:000329e0       ??_C@_15BDAKCCHN@?$AAf?$AAa@ 00000001400949e0     libucrt:lcidtoname_downlevel.obj
 0002:000329e8       ??_C@_15NFGIAIAJ@?$AAv?$AAi@ 00000001400949e8     libucrt:lcidtoname_downlevel.obj
 0002:000329f0       ??_C@_15LMKNDMHN@?$AAh?$AAy@ 00000001400949f0     libucrt:lcidtoname_downlevel.obj
 0002:000329f8       ??_C@_15IJBHMCFL@?$AAa?$AAz@ 00000001400949f8     libucrt:lcidtoname_downlevel.obj
 0002:00032a00       ??_C@_15EKOFJABL@?$AAe?$AAu@ 0000000140094a00     libucrt:lcidtoname_downlevel.obj
 0002:00032a08       ??_C@_15BGHADCNK@?$AAm?$AAk@ 0000000140094a08     libucrt:lcidtoname_downlevel.obj
 0002:00032a10       ??_C@_15JDNICKHM@?$AAa?$AAf@ 0000000140094a10     libucrt:lcidtoname_downlevel.obj
 0002:00032a18       ??_C@_15KPJEDBKD@?$AAk?$AAa@ 0000000140094a18     libucrt:lcidtoname_downlevel.obj
 0002:00032a20       ??_C@_15PDNFFFEO@?$AAf?$AAo@ 0000000140094a20     libucrt:lcidtoname_downlevel.obj
 0002:00032a28       ??_C@_15OMLEGLOC@?$AAh?$AAi@ 0000000140094a28     libucrt:lcidtoname_downlevel.obj
 0002:00032a30       ??_C@_15IDNNENKK@?$AAm?$AAs@ 0000000140094a30     libucrt:lcidtoname_downlevel.obj
 0002:00032a38       ??_C@_15MACJNBMH@?$AAk?$AAk@ 0000000140094a38     libucrt:lcidtoname_downlevel.obj
 0002:00032a40       ??_C@_15DKDJEOND@?$AAk?$AAy@ 0000000140094a40     libucrt:lcidtoname_downlevel.obj
 0002:00032a48       ??_C@_15DFGDLJBG@?$AAs?$AAw@ 0000000140094a48     libucrt:lcidtoname_downlevel.obj
 0002:00032a50       ??_C@_15BBFAICNG@?$AAu?$AAz@ 0000000140094a50     libucrt:lcidtoname_downlevel.obj
 0002:00032a58       ??_C@_15DKNDCGEA@?$AAt?$AAt@ 0000000140094a58     libucrt:lcidtoname_downlevel.obj
 0002:00032a60       ??_C@_15MGIFMDPL@?$AAp?$AAa@ 0000000140094a60     libucrt:lcidtoname_downlevel.obj
 0002:00032a68       ??_C@_15HCNDBBA@?$AAg?$AAu@ 0000000140094a68     libucrt:lcidtoname_downlevel.obj
 0002:00032a70       ??_C@_15FNBEIBON@?$AAt?$AAa@ 0000000140094a70     libucrt:lcidtoname_downlevel.obj
 0002:00032a78       ??_C@_15NCHGBGLK@?$AAt?$AAe@ 0000000140094a78     libucrt:lcidtoname_downlevel.obj
 0002:00032a80       ??_C@_15PHPHCBPF@?$AAk?$AAn@ 0000000140094a80     libucrt:lcidtoname_downlevel.obj
 0002:00032a88       ??_C@_15DLGBCKMP@?$AAm?$AAr@ 0000000140094a88     libucrt:lcidtoname_downlevel.obj
 0002:00032a90       ??_C@_15EABBLBFF@?$AAs?$AAa@ 0000000140094a90     libucrt:lcidtoname_downlevel.obj
 0002:00032a98       ??_C@_15CBKOMCOI@?$AAm?$AAn@ 0000000140094a98     libucrt:lcidtoname_downlevel.obj
 0002:00032aa0       ??_C@_15CKDMCJAF@?$AAg?$AAl@ 0000000140094aa0     libucrt:lcidtoname_downlevel.obj
 0002:00032aa8       ??_C@_17CNJFBPG@?$AAk?$AAo?$AAk@ 0000000140094aa8     libucrt:lcidtoname_downlevel.obj
 0002:00032ab0       ??_C@_17FFBJICPL@?$AAs?$AAy?$AAr@ 0000000140094ab0     libucrt:lcidtoname_downlevel.obj
 0002:00032ab8       ??_C@_17KPNDCPAF@?$AAd?$AAi?$AAv@ 0000000140094ab8     libucrt:lcidtoname_downlevel.obj
 0002:00032ac0       ??_C@_1M@OKAHONE@?$AAa?$AAr?$AA?9?$AAS?$AAA@ 0000000140094ac0     libucrt:lcidtoname_downlevel.obj
 0002:00032ad0       ??_C@_1M@FFFIGIGK@?$AAb?$AAg?$AA?9?$AAB?$AAG@ 0000000140094ad0     libucrt:lcidtoname_downlevel.obj
 0002:00032ae0       ??_C@_1M@BJNKEDC@?$AAc?$AAa?$AA?9?$AAE?$AAS@ 0000000140094ae0     libucrt:lcidtoname_downlevel.obj
 0002:00032af0       ??_C@_1M@IJJHFJHA@?$AAc?$AAs?$AA?9?$AAC?$AAZ@ 0000000140094af0     libucrt:lcidtoname_downlevel.obj
 0002:00032b00       ??_C@_1M@CLPEOBGI@?$AAd?$AAa?$AA?9?$AAD?$AAK@ 0000000140094b00     libucrt:lcidtoname_downlevel.obj
 0002:00032b10       ??_C@_1M@MCMADGCB@?$AAd?$AAe?$AA?9?$AAD?$AAE@ 0000000140094b10     libucrt:lcidtoname_downlevel.obj
 0002:00032b20       ??_C@_1M@OOCKEMAM@?$AAe?$AAl?$AA?9?$AAG?$AAR@ 0000000140094b20     libucrt:lcidtoname_downlevel.obj
 0002:00032b30       ??_C@_1M@DDNJFGID@?$AAf?$AAi?$AA?9?$AAF?$AAI@ 0000000140094b30     libucrt:lcidtoname_downlevel.obj
 0002:00032b40       ??_C@_1M@GLIPPMAC@?$AAf?$AAr?$AA?9?$AAF?$AAR@ 0000000140094b40     libucrt:lcidtoname_downlevel.obj
 0002:00032b50       ??_C@_1M@GFMCHPE@?$AAh?$AAe?$AA?9?$AAI?$AAL@ 0000000140094b50     libucrt:lcidtoname_downlevel.obj
 0002:00032b60       ??_C@_1M@MHLPGNKM@?$AAh?$AAu?$AA?9?$AAH?$AAU@ 0000000140094b60     libucrt:lcidtoname_downlevel.obj
 0002:00032b70       ??_C@_1M@LPDDNNPN@?$AAi?$AAs?$AA?9?$AAI?$AAS@ 0000000140094b70     libucrt:lcidtoname_downlevel.obj
 0002:00032b80       ??_C@_1M@MADIPODN@?$AAi?$AAt?$AA?9?$AAI?$AAT@ 0000000140094b80     libucrt:lcidtoname_downlevel.obj
 0002:00032b90       ??_C@_1M@IHBJJGG@?$AAn?$AAl?$AA?9?$AAN?$AAL@ 0000000140094b90     libucrt:lcidtoname_downlevel.obj
 0002:00032ba0       ??_C@_1M@EANAGDL@?$AAn?$AAb?$AA?9?$AAN?$AAO@ 0000000140094ba0     libucrt:lcidtoname_downlevel.obj
 0002:00032bb0       ??_C@_1M@NEIEMEGP@?$AAp?$AAl?$AA?9?$AAP?$AAL@ 0000000140094bb0     libucrt:lcidtoname_downlevel.obj
 0002:00032bc0       ??_C@_1M@BOCFIGEP@?$AAp?$AAt?$AA?9?$AAB?$AAR@ 0000000140094bc0     libucrt:lcidtoname_downlevel.obj
 0002:00032bd0       ??_C@_1M@IMPFOPBG@?$AAr?$AAo?$AA?9?$AAR?$AAO@ 0000000140094bd0     libucrt:lcidtoname_downlevel.obj
 0002:00032be0       ??_C@_1M@IDNNEJMM@?$AAr?$AAu?$AA?9?$AAR?$AAU@ 0000000140094be0     libucrt:lcidtoname_downlevel.obj
 0002:00032bf0       ??_C@_1M@LILEEOGM@?$AAh?$AAr?$AA?9?$AAH?$AAR@ 0000000140094bf0     libucrt:lcidtoname_downlevel.obj
 0002:00032c00       ??_C@_1M@FKIFEHPB@?$AAs?$AAk?$AA?9?$AAS?$AAK@ 0000000140094c00     libucrt:lcidtoname_downlevel.obj
 0002:00032c10       ??_C@_1M@LJMAMNPJ@?$AAs?$AAq?$AA?9?$AAA?$AAL@ 0000000140094c10     libucrt:lcidtoname_downlevel.obj
 0002:00032c20       ??_C@_1M@GIAKDKJK@?$AAs?$AAv?$AA?9?$AAS?$AAE@ 0000000140094c20     libucrt:lcidtoname_downlevel.obj
 0002:00032c30       ??_C@_1M@MKJKIKCL@?$AAt?$AAh?$AA?9?$AAT?$AAH@ 0000000140094c30     libucrt:lcidtoname_downlevel.obj
 0002:00032c40       ??_C@_1M@MFLCCMPB@?$AAt?$AAr?$AA?9?$AAT?$AAR@ 0000000140094c40     libucrt:lcidtoname_downlevel.obj
 0002:00032c50       ??_C@_1M@OIJHDKJN@?$AAu?$AAr?$AA?9?$AAP?$AAK@ 0000000140094c50     libucrt:lcidtoname_downlevel.obj
 0002:00032c60       ??_C@_1M@LHIPCIEK@?$AAi?$AAd?$AA?9?$AAI?$AAD@ 0000000140094c60     libucrt:lcidtoname_downlevel.obj
 0002:00032c70       ??_C@_1M@MFMOBGI@?$AAu?$AAk?$AA?9?$AAU?$AAA@ 0000000140094c70     libucrt:lcidtoname_downlevel.obj
 0002:00032c80       ??_C@_1M@OBGLJIPL@?$AAb?$AAe?$AA?9?$AAB?$AAY@ 0000000140094c80     libucrt:lcidtoname_downlevel.obj
 0002:00032c90       ??_C@_1M@BCFAJEAD@?$AAs?$AAl?$AA?9?$AAS?$AAI@ 0000000140094c90     libucrt:lcidtoname_downlevel.obj
 0002:00032ca0       ??_C@_1M@FKFFEDDN@?$AAe?$AAt?$AA?9?$AAE?$AAE@ 0000000140094ca0     libucrt:lcidtoname_downlevel.obj
 0002:00032cb0       ??_C@_1M@KGKKAACI@?$AAl?$AAv?$AA?9?$AAL?$AAV@ 0000000140094cb0     libucrt:lcidtoname_downlevel.obj
 0002:00032cc0       ??_C@_1M@IFGBIJO@?$AAl?$AAt?$AA?9?$AAL?$AAT@ 0000000140094cc0     libucrt:lcidtoname_downlevel.obj
 0002:00032cd0       ??_C@_1M@FGEAHEDM@?$AAf?$AAa?$AA?9?$AAI?$AAR@ 0000000140094cd0     libucrt:lcidtoname_downlevel.obj
 0002:00032ce0       ??_C@_1M@KBMAIBFN@?$AAv?$AAi?$AA?9?$AAV?$AAN@ 0000000140094ce0     libucrt:lcidtoname_downlevel.obj
 0002:00032cf0       ??_C@_1M@GPCBKDJK@?$AAh?$AAy?$AA?9?$AAA?$AAM@ 0000000140094cf0     libucrt:lcidtoname_downlevel.obj
 0002:00032d00       ??_C@_1BG@BECMDDJB@?$AAa?$AAz?$AA?9?$AAA?$AAZ?$AA?9?$AAL?$AAa?$AAt?$AAn@ 0000000140094d00     libucrt:lcidtoname_downlevel.obj
 0002:00032d18       ??_C@_1M@MAOFCAEA@?$AAe?$AAu?$AA?9?$AAE?$AAS@ 0000000140094d18     libucrt:lcidtoname_downlevel.obj
 0002:00032d28       ??_C@_1M@IGHABKPI@?$AAm?$AAk?$AA?9?$AAM?$AAK@ 0000000140094d28     libucrt:lcidtoname_downlevel.obj
 0002:00032d38       ??_C@_1M@IAIGNEJG@?$AAt?$AAn?$AA?9?$AAZ?$AAA@ 0000000140094d38     libucrt:lcidtoname_downlevel.obj
 0002:00032d48       ??_C@_1M@IIJCOJFA@?$AAx?$AAh?$AA?9?$AAZ?$AAA@ 0000000140094d48     libucrt:lcidtoname_downlevel.obj
 0002:00032d58       ??_C@_1M@LGPJHNJH@?$AAz?$AAu?$AA?9?$AAZ?$AAA@ 0000000140094d58     libucrt:lcidtoname_downlevel.obj
 0002:00032d68       ??_C@_1M@HOKAOIO@?$AAa?$AAf?$AA?9?$AAZ?$AAA@ 0000000140094d68     libucrt:lcidtoname_downlevel.obj
 0002:00032d78       ??_C@_1M@DPCLHLIE@?$AAk?$AAa?$AA?9?$AAG?$AAE@ 0000000140094d78     libucrt:lcidtoname_downlevel.obj
 0002:00032d88       ??_C@_1M@BLKMHJBI@?$AAf?$AAo?$AA?9?$AAF?$AAO@ 0000000140094d88     libucrt:lcidtoname_downlevel.obj
 0002:00032d98       ??_C@_1M@LGGJAPPB@?$AAh?$AAi?$AA?9?$AAI?$AAN@ 0000000140094d98     libucrt:lcidtoname_downlevel.obj
 0002:00032da8       ??_C@_1M@FIKPIHFE@?$AAm?$AAt?$AA?9?$AAM?$AAT@ 0000000140094da8     libucrt:lcidtoname_downlevel.obj
 0002:00032db8       ??_C@_1M@HEGGPBFA@?$AAs?$AAe?$AA?9?$AAN?$AAO@ 0000000140094db8     libucrt:lcidtoname_downlevel.obj
 0002:00032dc8       ??_C@_1M@EIBJEEPA@?$AAm?$AAs?$AA?9?$AAM?$AAY@ 0000000140094dc8     libucrt:lcidtoname_downlevel.obj
 0002:00032dd8       ??_C@_1M@FHLBGMPP@?$AAk?$AAk?$AA?9?$AAK?$AAZ@ 0000000140094dd8     libucrt:lcidtoname_downlevel.obj
 0002:00032de8       ??_C@_1M@NGJJLCGI@?$AAk?$AAy?$AA?9?$AAK?$AAG@ 0000000140094de8     libucrt:lcidtoname_downlevel.obj
 0002:00032df8       ??_C@_1M@GIENNBFC@?$AAs?$AAw?$AA?9?$AAK?$AAE@ 0000000140094df8     libucrt:lcidtoname_downlevel.obj
 0002:00032e08       ??_C@_1BG@NDGMJIMJ@?$AAu?$AAz?$AA?9?$AAU?$AAZ?$AA?9?$AAL?$AAa?$AAt?$AAn@ 0000000140094e08     libucrt:lcidtoname_downlevel.obj
 0002:00032e20       ??_C@_1M@IDCCIHBC@?$AAt?$AAt?$AA?9?$AAR?$AAU@ 0000000140094e20     libucrt:lcidtoname_downlevel.obj
 0002:00032e30       ??_C@_1M@LOICPMOJ@?$AAb?$AAn?$AA?9?$AAI?$AAN@ 0000000140094e30     libucrt:lcidtoname_downlevel.obj
 0002:00032e40       ??_C@_1M@KPKKNEAH@?$AAp?$AAa?$AA?9?$AAI?$AAN@ 0000000140094e40     libucrt:lcidtoname_downlevel.obj
 0002:00032e50       ??_C@_1M@PJGPPBOG@?$AAg?$AAu?$AA?9?$AAI?$AAN@ 0000000140094e50     libucrt:lcidtoname_downlevel.obj
 0002:00032e60       ??_C@_1M@KMKMOPHI@?$AAt?$AAa?$AA?9?$AAI?$AAN@ 0000000140094e60     libucrt:lcidtoname_downlevel.obj
 0002:00032e70       ??_C@_1M@KFEHEPAC@?$AAt?$AAe?$AA?9?$AAI?$AAN@ 0000000140094e70     libucrt:lcidtoname_downlevel.obj
 0002:00032e80       ??_C@_1M@CDCLMGHI@?$AAk?$AAn?$AA?9?$AAI?$AAN@ 0000000140094e80     libucrt:lcidtoname_downlevel.obj
 0002:00032e90       ??_C@_1M@MIODLDKF@?$AAm?$AAl?$AA?9?$AAI?$AAN@ 0000000140094e90     libucrt:lcidtoname_downlevel.obj
 0002:00032ea0       ??_C@_1M@PBIEACPO@?$AAm?$AAr?$AA?9?$AAI?$AAN@ 0000000140094ea0     libucrt:lcidtoname_downlevel.obj
 0002:00032eb0       ??_C@_1M@NIDEAGPH@?$AAs?$AAa?$AA?9?$AAI?$AAN@ 0000000140094eb0     libucrt:lcidtoname_downlevel.obj
 0002:00032ec0       ??_C@_1M@FHIHCBIO@?$AAm?$AAn?$AA?9?$AAM?$AAN@ 0000000140094ec0     libucrt:lcidtoname_downlevel.obj
 0002:00032ed0       ??_C@_1M@JAIJPENP@?$AAc?$AAy?$AA?9?$AAG?$AAB@ 0000000140094ed0     libucrt:lcidtoname_downlevel.obj
 0002:00032ee0       ??_C@_1M@PHGFBEPN@?$AAg?$AAl?$AA?9?$AAE?$AAS@ 0000000140094ee0     libucrt:lcidtoname_downlevel.obj
 0002:00032ef0       ??_C@_1O@KPIPDNCP@?$AAk?$AAo?$AAk?$AA?9?$AAI?$AAN@ 0000000140094ef0     libucrt:lcidtoname_downlevel.obj
 0002:00032f00       ??_C@_1O@KNHJLDJA@?$AAs?$AAy?$AAr?$AA?9?$AAS?$AAY@ 0000000140094f00     libucrt:lcidtoname_downlevel.obj
 0002:00032f10       ??_C@_1O@MKEKBLAH@?$AAd?$AAi?$AAv?$AA?9?$AAM?$AAV@ 0000000140094f10     libucrt:lcidtoname_downlevel.obj
 0002:00032f20       ??_C@_1O@OHDCKDDF@?$AAq?$AAu?$AAz?$AA?9?$AAB?$AAO@ 0000000140094f20     libucrt:lcidtoname_downlevel.obj
 0002:00032f30       ??_C@_1M@LEPJNLFD@?$AAn?$AAs?$AA?9?$AAZ?$AAA@ 0000000140094f30     libucrt:lcidtoname_downlevel.obj
 0002:00032f40       ??_C@_1M@OMLEIIJB@?$AAm?$AAi?$AA?9?$AAN?$AAZ@ 0000000140094f40     libucrt:lcidtoname_downlevel.obj
 0002:00032f50       ??_C@_1M@PMPEAILG@?$AAa?$AAr?$AA?9?$AAI?$AAQ@ 0000000140094f50     libucrt:lcidtoname_downlevel.obj
 0002:00032f60       ??_C@_1M@CNKPNOEE@?$AAd?$AAe?$AA?9?$AAC?$AAH@ 0000000140094f60     libucrt:lcidtoname_downlevel.obj
 0002:00032f70       ??_C@_1M@LKMGMLKO@?$AAe?$AAn?$AA?9?$AAG?$AAB@ 0000000140094f70     libucrt:lcidtoname_downlevel.obj
 0002:00032f80       ??_C@_1M@PGKJFFGL@?$AAe?$AAs?$AA?9?$AAM?$AAX@ 0000000140094f80     libucrt:lcidtoname_downlevel.obj
 0002:00032f90       ??_C@_1M@DNNANBDC@?$AAf?$AAr?$AA?9?$AAB?$AAE@ 0000000140094f90     libucrt:lcidtoname_downlevel.obj
 0002:00032fa0       ??_C@_1M@HLGMDFHM@?$AAi?$AAt?$AA?9?$AAC?$AAH@ 0000000140094fa0     libucrt:lcidtoname_downlevel.obj
 0002:00032fb0       ??_C@_1M@CLLBGJH@?$AAn?$AAl?$AA?9?$AAB?$AAE@ 0000000140094fb0     libucrt:lcidtoname_downlevel.obj
 0002:00032fc0       ??_C@_1M@BODBOGLF@?$AAn?$AAn?$AA?9?$AAN?$AAO@ 0000000140094fc0     libucrt:lcidtoname_downlevel.obj
 0002:00032fd0       ??_C@_1M@HFFAHKAD@?$AAp?$AAt?$AA?9?$AAP?$AAT@ 0000000140094fd0     libucrt:lcidtoname_downlevel.obj
 0002:00032fe0       ??_C@_1BG@LNOAKHIE@?$AAs?$AAr?$AA?9?$AAS?$AAP?$AA?9?$AAL?$AAa?$AAt?$AAn@ 0000000140094fe0     libucrt:lcidtoname_downlevel.obj
 0002:00032ff8       ??_C@_1M@HBMHBGAK@?$AAs?$AAv?$AA?9?$AAF?$AAI@ 0000000140094ff8     libucrt:lcidtoname_downlevel.obj
 0002:00033008       ??_C@_1BG@DGCJGJBE@?$AAa?$AAz?$AA?9?$AAA?$AAZ?$AA?9?$AAC?$AAy?$AAr?$AAl@ 0000000140095008     libucrt:lcidtoname_downlevel.obj
 0002:00033020       ??_C@_1M@KEJDAAHB@?$AAs?$AAe?$AA?9?$AAS?$AAE@ 0000000140095020     libucrt:lcidtoname_downlevel.obj
 0002:00033030       ??_C@_1M@HEIBJJAD@?$AAm?$AAs?$AA?9?$AAB?$AAN@ 0000000140095030     libucrt:lcidtoname_downlevel.obj
 0002:00033040       ??_C@_1BG@PBGJMCEM@?$AAu?$AAz?$AA?9?$AAU?$AAZ?$AA?9?$AAC?$AAy?$AAr?$AAl@ 0000000140095040     libucrt:lcidtoname_downlevel.obj
 0002:00033058       ??_C@_1O@LAOBCMDF@?$AAq?$AAu?$AAz?$AA?9?$AAE?$AAC@ 0000000140095058     libucrt:lcidtoname_downlevel.obj
 0002:00033068       ??_C@_1M@POEEMAIO@?$AAa?$AAr?$AA?9?$AAE?$AAG@ 0000000140095068     libucrt:lcidtoname_downlevel.obj
 0002:00033078       ??_C@_1M@EFAKDEDL@?$AAz?$AAh?$AA?9?$AAH?$AAK@ 0000000140095078     libucrt:lcidtoname_downlevel.obj
 0002:00033088       ??_C@_1M@HKKIJHGI@?$AAd?$AAe?$AA?9?$AAA?$AAT@ 0000000140095088     libucrt:lcidtoname_downlevel.obj
 0002:00033098       ??_C@_1M@KBFBEHJF@?$AAe?$AAn?$AA?9?$AAA?$AAU@ 0000000140095098     libucrt:lcidtoname_downlevel.obj
 0002:000330a8       ??_C@_1M@MNPLFAAH@?$AAe?$AAs?$AA?9?$AAE?$AAS@ 00000001400950a8     libucrt:lcidtoname_downlevel.obj
 0002:000330b8       ??_C@_1M@HJOOJFMA@?$AAf?$AAr?$AA?9?$AAC?$AAA@ 00000001400950b8     libucrt:lcidtoname_downlevel.obj
 0002:000330c8       ??_C@_1BG@JPOFPNAB@?$AAs?$AAr?$AA?9?$AAS?$AAP?$AA?9?$AAC?$AAy?$AAr?$AAl@ 00000001400950c8     libucrt:lcidtoname_downlevel.obj
 0002:000330e0       ??_C@_1M@LNFOCMOB@?$AAs?$AAe?$AA?9?$AAF?$AAI@ 00000001400950e0     libucrt:lcidtoname_downlevel.obj
 0002:000330f0       ??_C@_1O@MGJBOAMB@?$AAq?$AAu?$AAz?$AA?9?$AAP?$AAE@ 00000001400950f0     libucrt:lcidtoname_downlevel.obj
 0002:00033100       ??_C@_1M@GJINLBOK@?$AAa?$AAr?$AA?9?$AAL?$AAY@ 0000000140095100     libucrt:lcidtoname_downlevel.obj
 0002:00033110       ??_C@_1M@GGMNHJNL@?$AAz?$AAh?$AA?9?$AAS?$AAG@ 0000000140095110     libucrt:lcidtoname_downlevel.obj
 0002:00033120       ??_C@_1M@HOIKODND@?$AAd?$AAe?$AA?9?$AAL?$AAU@ 0000000140095120     libucrt:lcidtoname_downlevel.obj
 0002:00033130       ??_C@_1M@DDOCCGFG@?$AAe?$AAn?$AA?9?$AAC?$AAA@ 0000000140095130     libucrt:lcidtoname_downlevel.obj
 0002:00033140       ??_C@_1M@BNOEMJLF@?$AAe?$AAs?$AA?9?$AAG?$AAT@ 0000000140095140     libucrt:lcidtoname_downlevel.obj
 0002:00033150       ??_C@_1M@EOGNKEK@?$AAf?$AAr?$AA?9?$AAC?$AAH@ 0000000140095150     libucrt:lcidtoname_downlevel.obj
 0002:00033160       ??_C@_1M@FLIDJFHL@?$AAh?$AAr?$AA?9?$AAB?$AAA@ 0000000140095160     libucrt:lcidtoname_downlevel.obj
 0002:00033170       ??_C@_1O@FMCELNAJ@?$AAs?$AAm?$AAj?$AA?9?$AAN?$AAO@ 0000000140095170     libucrt:lcidtoname_downlevel.obj
 0002:00033180       ??_C@_1M@JHGLJMGJ@?$AAa?$AAr?$AA?9?$AAD?$AAZ@ 0000000140095180     libucrt:lcidtoname_downlevel.obj
 0002:00033190       ??_C@_1M@JKKFDCNP@?$AAz?$AAh?$AA?9?$AAM?$AAO@ 0000000140095190     libucrt:lcidtoname_downlevel.obj
 0002:000331a0       ??_C@_1M@GEEFALPE@?$AAd?$AAe?$AA?9?$AAL?$AAI@ 00000001400951a0     libucrt:lcidtoname_downlevel.obj
 0002:000331b0       ??_C@_1M@IGEOFBG@?$AAe?$AAn?$AA?9?$AAN?$AAZ@ 00000001400951b0     libucrt:lcidtoname_downlevel.obj
 0002:000331c0       ??_C@_1M@KDBONEHP@?$AAe?$AAs?$AA?9?$AAC?$AAR@ 00000001400951c0     libucrt:lcidtoname_downlevel.obj
 0002:000331d0       ??_C@_1M@FHMDOHNN@?$AAf?$AAr?$AA?9?$AAL?$AAU@ 00000001400951d0     libucrt:lcidtoname_downlevel.obj
 0002:000331e0       ??_C@_1BG@NFKKMAFG@?$AAb?$AAs?$AA?9?$AAB?$AAA?$AA?9?$AAL?$AAa?$AAt?$AAn@ 00000001400951e0     libucrt:lcidtoname_downlevel.obj
 0002:000331f8       ??_C@_1O@IMNBEMCI@?$AAs?$AAm?$AAj?$AA?9?$AAS?$AAE@ 00000001400951f8     libucrt:lcidtoname_downlevel.obj
 0002:00033208       ??_C@_1M@DHHMBNDP@?$AAa?$AAr?$AA?9?$AAM?$AAA@ 0000000140095208     libucrt:lcidtoname_downlevel.obj
 0002:00033218       ??_C@_1M@BNBLJCGH@?$AAe?$AAn?$AA?9?$AAI?$AAE@ 0000000140095218     libucrt:lcidtoname_downlevel.obj
 0002:00033228       ??_C@_1M@GEPAFMDL@?$AAe?$AAs?$AA?9?$AAP?$AAA@ 0000000140095228     libucrt:lcidtoname_downlevel.obj
 0002:00033238       ??_C@_1M@OJONDMDL@?$AAf?$AAr?$AA?9?$AAM?$AAC@ 0000000140095238     libucrt:lcidtoname_downlevel.obj
 0002:00033248       ??_C@_1BG@OBCNFJB@?$AAs?$AAr?$AA?9?$AAB?$AAA?$AA?9?$AAL?$AAa?$AAt?$AAn@ 0000000140095248     libucrt:lcidtoname_downlevel.obj
 0002:00033260       ??_C@_1O@KEMEEGPO@?$AAs?$AAm?$AAa?$AA?9?$AAN?$AAO@ 0000000140095260     libucrt:lcidtoname_downlevel.obj
 0002:00033270       ??_C@_1M@ELMGFODK@?$AAa?$AAr?$AA?9?$AAT?$AAN@ 0000000140095270     libucrt:lcidtoname_downlevel.obj
 0002:00033280       ??_C@_1M@BHDLHFAF@?$AAe?$AAn?$AA?9?$AAZ?$AAA@ 0000000140095280     libucrt:lcidtoname_downlevel.obj
 0002:00033290       ??_C@_1M@BMGIGLIF@?$AAe?$AAs?$AA?9?$AAD?$AAO@ 0000000140095290     libucrt:lcidtoname_downlevel.obj
 0002:000332a0       ??_C@_1BG@CMBHIPBE@?$AAs?$AAr?$AA?9?$AAB?$AAA?$AA?9?$AAC?$AAy?$AAr?$AAl@ 00000001400952a0     libucrt:lcidtoname_downlevel.obj
 0002:000332b8       ??_C@_1O@HEDBLHNP@?$AAs?$AAm?$AAa?$AA?9?$AAS?$AAE@ 00000001400952b8     libucrt:lcidtoname_downlevel.obj
 0002:000332c8       ??_C@_1M@DAGCADIM@?$AAa?$AAr?$AA?9?$AAO?$AAM@ 00000001400952c8     libucrt:lcidtoname_downlevel.obj
 0002:000332d8       ??_C@_1M@FODLMICG@?$AAe?$AAn?$AA?9?$AAJ?$AAM@ 00000001400952d8     libucrt:lcidtoname_downlevel.obj
 0002:000332e8       ??_C@_1M@DNMLCIHB@?$AAe?$AAs?$AA?9?$AAV?$AAE@ 00000001400952e8     libucrt:lcidtoname_downlevel.obj
 0002:000332f8       ??_C@_1O@EOKHMKJK@?$AAs?$AAm?$AAs?$AA?9?$AAF?$AAI@ 00000001400952f8     libucrt:lcidtoname_downlevel.obj
 0002:00033308       ??_C@_1M@CAFJMKOF@?$AAa?$AAr?$AA?9?$AAY?$AAE@ 0000000140095308     libucrt:lcidtoname_downlevel.obj
 0002:00033318       ??_C@_1M@CBFHIJLI@?$AAe?$AAn?$AA?9?$AAC?$AAB@ 0000000140095318     libucrt:lcidtoname_downlevel.obj
 0002:00033328       ??_C@_1M@BGNFLDN@?$AAe?$AAs?$AA?9?$AAC?$AAO@ 0000000140095328     libucrt:lcidtoname_downlevel.obj
 0002:00033338       ??_C@_1O@JMPHMAMC@?$AAs?$AAm?$AAn?$AA?9?$AAF?$AAI@ 0000000140095338     libucrt:lcidtoname_downlevel.obj
 0002:00033348       ??_C@_1M@JLANABKE@?$AAa?$AAr?$AA?9?$AAS?$AAY@ 0000000140095348     libucrt:lcidtoname_downlevel.obj
 0002:00033358       ??_C@_1M@HPKGCFGN@?$AAe?$AAn?$AA?9?$AAB?$AAZ@ 0000000140095358     libucrt:lcidtoname_downlevel.obj
 0002:00033368       ??_C@_1M@OLJCMLGM@?$AAe?$AAs?$AA?9?$AAP?$AAE@ 0000000140095368     libucrt:lcidtoname_downlevel.obj
 0002:00033378       ??_C@_1M@MKKGFKLE@?$AAa?$AAr?$AA?9?$AAJ?$AAO@ 0000000140095378     libucrt:lcidtoname_downlevel.obj
 0002:00033388       ??_C@_1M@EKPGLDNI@?$AAe?$AAn?$AA?9?$AAT?$AAT@ 0000000140095388     libucrt:lcidtoname_downlevel.obj
 0002:00033398       ??_C@_1M@OONGHFHE@?$AAe?$AAs?$AA?9?$AAA?$AAR@ 0000000140095398     libucrt:lcidtoname_downlevel.obj
 0002:000333a8       ??_C@_1M@OOJFGBHE@?$AAa?$AAr?$AA?9?$AAL?$AAB@ 00000001400953a8     libucrt:lcidtoname_downlevel.obj
 0002:000333b8       ??_C@_1M@GCEJHNEG@?$AAe?$AAn?$AA?9?$AAZ?$AAW@ 00000001400953b8     libucrt:lcidtoname_downlevel.obj
 0002:000333c8       ??_C@_1M@JNOCAHJI@?$AAe?$AAs?$AA?9?$AAE?$AAC@ 00000001400953c8     libucrt:lcidtoname_downlevel.obj
 0002:000333d8       ??_C@_1M@JEFHPGGB@?$AAa?$AAr?$AA?9?$AAK?$AAW@ 00000001400953d8     libucrt:lcidtoname_downlevel.obj
 0002:000333e8       ??_C@_1M@MLKIBJOJ@?$AAe?$AAn?$AA?9?$AAP?$AAH@ 00000001400953e8     libucrt:lcidtoname_downlevel.obj
 0002:000333f8       ??_C@_1M@BDNIPEND@?$AAe?$AAs?$AA?9?$AAC?$AAL@ 00000001400953f8     libucrt:lcidtoname_downlevel.obj
 0002:00033408       ??_C@_1M@MPNMEKBD@?$AAa?$AAr?$AA?9?$AAA?$AAE@ 0000000140095408     libucrt:lcidtoname_downlevel.obj
 0002:00033418       ??_C@_1M@KBJALCPI@?$AAe?$AAs?$AA?9?$AAU?$AAY@ 0000000140095418     libucrt:lcidtoname_downlevel.obj
 0002:00033428       ??_C@_1M@LLCCOAGA@?$AAa?$AAr?$AA?9?$AAB?$AAH@ 0000000140095428     libucrt:lcidtoname_downlevel.obj
 0002:00033438       ??_C@_1M@PBFNCDEL@?$AAe?$AAs?$AA?9?$AAP?$AAY@ 0000000140095438     libucrt:lcidtoname_downlevel.obj
 0002:00033448       ??_C@_1M@EDGINPNP@?$AAa?$AAr?$AA?9?$AAQ?$AAA@ 0000000140095448     libucrt:lcidtoname_downlevel.obj
 0002:00033458       ??_C@_1M@MKDBIIJI@?$AAe?$AAs?$AA?9?$AAB?$AAO@ 0000000140095458     libucrt:lcidtoname_downlevel.obj
 0002:00033468       ??_C@_1M@CPKKEBLD@?$AAe?$AAs?$AA?9?$AAS?$AAV@ 0000000140095468     libucrt:lcidtoname_downlevel.obj
 0002:00033478       ??_C@_1M@NDBGMMJL@?$AAe?$AAs?$AA?9?$AAH?$AAN@ 0000000140095478     libucrt:lcidtoname_downlevel.obj
 0002:00033488       ??_C@_1M@JIJIBHDP@?$AAe?$AAs?$AA?9?$AAN?$AAI@ 0000000140095488     libucrt:lcidtoname_downlevel.obj
 0002:00033498       ??_C@_1M@CGFMKEEK@?$AAe?$AAs?$AA?9?$AAP?$AAR@ 0000000140095498     libucrt:lcidtoname_downlevel.obj
 0002:000334a8       ??_C@_1O@ICJHKIIK@?$AAz?$AAh?$AA?9?$AAC?$AAH?$AAT@ 00000001400954a8     libucrt:lcidtoname_downlevel.obj
 0002:000334b8       ??_C@_15CLNEJCE@?$AAs?$AAr@ 00000001400954b8     libucrt:lcidtoname_downlevel.obj
 0002:00034300       ??_C@_1M@KAHEKEIG@?$AAa?$AAf?$AA?9?$AAz?$AAa@ 0000000140096300     libucrt:lcidtoname_downlevel.obj
 0002:00034310       ??_C@_1M@GIECOABL@?$AAa?$AAr?$AA?9?$AAa?$AAe@ 0000000140096310     libucrt:lcidtoname_downlevel.obj
 0002:00034320       ??_C@_1M@BMLMEKGI@?$AAa?$AAr?$AA?9?$AAb?$AAh@ 0000000140096320     libucrt:lcidtoname_downlevel.obj
 0002:00034330       ??_C@_1M@DAPFDGGB@?$AAa?$AAr?$AA?9?$AAd?$AAz@ 0000000140096330     libucrt:lcidtoname_downlevel.obj
 0002:00034340       ??_C@_1M@FJNKGKIG@?$AAa?$AAr?$AA?9?$AAe?$AAg@ 0000000140096340     libucrt:lcidtoname_downlevel.obj
 0002:00034350       ??_C@_1M@FLGKKCLO@?$AAa?$AAr?$AA?9?$AAi?$AAq@ 0000000140096350     libucrt:lcidtoname_downlevel.obj
 0002:00034360       ??_C@_1M@GNDIPALM@?$AAa?$AAr?$AA?9?$AAj?$AAo@ 0000000140096360     libucrt:lcidtoname_downlevel.obj
 0002:00034370       ??_C@_1M@DDMJFMGJ@?$AAa?$AAr?$AA?9?$AAk?$AAw@ 0000000140096370     libucrt:lcidtoname_downlevel.obj
 0002:00034380       ??_C@_1M@EJALMLHM@?$AAa?$AAr?$AA?9?$AAl?$AAb@ 0000000140096380     libucrt:lcidtoname_downlevel.obj
 0002:00034390       ??_C@_1M@MOBDBLOC@?$AAa?$AAr?$AA?9?$AAl?$AAy@ 0000000140096390     libucrt:lcidtoname_downlevel.obj
 0002:000343a0       ??_C@_1M@JAOCLHDH@?$AAa?$AAr?$AA?9?$AAm?$AAa@ 00000001400963a0     libucrt:lcidtoname_downlevel.obj
 0002:000343b0       ??_C@_1M@JHPMKJIE@?$AAa?$AAr?$AA?9?$AAo?$AAm@ 00000001400963b0     libucrt:lcidtoname_downlevel.obj
 0002:000343c0       ??_C@_1M@OEPGHFNH@?$AAa?$AAr?$AA?9?$AAq?$AAa@ 00000001400963c0     libucrt:lcidtoname_downlevel.obj
 0002:000343d0       ??_C@_1M@KJDONENM@?$AAa?$AAr?$AA?9?$AAs?$AAa@ 00000001400963d0     libucrt:lcidtoname_downlevel.obj
 0002:000343e0       ??_C@_1M@DMJDKLKM@?$AAa?$AAr?$AA?9?$AAs?$AAy@ 00000001400963e0     libucrt:lcidtoname_downlevel.obj
 0002:000343f0       ??_C@_1M@OMFIPEDC@?$AAa?$AAr?$AA?9?$AAt?$AAn@ 00000001400963f0     libucrt:lcidtoname_downlevel.obj
 0002:00034400       ??_C@_1M@IHMHGAON@?$AAa?$AAr?$AA?9?$AAy?$AAe@ 0000000140096400     libucrt:lcidtoname_downlevel.obj
 0002:00034410       ??_C@_1BG@KDCPGJGB@?$AAa?$AAz?$AA?9?$AAa?$AAz?$AA?9?$AAc?$AAy?$AAr?$AAl@ 0000000140096410     libucrt:lcidtoname_downlevel.obj
 0002:00034428       ??_C@_1BG@IBCKDDOE@?$AAa?$AAz?$AA?9?$AAa?$AAz?$AA?9?$AAl?$AAa?$AAt?$AAn@ 0000000140096428     libucrt:lcidtoname_downlevel.obj
 0002:00034440       ??_C@_1M@EGPFDCPD@?$AAb?$AAe?$AA?9?$AAb?$AAy@ 0000000140096440     libucrt:lcidtoname_downlevel.obj
 0002:00034450       ??_C@_1M@PCMGMCGC@?$AAb?$AAg?$AA?9?$AAb?$AAg@ 0000000140096450     libucrt:lcidtoname_downlevel.obj
 0002:00034460       ??_C@_1M@BJBMFGOB@?$AAb?$AAn?$AA?9?$AAi?$AAn@ 0000000140096460     libucrt:lcidtoname_downlevel.obj
 0002:00034470       ??_C@_1BG@EAKMMACD@?$AAb?$AAs?$AA?9?$AAb?$AAa?$AA?9?$AAl?$AAa?$AAt?$AAn@ 0000000140096470     libucrt:lcidtoname_downlevel.obj
 0002:00034488       ??_C@_1M@KGADAODK@?$AAc?$AAa?$AA?9?$AAe?$AAs@ 0000000140096488     libucrt:lcidtoname_downlevel.obj
 0002:00034498       ??_C@_1M@COAJPDHI@?$AAc?$AAs?$AA?9?$AAc?$AAz@ 0000000140096498     libucrt:lcidtoname_downlevel.obj
 0002:000344a8       ??_C@_1M@DHBHFONH@?$AAc?$AAy?$AA?9?$AAg?$AAb@ 00000001400964a8     libucrt:lcidtoname_downlevel.obj
 0002:000344b8       ??_C@_1M@IMGKELGA@?$AAd?$AAa?$AA?9?$AAd?$AAk@ 00000001400964b8     libucrt:lcidtoname_downlevel.obj
 0002:000344c8       ??_C@_1M@NNDGDNGA@?$AAd?$AAe?$AA?9?$AAa?$AAt@ 00000001400964c8     libucrt:lcidtoname_downlevel.obj
 0002:000344d8       ??_C@_1M@IKDBHEEM@?$AAd?$AAe?$AA?9?$AAc?$AAh@ 00000001400964d8     libucrt:lcidtoname_downlevel.obj
 0002:000344e8       ??_C@_1M@GFFOJMCJ@?$AAd?$AAe?$AA?9?$AAd?$AAe@ 00000001400964e8     libucrt:lcidtoname_downlevel.obj
 0002:000344f8       ??_C@_1M@MDNLKBPM@?$AAd?$AAe?$AA?9?$AAl?$AAi@ 00000001400964f8     libucrt:lcidtoname_downlevel.obj
 0002:00034508       ??_C@_1M@NJBEEJNL@?$AAd?$AAe?$AA?9?$AAl?$AAu@ 0000000140096508     libucrt:lcidtoname_downlevel.obj
 0002:00034518       ??_C@_1O@GNNELBAP@?$AAd?$AAi?$AAv?$AA?9?$AAm?$AAv@ 0000000140096518     libucrt:lcidtoname_downlevel.obj
 0002:00034528       ??_C@_1M@EJLEOGAE@?$AAe?$AAl?$AA?9?$AAg?$AAr@ 0000000140096528     libucrt:lcidtoname_downlevel.obj
 0002:00034538       ??_C@_1M@GMPONJN@?$AAe?$AAn?$AA?9?$AAa?$AAu@ 0000000140096538     libucrt:lcidtoname_downlevel.obj
 0002:00034548       ??_C@_1M@NIDIIPGF@?$AAe?$AAn?$AA?9?$AAb?$AAz@ 0000000140096548     libucrt:lcidtoname_downlevel.obj
 0002:00034558       ??_C@_1M@JEHMIMFO@?$AAe?$AAn?$AA?9?$AAc?$AAa@ 0000000140096558     libucrt:lcidtoname_downlevel.obj
 0002:00034568       ??_C@_1M@IGMJCDLA@?$AAe?$AAn?$AA?9?$AAc?$AAb@ 0000000140096568     libucrt:lcidtoname_downlevel.obj
 0002:00034578       ??_C@_1M@BNFIGBKG@?$AAe?$AAn?$AA?9?$AAg?$AAb@ 0000000140096578     libucrt:lcidtoname_downlevel.obj
 0002:00034588       ??_C@_1M@LKIFDIGP@?$AAe?$AAn?$AA?9?$AAi?$AAe@ 0000000140096588     libucrt:lcidtoname_downlevel.obj
 0002:00034598       ??_C@_1M@PJKFGCCO@?$AAe?$AAn?$AA?9?$AAj?$AAm@ 0000000140096598     libucrt:lcidtoname_downlevel.obj
 0002:000345a8       ??_C@_1M@KPPKEPBO@?$AAe?$AAn?$AA?9?$AAn?$AAz@ 00000001400965a8     libucrt:lcidtoname_downlevel.obj
 0002:000345b8       ??_C@_1M@GMDGLDOB@?$AAe?$AAn?$AA?9?$AAp?$AAh@ 00000001400965b8     libucrt:lcidtoname_downlevel.obj
 0002:000345c8       ??_C@_1M@ONGIBJNA@?$AAe?$AAn?$AA?9?$AAt?$AAt@ 00000001400965c8     libucrt:lcidtoname_downlevel.obj
 0002:000345d8       ??_C@_1M@LLODPCMM@?$AAe?$AAn?$AA?9?$AAu?$AAs@ 00000001400965d8     libucrt:lcidtoname_downlevel.obj
 0002:000345e8       ??_C@_1M@LAKFNPAN@?$AAe?$AAn?$AA?9?$AAz?$AAa@ 00000001400965e8     libucrt:lcidtoname_downlevel.obj
 0002:000345f8       ??_C@_1M@MFNHNHEO@?$AAe?$AAn?$AA?9?$AAz?$AAw@ 00000001400965f8     libucrt:lcidtoname_downlevel.obj
 0002:00034608       ??_C@_1M@EJEINPHM@?$AAe?$AAs?$AA?9?$AAa?$AAr@ 0000000140096608     libucrt:lcidtoname_downlevel.obj
 0002:00034618       ??_C@_1M@GNKPCCJA@?$AAe?$AAs?$AA?9?$AAb?$AAo@ 0000000140096618     libucrt:lcidtoname_downlevel.obj
 0002:00034628       ??_C@_1M@LEEGFONL@?$AAe?$AAs?$AA?9?$AAc?$AAl@ 0000000140096628     libucrt:lcidtoname_downlevel.obj
 0002:00034638       ??_C@_1M@KGPDPBDF@?$AAe?$AAs?$AA?9?$AAc?$AAo@ 0000000140096638     libucrt:lcidtoname_downlevel.obj
 0002:00034648       ??_C@_1M@EIAHOHH@?$AAe?$AAs?$AA?9?$AAc?$AAr@ 0000000140096648     libucrt:lcidtoname_downlevel.obj
 0002:00034658       ??_C@_1M@LLPGMBIN@?$AAe?$AAs?$AA?9?$AAd?$AAo@ 0000000140096658     libucrt:lcidtoname_downlevel.obj
 0002:00034668       ??_C@_1M@DKHMKNJA@?$AAe?$AAs?$AA?9?$AAe?$AAc@ 0000000140096668     libucrt:lcidtoname_downlevel.obj
 0002:00034678       ??_C@_1M@GKGFPKAP@?$AAe?$AAs?$AA?9?$AAe?$AAs@ 0000000140096678     libucrt:lcidtoname_downlevel.obj
 0002:00034688       ??_C@_1M@LKHKGDLN@?$AAe?$AAs?$AA?9?$AAg?$AAt@ 0000000140096688     libucrt:lcidtoname_downlevel.obj
 0002:00034698       ??_C@_1M@HEIIGGJD@?$AAe?$AAs?$AA?9?$AAh?$AAn@ 0000000140096698     libucrt:lcidtoname_downlevel.obj
 0002:000346a8       ??_C@_1M@FBDHPPGD@?$AAe?$AAs?$AA?9?$AAm?$AAx@ 00000001400966a8     libucrt:lcidtoname_downlevel.obj
 0002:000346b8       ??_C@_1M@DPAGLNDH@?$AAe?$AAs?$AA?9?$AAn?$AAi@ 00000001400966b8     libucrt:lcidtoname_downlevel.obj
 0002:000346c8       ??_C@_1M@MDGOPGDD@?$AAe?$AAs?$AA?9?$AAp?$AAa@ 00000001400966c8     libucrt:lcidtoname_downlevel.obj
 0002:000346d8       ??_C@_1M@EMAMGBGE@?$AAe?$AAs?$AA?9?$AAp?$AAe@ 00000001400966d8     libucrt:lcidtoname_downlevel.obj
 0002:000346e8       ??_C@_1M@IBMCAOEC@?$AAe?$AAs?$AA?9?$AAp?$AAr@ 00000001400966e8     libucrt:lcidtoname_downlevel.obj
 0002:000346f8       ??_C@_1M@FGMDIJED@?$AAe?$AAs?$AA?9?$AAp?$AAy@ 00000001400966f8     libucrt:lcidtoname_downlevel.obj
 0002:00034708       ??_C@_1M@IIDEOLLL@?$AAe?$AAs?$AA?9?$AAs?$AAv@ 0000000140096708     libucrt:lcidtoname_downlevel.obj
 0002:00034718       ??_C@_1M@GAOBIPA@?$AAe?$AAs?$AA?9?$AAu?$AAy@ 0000000140096718     libucrt:lcidtoname_downlevel.obj
 0002:00034728       ??_C@_1M@JKFFICHJ@?$AAe?$AAs?$AA?9?$AAv?$AAe@ 0000000140096728     libucrt:lcidtoname_downlevel.obj
 0002:00034738       ??_C@_1M@PNMLOJDF@?$AAe?$AAt?$AA?9?$AAe?$AAe@ 0000000140096738     libucrt:lcidtoname_downlevel.obj
 0002:00034748       ??_C@_1M@GHHLIKEI@?$AAe?$AAu?$AA?9?$AAe?$AAs@ 0000000140096748     libucrt:lcidtoname_downlevel.obj
 0002:00034758       ??_C@_1M@PBNONODE@?$AAf?$AAa?$AA?9?$AAi?$AAr@ 0000000140096758     libucrt:lcidtoname_downlevel.obj
 0002:00034768       ??_C@_1M@JEEHPMIL@?$AAf?$AAi?$AA?9?$AAf?$AAi@ 0000000140096768     libucrt:lcidtoname_downlevel.obj
 0002:00034778       ??_C@_1M@LMDCNDBA@?$AAf?$AAo?$AA?9?$AAf?$AAo@ 0000000140096778     libucrt:lcidtoname_downlevel.obj
 0002:00034788       ??_C@_1M@JKEOHLDK@?$AAf?$AAr?$AA?9?$AAb?$AAe@ 0000000140096788     libucrt:lcidtoname_downlevel.obj
 0002:00034798       ??_C@_1M@NOHADPMI@?$AAf?$AAr?$AA?9?$AAc?$AAa@ 0000000140096798     libucrt:lcidtoname_downlevel.obj
 0002:000347a8       ??_C@_1M@KDHIHAEC@?$AAf?$AAr?$AA?9?$AAc?$AAh@ 00000001400967a8     libucrt:lcidtoname_downlevel.obj
 0002:000347b8       ??_C@_1M@MMBBFGAK@?$AAf?$AAr?$AA?9?$AAf?$AAr@ 00000001400967b8     libucrt:lcidtoname_downlevel.obj
 0002:000347c8       ??_C@_1M@PAFNENNF@?$AAf?$AAr?$AA?9?$AAl?$AAu@ 00000001400967c8     libucrt:lcidtoname_downlevel.obj
 0002:000347d8       ??_C@_1M@EOHDJGDD@?$AAf?$AAr?$AA?9?$AAm?$AAc@ 00000001400967d8     libucrt:lcidtoname_downlevel.obj
 0002:000347e8       ??_C@_1M@FAPLLOPF@?$AAg?$AAl?$AA?9?$AAe?$AAs@ 00000001400967e8     libucrt:lcidtoname_downlevel.obj
 0002:000347f8       ??_C@_1M@FOPBFLOO@?$AAg?$AAu?$AA?9?$AAi?$AAn@ 00000001400967f8     libucrt:lcidtoname_downlevel.obj
 0002:00034808       ??_C@_1M@KBMCINPM@?$AAh?$AAe?$AA?9?$AAi?$AAl@ 0000000140096808     libucrt:lcidtoname_downlevel.obj
 0002:00034818       ??_C@_1M@BBPHKFPJ@?$AAh?$AAi?$AA?9?$AAi?$AAn@ 0000000140096818     libucrt:lcidtoname_downlevel.obj
 0002:00034828       ??_C@_1M@PMBNDPHD@?$AAh?$AAr?$AA?9?$AAb?$AAa@ 0000000140096828     libucrt:lcidtoname_downlevel.obj
 0002:00034838       ??_C@_1M@BPCKOEGE@?$AAh?$AAr?$AA?9?$AAh?$AAr@ 0000000140096838     libucrt:lcidtoname_downlevel.obj
 0002:00034848       ??_C@_1M@GACBMHKE@?$AAh?$AAu?$AA?9?$AAh?$AAu@ 0000000140096848     libucrt:lcidtoname_downlevel.obj
 0002:00034858       ??_C@_1M@MILPAJJC@?$AAh?$AAy?$AA?9?$AAa?$AAm@ 0000000140096858     libucrt:lcidtoname_downlevel.obj
 0002:00034868       ??_C@_1M@BABBICEC@?$AAi?$AAd?$AA?9?$AAi?$AAd@ 0000000140096868     libucrt:lcidtoname_downlevel.obj
 0002:00034878       ??_C@_1M@BIKNHHPF@?$AAi?$AAs?$AA?9?$AAi?$AAs@ 0000000140096878     libucrt:lcidtoname_downlevel.obj
 0002:00034888       ??_C@_1M@NMPCJPHE@?$AAi?$AAt?$AA?9?$AAc?$AAh@ 0000000140096888     libucrt:lcidtoname_downlevel.obj
 0002:00034898       ??_C@_1M@GHKGFEDF@?$AAi?$AAt?$AA?9?$AAi?$AAt@ 0000000140096898     libucrt:lcidtoname_downlevel.obj
 0002:000348a8       ??_C@_1M@NIEJCJJA@?$AAj?$AAa?$AA?9?$AAj?$AAp@ 00000001400968a8     libucrt:lcidtoname_downlevel.obj
 0002:000348b8       ??_C@_1M@JILFNBIM@?$AAk?$AAa?$AA?9?$AAg?$AAe@ 00000001400968b8     libucrt:lcidtoname_downlevel.obj
 0002:000348c8       ??_C@_1M@PACPMGPH@?$AAk?$AAk?$AA?9?$AAk?$AAz@ 00000001400968c8     libucrt:lcidtoname_downlevel.obj
 0002:000348d8       ??_C@_1M@IELFGMHA@?$AAk?$AAn?$AA?9?$AAi?$AAn@ 00000001400968d8     libucrt:lcidtoname_downlevel.obj
 0002:000348e8       ??_C@_1O@IBBJHCH@?$AAk?$AAo?$AAk?$AA?9?$AAi?$AAn@ 00000001400968e8     libucrt:lcidtoname_downlevel.obj
 0002:000348f8       ??_C@_1M@DMHAEOGC@?$AAk?$AAo?$AA?9?$AAk?$AAr@ 00000001400968f8     libucrt:lcidtoname_downlevel.obj
 0002:00034908       ??_C@_1M@HBAHBIGA@?$AAk?$AAy?$AA?9?$AAk?$AAg@ 0000000140096908     libucrt:lcidtoname_downlevel.obj
 0002:00034918       ??_C@_1M@KPMILCJG@?$AAl?$AAt?$AA?9?$AAl?$AAt@ 0000000140096918     libucrt:lcidtoname_downlevel.obj
 0002:00034928       ??_C@_1M@BDEKKCA@?$AAl?$AAv?$AA?9?$AAl?$AAv@ 0000000140096928     libucrt:lcidtoname_downlevel.obj
 0002:00034938       ??_C@_1M@ELCKCCJJ@?$AAm?$AAi?$AA?9?$AAn?$AAz@ 0000000140096938     libucrt:lcidtoname_downlevel.obj
 0002:00034948       ??_C@_1M@CBOOLAPA@?$AAm?$AAk?$AA?9?$AAm?$AAk@ 0000000140096948     libucrt:lcidtoname_downlevel.obj
 0002:00034958       ??_C@_1M@GPHNBJKN@?$AAm?$AAl?$AA?9?$AAi?$AAn@ 0000000140096958     libucrt:lcidtoname_downlevel.obj
 0002:00034968       ??_C@_1M@PABJILIG@?$AAm?$AAn?$AA?9?$AAm?$AAn@ 0000000140096968     libucrt:lcidtoname_downlevel.obj
 0002:00034978       ??_C@_1M@FGBKKIPG@?$AAm?$AAr?$AA?9?$AAi?$AAn@ 0000000140096978     libucrt:lcidtoname_downlevel.obj
 0002:00034988       ??_C@_1M@NDBPDDAL@?$AAm?$AAs?$AA?9?$AAb?$AAn@ 0000000140096988     libucrt:lcidtoname_downlevel.obj
 0002:00034998       ??_C@_1M@OPIHOOPI@?$AAm?$AAs?$AA?9?$AAm?$AAy@ 0000000140096998     libucrt:lcidtoname_downlevel.obj
 0002:000349a8       ??_C@_1M@PPDBCNFM@?$AAm?$AAt?$AA?9?$AAm?$AAt@ 00000001400969a8     libucrt:lcidtoname_downlevel.obj
 0002:000349b8       ??_C@_1M@KDJDKMDD@?$AAn?$AAb?$AA?9?$AAn?$AAo@ 00000001400969b8     libucrt:lcidtoname_downlevel.obj
 0002:000349c8       ??_C@_1M@KFCFLMJP@?$AAn?$AAl?$AA?9?$AAb?$AAe@ 00000001400969c8     libucrt:lcidtoname_downlevel.obj
 0002:000349d8       ??_C@_1M@KPOPDDGO@?$AAn?$AAl?$AA?9?$AAn?$AAl@ 00000001400969d8     libucrt:lcidtoname_downlevel.obj
 0002:000349e8       ??_C@_1M@LJKPEMLN@?$AAn?$AAn?$AA?9?$AAn?$AAo@ 00000001400969e8     libucrt:lcidtoname_downlevel.obj
 0002:000349f8       ??_C@_1M@BDGHHBFL@?$AAn?$AAs?$AA?9?$AAz?$AAa@ 00000001400969f8     libucrt:lcidtoname_downlevel.obj
 0002:00034a08       ??_C@_1M@IDEHOAP@?$AAp?$AAa?$AA?9?$AAi?$AAn@ 0000000140096a08     libucrt:lcidtoname_downlevel.obj
 0002:00034a18       ??_C@_1M@HDBKGOGH@?$AAp?$AAl?$AA?9?$AAp?$AAl@ 0000000140096a18     libucrt:lcidtoname_downlevel.obj
 0002:00034a28       ??_C@_1M@LJLLCMEH@?$AAp?$AAt?$AA?9?$AAb?$AAr@ 0000000140096a28     libucrt:lcidtoname_downlevel.obj
 0002:00034a38       ??_C@_1M@NCMONAAL@?$AAp?$AAt?$AA?9?$AAp?$AAt@ 0000000140096a38     libucrt:lcidtoname_downlevel.obj
 0002:00034a48       ??_C@_1O@EAKMAJDN@?$AAq?$AAu?$AAz?$AA?9?$AAb?$AAo@ 0000000140096a48     libucrt:lcidtoname_downlevel.obj
 0002:00034a58       ??_C@_1O@BHHPIGDN@?$AAq?$AAu?$AAz?$AA?9?$AAe?$AAc@ 0000000140096a58     libucrt:lcidtoname_downlevel.obj
 0002:00034a68       ??_C@_1O@GBAPEKMJ@?$AAq?$AAu?$AAz?$AA?9?$AAp?$AAe@ 0000000140096a68     libucrt:lcidtoname_downlevel.obj
 0002:00034a78       ??_C@_1M@CLGLEFBO@?$AAr?$AAo?$AA?9?$AAr?$AAo@ 0000000140096a78     libucrt:lcidtoname_downlevel.obj
 0002:00034a88       ??_C@_1M@CEEDODME@?$AAr?$AAu?$AA?9?$AAr?$AAu@ 0000000140096a88     libucrt:lcidtoname_downlevel.obj
 0002:00034a98       ??_C@_1M@HPKKKMPP@?$AAs?$AAa?$AA?9?$AAi?$AAn@ 0000000140096a98     libucrt:lcidtoname_downlevel.obj
 0002:00034aa8       ??_C@_1M@BKMAIGOJ@?$AAs?$AAe?$AA?9?$AAf?$AAi@ 0000000140096aa8     libucrt:lcidtoname_downlevel.obj
 0002:00034ab8       ??_C@_1M@NDPIFLFI@?$AAs?$AAe?$AA?9?$AAn?$AAo@ 0000000140096ab8     libucrt:lcidtoname_downlevel.obj
 0002:00034ac8       ??_C@_1M@DANKKHJ@?$AAs?$AAe?$AA?9?$AAs?$AAe@ 0000000140096ac8     libucrt:lcidtoname_downlevel.obj
 0002:00034ad8       ??_C@_1M@PNBLONPJ@?$AAs?$AAk?$AA?9?$AAs?$AAk@ 0000000140096ad8     libucrt:lcidtoname_downlevel.obj
 0002:00034ae8       ??_C@_1M@LFMODOAL@?$AAs?$AAl?$AA?9?$AAs?$AAi@ 0000000140096ae8     libucrt:lcidtoname_downlevel.obj
 0002:00034af8       ??_C@_1O@DFKOMPG@?$AAs?$AAm?$AAa?$AA?9?$AAn?$AAo@ 0000000140096af8     libucrt:lcidtoname_downlevel.obj
 0002:00034b08       ??_C@_1O@NDKPBNNH@?$AAs?$AAm?$AAa?$AA?9?$AAs?$AAe@ 0000000140096b08     libucrt:lcidtoname_downlevel.obj
 0002:00034b18       ??_C@_1O@PLLKBHAB@?$AAs?$AAm?$AAj?$AA?9?$AAn?$AAo@ 0000000140096b18     libucrt:lcidtoname_downlevel.obj
 0002:00034b28       ??_C@_1O@CLEPOGCA@?$AAs?$AAm?$AAj?$AA?9?$AAs?$AAe@ 0000000140096b28     libucrt:lcidtoname_downlevel.obj
 0002:00034b38       ??_C@_1O@DLGJGKMK@?$AAs?$AAm?$AAn?$AA?9?$AAf?$AAi@ 0000000140096b38     libucrt:lcidtoname_downlevel.obj
 0002:00034b48       ??_C@_1O@OJDJGAJC@?$AAs?$AAm?$AAs?$AA?9?$AAf?$AAi@ 0000000140096b48     libucrt:lcidtoname_downlevel.obj
 0002:00034b58       ??_C@_1M@BOFOGHPB@?$AAs?$AAq?$AA?9?$AAa?$AAl@ 0000000140096b58     libucrt:lcidtoname_downlevel.obj
 0002:00034b68       ??_C@_1BG@LJBBIPGB@?$AAs?$AAr?$AA?9?$AAb?$AAa?$AA?9?$AAc?$AAy?$AAr?$AAl@ 0000000140096b68     libucrt:lcidtoname_downlevel.obj
 0002:00034b80       ??_C@_1BG@JLBENFOE@?$AAs?$AAr?$AA?9?$AAb?$AAa?$AA?9?$AAl?$AAa?$AAt?$AAn@ 0000000140096b80     libucrt:lcidtoname_downlevel.obj
 0002:00034b98       ??_C@_1BG@KODPNHE@?$AAs?$AAr?$AA?9?$AAs?$AAp?$AA?9?$AAc?$AAy?$AAr?$AAl@ 0000000140096b98     libucrt:lcidtoname_downlevel.obj
 0002:00034bb0       ??_C@_1BG@CIOGKHPB@?$AAs?$AAr?$AA?9?$AAs?$AAp?$AA?9?$AAl?$AAa?$AAt?$AAn@ 0000000140096bb0     libucrt:lcidtoname_downlevel.obj
 0002:00034bc8       ??_C@_1M@NGFJLMAC@?$AAs?$AAv?$AA?9?$AAf?$AAi@ 0000000140096bc8     libucrt:lcidtoname_downlevel.obj
 0002:00034bd8       ??_C@_1M@MPJEJAJC@?$AAs?$AAv?$AA?9?$AAs?$AAe@ 0000000140096bd8     libucrt:lcidtoname_downlevel.obj
 0002:00034be8       ??_C@_1M@MPNDHLFK@?$AAs?$AAw?$AA?9?$AAk?$AAe@ 0000000140096be8     libucrt:lcidtoname_downlevel.obj
 0002:00034bf8       ??_C@_1O@KOHBJJI@?$AAs?$AAy?$AAr?$AA?9?$AAs?$AAy@ 0000000140096bf8     libucrt:lcidtoname_downlevel.obj
 0002:00034c08       ??_C@_1M@LDCEFHA@?$AAt?$AAa?$AA?9?$AAi?$AAn@ 0000000140096c08     libucrt:lcidtoname_downlevel.obj
 0002:00034c18       ??_C@_1M@CNJOFAK@?$AAt?$AAe?$AA?9?$AAi?$AAn@ 0000000140096c18     libucrt:lcidtoname_downlevel.obj
 0002:00034c28       ??_C@_1M@GNAECACD@?$AAt?$AAh?$AA?9?$AAt?$AAh@ 0000000140096c28     libucrt:lcidtoname_downlevel.obj
 0002:00034c38       ??_C@_1M@CHBIHOJO@?$AAt?$AAn?$AA?9?$AAz?$AAa@ 0000000140096c38     libucrt:lcidtoname_downlevel.obj
 0002:00034c48       ??_C@_1M@GCCMIGPJ@?$AAt?$AAr?$AA?9?$AAt?$AAr@ 0000000140096c48     libucrt:lcidtoname_downlevel.obj
 0002:00034c58       ??_C@_1M@CELMCNBK@?$AAt?$AAt?$AA?9?$AAr?$AAu@ 0000000140096c58     libucrt:lcidtoname_downlevel.obj
 0002:00034c68       ??_C@_1M@KLMCELGA@?$AAu?$AAk?$AA?9?$AAu?$AAa@ 0000000140096c68     libucrt:lcidtoname_downlevel.obj
 0002:00034c78       ??_C@_1M@EPAJJAJF@?$AAu?$AAr?$AA?9?$AAp?$AAk@ 0000000140096c78     libucrt:lcidtoname_downlevel.obj
 0002:00034c88       ??_C@_1BG@GEGPMCDJ@?$AAu?$AAz?$AA?9?$AAu?$AAz?$AA?9?$AAc?$AAy?$AAr?$AAl@ 0000000140096c88     libucrt:lcidtoname_downlevel.obj
 0002:00034ca0       ??_C@_1BG@EGGKJILM@?$AAu?$AAz?$AA?9?$AAu?$AAz?$AA?9?$AAl?$AAa?$AAt?$AAn@ 0000000140096ca0     libucrt:lcidtoname_downlevel.obj
 0002:00034cb8       ??_C@_1M@GFOCLFF@?$AAv?$AAi?$AA?9?$AAv?$AAn@ 0000000140096cb8     libucrt:lcidtoname_downlevel.obj
 0002:00034cc8       ??_C@_1M@CPAMEDFI@?$AAx?$AAh?$AA?9?$AAz?$AAa@ 0000000140096cc8     libucrt:lcidtoname_downlevel.obj
 0002:00034cd8       ??_C@_1O@EBKIFIGN@?$AAz?$AAh?$AA?9?$AAc?$AAh?$AAs@ 0000000140096cd8     libucrt:lcidtoname_downlevel.obj
 0002:00034ce8       ??_C@_1O@NMHPGANE@?$AAz?$AAh?$AA?9?$AAc?$AAh?$AAt@ 0000000140096ce8     libucrt:lcidtoname_downlevel.obj
 0002:00034cf8       ??_C@_1M@LPINJOMC@?$AAz?$AAh?$AA?9?$AAc?$AAn@ 0000000140096cf8     libucrt:lcidtoname_downlevel.obj
 0002:00034d08       ??_C@_1M@OCJEJODD@?$AAz?$AAh?$AA?9?$AAh?$AAk@ 0000000140096d08     libucrt:lcidtoname_downlevel.obj
 0002:00034d18       ??_C@_1M@DNDLJINH@?$AAz?$AAh?$AA?9?$AAm?$AAo@ 0000000140096d18     libucrt:lcidtoname_downlevel.obj
 0002:00034d28       ??_C@_1M@MBFDNDND@?$AAz?$AAh?$AA?9?$AAs?$AAg@ 0000000140096d28     libucrt:lcidtoname_downlevel.obj
 0002:00034d38       ??_C@_1M@IMEPLEPE@?$AAz?$AAh?$AA?9?$AAt?$AAw@ 0000000140096d38     libucrt:lcidtoname_downlevel.obj
 0002:00034d48       ??_C@_1M@BBGHNHJP@?$AAz?$AAu?$AA?9?$AAz?$AAa@ 0000000140096d48     libucrt:lcidtoname_downlevel.obj
 0002:00034d54       ??_C@_01GBGANLPD@0@        0000000140096d54     libucrt:cfout.obj
 0002:00034d58       ??_C@_05DNEBIAHO@1?$CDINF@ 0000000140096d58     libucrt:cfout.obj
 0002:00034d60       ??_C@_06IMKFLFPG@1?$CDQNAN@ 0000000140096d60     libucrt:cfout.obj
 0002:00034d68       ??_C@_06PGGFOGJG@1?$CDSNAN@ 0000000140096d68     libucrt:cfout.obj
 0002:00034d70       ??_C@_05PHHOCPM@1?$CDIND@  0000000140096d70     libucrt:cfout.obj
 0002:00034d78       _days                      0000000140096d78     libucrt:days.obj
 0002:00034db0       _lpdays                    0000000140096db0     libucrt:days.obj
 0002:00034e00       ??_C@_1BA@BALFACEM@?$AAC?$AAO?$AAN?$AAO?$AAU?$AAT?$AA$@ 0000000140096e00     libucrt:initcon.obj
 0002:00035060       __log10_256_lead           0000000140097060     libucrt:log10_256_lead_tail_table.obj
 0002:00035870       __log10_256_tail           0000000140097870     libucrt:log10_256_lead_tail_table.obj
 0002:00036080       __log_F_inv_qword          0000000140098080     libucrt:log_f_inv_qword_table.obj
 0002:000368a0       _Asan_string_should_annotate 00000001400988a0     libcpmt:asan_noop.obj
 0002:000368a0       _Asan_string_should_annotate_default 00000001400988a0     libcpmt:asan_noop.obj
 0002:000368a1       _Asan_vector_should_annotate_default 00000001400988a1     libcpmt:asan_noop.obj
 0002:000368b0       _load_config_used          00000001400988b0     libcmt:loadcfg.obj
 0002:00036b80       _tls_used                  0000000140098b80     libcmt:tlssup.obj
 0002:00036ba8       ??_R4type_info@@6B@        0000000140098ba8     libcmt:std_type_info_static.obj
 0002:00036bd0       ??_R3type_info@@8          0000000140098bd0     libcmt:std_type_info_static.obj
 0002:00036be8       ??_R2type_info@@8          0000000140098be8     libcmt:std_type_info_static.obj
 0002:00036bf8       ??_R1A@?0A@EA@type_info@@8 0000000140098bf8     libcmt:std_type_info_static.obj
 0002:00036c20       ??_R4_Locimp@locale@std@@6B@ 0000000140098c20     libcpmt:locale0.obj
 0002:00036c48       ??_R3_Locimp@locale@std@@8 0000000140098c48     libcpmt:locale0.obj
 0002:00036c60       ??_R2_Locimp@locale@std@@8 0000000140098c60     libcpmt:locale0.obj
 0002:00036c88       ??_R1A@?0A@EA@_Locimp@locale@std@@8 0000000140098c88     libcpmt:locale0.obj
 0002:00036cb0       ??_R4logic_error@std@@6B@  0000000140098cb0     libcpmt:xthrow.obj
 0002:00036cd8       ??_R3logic_error@std@@8    0000000140098cd8     libcpmt:xthrow.obj
 0002:00036cf0       ??_R2logic_error@std@@8    0000000140098cf0     libcpmt:xthrow.obj
 0002:00036d08       ??_R1A@?0A@EA@logic_error@std@@8 0000000140098d08     libcpmt:xthrow.obj
 0002:00036d30       ??_R4length_error@std@@6B@ 0000000140098d30     libcpmt:xthrow.obj
 0002:00036d58       ??_R3length_error@std@@8   0000000140098d58     libcpmt:xthrow.obj
 0002:00036d70       ??_R2length_error@std@@8   0000000140098d70     libcpmt:xthrow.obj
 0002:00036d90       ??_R1A@?0A@EA@length_error@std@@8 0000000140098d90     libcpmt:xthrow.obj
 0002:00036db8       ??_R4out_of_range@std@@6B@ 0000000140098db8     libcpmt:xthrow.obj
 0002:00036de0       ??_R3out_of_range@std@@8   0000000140098de0     libcpmt:xthrow.obj
 0002:00036df8       ??_R2out_of_range@std@@8   0000000140098df8     libcpmt:xthrow.obj
 0002:00036e18       ??_R1A@?0A@EA@out_of_range@std@@8 0000000140098e18     libcpmt:xthrow.obj
 0002:00036e40       ??_R4bad_exception@std@@6B@ 0000000140098e40     libvcruntime:frame.obj
 0002:00036e68       ??_R3bad_exception@std@@8  0000000140098e68     libvcruntime:frame.obj
 0002:00036e80       ??_R2bad_exception@std@@8  0000000140098e80     libvcruntime:frame.obj
 0002:00036e98       ??_R1A@?0A@EA@bad_exception@std@@8 0000000140098e98     libvcruntime:frame.obj
 0002:00036ebc       __volatile_metadata        0000000140098ebc     <linker-defined>
 0002:00037710       __rtc_iaa                  0000000140099710     libcmt:initsect.obj
 0002:00037718       __rtc_izz                  0000000140099718     libcmt:initsect.obj
 0002:00037720       __rtc_taa                  0000000140099720     libcmt:initsect.obj
 0002:00037728       __rtc_tzz                  0000000140099728     libcmt:initsect.obj
 0002:00037730       _tls_start                 0000000140099730     libcmt:tlssup.obj
 0002:00037734       _Init_thread_epoch         0000000140099734     libcmt:thread_safe_statics.obj
 0002:00037738       _tls_end                   0000000140099738     libcmt:tlssup.obj
 0002:000377b0       _CT??_R0PEAD@88            00000001400997b0     main-e350db.o
 0002:000377d0       _CT??_R0PEAX@88            00000001400997d0     main-e350db.o
 0002:000377f0       _CTA2PEAD                  00000001400997f0     main-e350db.o
 0002:00037800       _TIC2PEAD                  0000000140099800     main-e350db.o
 0002:000392e0       _CT??_R0?AVbad_array_new_length@std@@@8??0bad_array_new_length@std@@QEAA@AEBV01@@Z24 000000014009b2e0     FileIO-8f83e6.o
 0002:00039300       _CT??_R0?AVbad_alloc@std@@@8??0bad_alloc@std@@QEAA@AEBV01@@Z24 000000014009b300     FileIO-8f83e6.o
 0002:00039320       _CT??_R0?AVexception@std@@@8??0exception@std@@QEAA@AEBV01@@Z24 000000014009b320     FileIO-8f83e6.o
 0002:00039340       _CTA3?AVbad_array_new_length@std@@ 000000014009b340     FileIO-8f83e6.o
 0002:00039350       _TI3?AVbad_array_new_length@std@@ 000000014009b350     FileIO-8f83e6.o
 0002:00039360       _CT??_R0?AVfailure@ios_base@std@@@8??0failure@ios_base@std@@QEAA@AEBV012@@Z40 000000014009b360     FileIO-8f83e6.o
 0002:00039380       _CT??_R0?AVsystem_error@std@@@8??0system_error@std@@QEAA@AEBV01@@Z40 000000014009b380     FileIO-8f83e6.o
 0002:000393a0       _CT??_R0?AV_System_error@std@@@8??0_System_error@std@@QEAA@AEBV01@@Z40 000000014009b3a0     FileIO-8f83e6.o
 0002:000393c0       _CT??_R0?AVruntime_error@std@@@8??0runtime_error@std@@QEAA@AEBV01@@Z24 000000014009b3c0     FileIO-8f83e6.o
 0002:000393e0       _CTA5?AVfailure@ios_base@std@@ 000000014009b3e0     FileIO-8f83e6.o
 0002:000393f8       _TI5?AVfailure@ios_base@std@@ 000000014009b3f8     FileIO-8f83e6.o
 0002:00044c68       _TI2?AVbad_alloc@std@@     00000001400a6c68     libcmt:throw_bad_alloc.obj
 0002:00044c88       _CTA2?AVbad_alloc@std@@    00000001400a6c88     libcmt:throw_bad_alloc.obj
 0002:00044ca0       _CT??_R0?AVlogic_error@std@@@8??0logic_error@std@@QEAA@AEBV01@@Z24 00000001400a6ca0     libcpmt:xthrow.obj
 0002:00044cc8       _TI3?AVlength_error@std@@  00000001400a6cc8     libcpmt:xthrow.obj
 0002:00044ce8       _CTA3?AVlength_error@std@@ 00000001400a6ce8     libcpmt:xthrow.obj
 0002:00044d08       _CT??_R0?AVlength_error@std@@@8??0length_error@std@@QEAA@AEBV01@@Z24 00000001400a6d08     libcpmt:xthrow.obj
 0002:00044d30       _TI3?AVout_of_range@std@@  00000001400a6d30     libcpmt:xthrow.obj
 0002:00044d50       _CTA3?AVout_of_range@std@@ 00000001400a6d50     libcpmt:xthrow.obj
 0002:00044d70       _CT??_R0?AVout_of_range@std@@@8??0out_of_range@std@@QEAA@AEBV01@@Z24 00000001400a6d70     libcpmt:xthrow.obj
 0002:00044d98       _TI2?AVruntime_error@std@@ 00000001400a6d98     libcpmt:xthrow.obj
 0002:00044db8       _CTA2?AVruntime_error@std@@ 00000001400a6db8     libcpmt:xthrow.obj
 0002:00044dd0       _TI2?AVbad_exception@std@@ 00000001400a6dd0     libvcruntime:frame.obj
 0002:00044df0       _CTA2?AVbad_exception@std@@ 00000001400a6df0     libvcruntime:frame.obj
 0002:00044e08       _CT??_R0?AVbad_exception@std@@@8??0bad_exception@std@@QEAA@AEBV01@@Z24 00000001400a6e08     libvcruntime:frame.obj
 0002:00044e2c       __IMPORT_DESCRIPTOR_WS2_32 00000001400a6e2c     Ws2_32:WS2_32.dll
 0002:00044e40       __IMPORT_DESCRIPTOR_KERNEL32 00000001400a6e40     kernel32:KERNEL32.dll
 0002:00044e54       __NULL_IMPORT_DESCRIPTOR   00000001400a6e54     Ws2_32:WS2_32.dll
 0003:00000000       ??_R0PEAD@8                00000001400a8000     main-e350db.o
 0003:00000020       ??_R0PEAX@8                00000001400a8020     main-e350db.o
 0003:00000040       ??_R0?AV?$basic_ofstream@DU?$char_traits@D@std@@@std@@@8 00000001400a8040     FileIO-8f83e6.o
 0003:00000090       ??_R0?AV?$basic_ostream@DU?$char_traits@D@std@@@std@@@8 00000001400a8090     FileIO-8f83e6.o
 0003:000000e0       ??_R0?AV?$basic_ios@DU?$char_traits@D@std@@@std@@@8 00000001400a80e0     FileIO-8f83e6.o
 0003:00000120       ??_R0?AVios_base@std@@@8   00000001400a8120     FileIO-8f83e6.o
 0003:00000150       ??_R0?AV?$_Iosb@H@std@@@8  00000001400a8150     FileIO-8f83e6.o
 0003:00000180       ??_R0?AV?$basic_filebuf@DU?$char_traits@D@std@@@std@@@8 00000001400a8180     FileIO-8f83e6.o
 0003:000001d0       ??_R0?AV?$basic_streambuf@DU?$char_traits@D@std@@@std@@@8 00000001400a81d0     FileIO-8f83e6.o
 0003:00000220       ??_R0?AVbad_array_new_length@std@@@8 00000001400a8220     FileIO-8f83e6.o
 0003:00000250       ??_R0?AVbad_alloc@std@@@8  00000001400a8250     FileIO-8f83e6.o
 0003:00000280       ??_R0?AVexception@std@@@8  00000001400a8280     FileIO-8f83e6.o
 0003:000002b0       ??_R0?AV?$codecvt@DDU_Mbstatet@@@std@@@8 00000001400a82b0     FileIO-8f83e6.o
 0003:000002f0       ??_R0?AVcodecvt_base@std@@@8 00000001400a82f0     FileIO-8f83e6.o
 0003:00000320       ??_R0?AVfacet@locale@std@@@8 00000001400a8320     FileIO-8f83e6.o
 0003:00000350       ??_R0?AV_Facet_base@std@@@8 00000001400a8350     FileIO-8f83e6.o
 0003:00000380       ??_R0?AU_Crt_new_delete@std@@@8 00000001400a8380     FileIO-8f83e6.o
 0003:000003b0       ??_R0?AV?$basic_ifstream@DU?$char_traits@D@std@@@std@@@8 00000001400a83b0     FileIO-8f83e6.o
 0003:00000400       ??_R0?AV?$basic_istream@DU?$char_traits@D@std@@@std@@@8 00000001400a8400     FileIO-8f83e6.o
 0003:00000450       ??_R0?AVfailure@ios_base@std@@@8 00000001400a8450     FileIO-8f83e6.o
 0003:00000480       ??_R0?AVsystem_error@std@@@8 00000001400a8480     FileIO-8f83e6.o
 0003:000004b0       ??_R0?AV_System_error@std@@@8 00000001400a84b0     FileIO-8f83e6.o
 0003:000004e0       ??_R0?AVruntime_error@std@@@8 00000001400a84e0     FileIO-8f83e6.o
 0003:00000508       ?_Static@?1???$_Immortalize_memcpy_image@V_Iostream_error_category2@std@@@std@@YAAEBV_Iostream_error_category2@1@XZ@4V21@A 00000001400a8508     FileIO-8f83e6.o
 0003:00000520       ??_R0?AV_Iostream_error_category2@std@@@8 00000001400a8520     FileIO-8f83e6.o
 0003:00000560       ??_R0?AVerror_category@std@@@8 00000001400a8560     FileIO-8f83e6.o
 0003:00000590       ??_R0?AV?$ctype@D@std@@@8  00000001400a8590     FileIO-8f83e6.o
 0003:000005c0       ??_R0?AUctype_base@std@@@8 00000001400a85c0     FileIO-8f83e6.o
 0003:001005f0       ??_R0?AVSrvClient@@@8      00000001401a85f0     SrvClient-d45776.o
 0003:00100610       ??_R0?AVSrvClTls@@@8       00000001401a8610     SrvClTls-58f311.o
 0003:00100630       _fltused                   00000001401a8630     libcmt:fltused.obj
 0003:00100634       _Init_global_epoch         00000001401a8634     libcmt:thread_safe_statics.obj
 0003:00100638       __scrt_native_dllmain_reason 00000001401a8638     libcmt:utility.obj
 0003:00100640       __isa_available            00000001401a8640     libcmt:cpu_disp.obj
 0003:00100644       __isa_enabled              00000001401a8644     libcmt:cpu_disp.obj
 0003:00100648       __memset_fast_string_threshold 00000001401a8648     libcmt:cpu_disp.obj
 0003:00100650       __memset_nt_threshold      00000001401a8650     libcmt:cpu_disp.obj
 0003:00100658       __scrt_default_matherr     00000001401a8658     libcmt:matherr.obj
 0003:00100680       __security_cookie          00000001401a8680     libcmt:gs_cookie.obj
 0003:001006c0       __security_cookie_complement 00000001401a86c0     libcmt:gs_cookie.obj
 0003:001006c8       ?_Sync@ios_base@std@@0_NA  00000001401a86c8     libcpmt:ios.obj
 0003:00100740       _iob                       00000001401a8740     libucrt:_file.obj
 0003:00100858       _pctype                    00000001401a8858     libucrt:ctype.obj
 0003:00100860       _pwctype                   00000001401a8860     libucrt:ctype.obj
 0003:00100870       __acrt_lconv_c             00000001401a8870     libucrt:localeconv.obj
 0003:00100908       __acrt_lconv               00000001401a8908     libucrt:localeconv.obj
 0003:00100910       __acrt_lconv_static_decimal 00000001401a8910     libucrt:localeconv.obj
 0003:00100914       __acrt_lconv_static_W_decimal 00000001401a8914     libucrt:localeconv.obj
 0003:00100918       __abort_behavior           00000001401a8918     libucrt:abort.obj
 0003:00100930       __acrt_initial_locale_data 00000001401a8930     libucrt:nlsdata.obj
 0003:00100a88       __acrt_initial_locale_pointers 00000001401a8a88     libucrt:nlsdata.obj
 0003:00100a98       __acrt_wide_c_locale_string 00000001401a8a98     libucrt:nlsdata.obj
 0003:00100a9c       __mb_cur_max               00000001401a8a9c     libucrt:nlsdata.obj
 0003:00100aa0       __badioinfo                00000001401a8aa0     libucrt:ioinit.obj
 0003:00100af0       _lookuptrailbytes          00000001401a8af0     libucrt:read.obj
 0003:00100db0       __acrt_initial_multibyte_data 00000001401a8db0     libucrt:mbctype.obj
 0003:001012f0       __globallocalestatus       00000001401a92f0     libucrt:glstatus.obj
 0003:00101320       ??_R0?AVlogic_error@std@@@8 00000001401a9320     libcpmt:xthrow.obj
 0003:00101348       ??_R0?AVlength_error@std@@@8 00000001401a9348     libcpmt:xthrow.obj
 0003:00101370       ??_R0?AVout_of_range@std@@@8 00000001401a9370     libcpmt:xthrow.obj
 0003:00101398       ??_R0?AVbad_exception@std@@@8 00000001401a9398     libvcruntime:frame.obj
 0003:001013c0       ??_R0?AVtype_info@@@8      00000001401a93c0     libcmt:std_type_info_static.obj
 0003:001013e0       ??_R0?AV_Locimp@locale@std@@@8 00000001401a93e0     libcpmt:locale0.obj
 0003:00101410       ?id@?$codecvt@DDU_Mbstatet@@@std@@2V0locale@2@A 00000001401a9410     FileIO-8f83e6.o
 0003:00101418       ?_Stinit@?1??_Init@?$basic_filebuf@DU?$char_traits@D@std@@@std@@IEAAXPEAU_iobuf@@W4_Initfl@23@@Z@4U_Mbstatet@@A 00000001401a9418     FileIO-8f83e6.o
 0003:00101420       ?_Psave@?$_Facetptr@V?$codecvt@DDU_Mbstatet@@@std@@@std@@2PEBVfacet@locale@2@EB 00000001401a9420     FileIO-8f83e6.o
 0003:00101428       ?$TSS0@?1???$_Immortalize_memcpy_image@V_Iostream_error_category2@std@@@std@@YAAEBV_Iostream_error_category2@0@XZ@4HA 00000001401a9428     FileIO-8f83e6.o
 0003:00101430       ?_Psave@?$_Facetptr@V?$ctype@D@std@@@std@@2PEBVfacet@locale@2@EB 00000001401a9430     FileIO-8f83e6.o
 0003:00101438       ?_OptionsStorage@?1??__local_stdio_printf_options@@9@4_KA 00000001401a9438     StIO-3fea2d.o
 0003:00101444       _tls_index                 00000001401a9444     libcmt:tlssup.obj
 0003:00101458       __scrt_current_native_startup_state 00000001401a9458     libcmt:utility.obj
 0003:00101460       __scrt_native_startup_lock 00000001401a9460     libcmt:utility.obj
 0003:001014a0       __favor                    00000001401a94a0     libcmt:cpu_disp.obj
 0003:001014a4       __scrt_debugger_hook_flag  00000001401a94a4     libcmt:utility_desktop.obj
 0003:001014b0       ?__type_info_root_node@@3U__type_info_node@@A 00000001401a94b0     libcmt:tncleanup.obj
 0003:001014c0       ?_OptionsStorage@?1??__local_stdio_scanf_options@@9@4_KA 00000001401a94c0     libcmt:default_local_stdio_options.obj
 0003:001014d0       ?_Index@ios_base@std@@0HA  00000001401a94d0     libcpmt:ios.obj
 0003:00101540       ?_Id_cnt@id@locale@std@@0HA 00000001401a9540     libcpmt:locale0.obj
 0003:00101548       ?_Clocptr@_Locimp@locale@std@@0PEAV123@EA 00000001401a9548     libcpmt:locale0.obj
 0003:00101550       ?id@?$ctype@_W@std@@2V0locale@2@A 00000001401a9550     libcpmt:locale0.obj
 0003:00101558       ?id@?$ctype@D@std@@2V0locale@2@A 00000001401a9558     libcpmt:locale0.obj
 0003:00101560       ?id@?$codecvt@GDU_Mbstatet@@@std@@2V0locale@2@A 00000001401a9560     libcpmt:locale0.obj
 0003:00101568       ?id@?$ctype@G@std@@2V0locale@2@A 00000001401a9568     libcpmt:locale0.obj
 0003:00101580       ?id@?$codecvt@_WDU_Mbstatet@@@std@@2V0locale@2@A 00000001401a9580     libcpmt:locale0.obj
 0003:00101708       ?id@?$num_get@DV?$istreambuf_iterator@DU?$char_traits@D@std@@@std@@@std@@2V0locale@2@A 00000001401a9708     libcpmt:locale.obj
 0003:00101710       ?id@?$num_put@DV?$ostreambuf_iterator@DU?$char_traits@D@std@@@std@@@std@@2V0locale@2@A 00000001401a9710     libcpmt:locale.obj
 0003:00101718       ?id@?$numpunct@D@std@@2V0locale@2@A 00000001401a9718     libcpmt:locale.obj
 0003:00101720       ?_Ptr_cin@std@@3PEAV?$basic_istream@DU?$char_traits@D@std@@@1@EA 00000001401a9720     libcpmt:iosptrs.obj
 0003:00101728       ?_Ptr_cout@std@@3PEAV?$basic_ostream@DU?$char_traits@D@std@@@1@EA 00000001401a9728     libcpmt:iosptrs.obj
 0003:00101730       ?_Ptr_cerr@std@@3PEAV?$basic_ostream@DU?$char_traits@D@std@@@1@EA 00000001401a9730     libcpmt:iosptrs.obj
 0003:00101738       ?_Ptr_clog@std@@3PEAV?$basic_ostream@DU?$char_traits@D@std@@@1@EA 00000001401a9738     libcpmt:iosptrs.obj
 0003:00101740       ?_Ptr_wcin@std@@3PEAV?$basic_istream@_WU?$char_traits@_W@std@@@1@EA 00000001401a9740     libcpmt:iosptrs.obj
 0003:00101748       ?_Ptr_wcout@std@@3PEAV?$basic_ostream@_WU?$char_traits@_W@std@@@1@EA 00000001401a9748     libcpmt:iosptrs.obj
 0003:00101750       ?_Ptr_wcerr@std@@3PEAV?$basic_ostream@_WU?$char_traits@_W@std@@@1@EA 00000001401a9750     libcpmt:iosptrs.obj
 0003:00101758       ?_Ptr_wclog@std@@3PEAV?$basic_ostream@_WU?$char_traits@_W@std@@@1@EA 00000001401a9758     libcpmt:iosptrs.obj
 0003:001017d8       ?id@?$time_put@_WV?$ostreambuf_iterator@_WU?$char_traits@_W@std@@@std@@@std@@2V0locale@2@A 00000001401a97d8     libcpmt:wlocale.obj
 0003:001017e0       ?id@?$num_get@_WV?$istreambuf_iterator@_WU?$char_traits@_W@std@@@std@@@std@@2V0locale@2@A 00000001401a97e0     libcpmt:wlocale.obj
 0003:001017e8       ?id@?$num_put@_WV?$ostreambuf_iterator@_WU?$char_traits@_W@std@@@std@@@std@@2V0locale@2@A 00000001401a97e8     libcpmt:wlocale.obj
 0003:001017f0       ?id@?$numpunct@_W@std@@2V0locale@2@A 00000001401a97f0     libcpmt:wlocale.obj
 0003:001017f8       ?id@?$collate@_W@std@@2V0locale@2@A 00000001401a97f8     libcpmt:wlocale.obj
 0003:00101800       ?id@?$messages@_W@std@@2V0locale@2@A 00000001401a9800     libcpmt:wlocale.obj
 0003:00101808       ?id@?$money_get@_WV?$istreambuf_iterator@_WU?$char_traits@_W@std@@@std@@@std@@2V0locale@2@A 00000001401a9808     libcpmt:wlocale.obj
 0003:00101810       ?id@?$money_put@_WV?$ostreambuf_iterator@_WU?$char_traits@_W@std@@@std@@@std@@2V0locale@2@A 00000001401a9810     libcpmt:wlocale.obj
 0003:00101818       ?id@?$moneypunct@_W$0A@@std@@2V0locale@2@A 00000001401a9818     libcpmt:wlocale.obj
 0003:00101820       ?id@?$moneypunct@_W$00@std@@2V0locale@2@A 00000001401a9820     libcpmt:wlocale.obj
 0003:00101828       ?id@?$time_get@_WV?$istreambuf_iterator@_WU?$char_traits@_W@std@@@std@@@std@@2V0locale@2@A 00000001401a9828     libcpmt:wlocale.obj
 0003:00101830       ?id@?$num_get@GV?$istreambuf_iterator@GU?$char_traits@G@std@@@std@@@std@@2V0locale@2@A 00000001401a9830     libcpmt:wlocale.obj
 0003:00101838       ?id@?$num_put@GV?$ostreambuf_iterator@GU?$char_traits@G@std@@@std@@@std@@2V0locale@2@A 00000001401a9838     libcpmt:wlocale.obj
 0003:00101840       ?id@?$numpunct@G@std@@2V0locale@2@A 00000001401a9840     libcpmt:wlocale.obj
 0003:00101848       ?id@?$collate@G@std@@2V0locale@2@A 00000001401a9848     libcpmt:wlocale.obj
 0003:00101850       ?id@?$messages@G@std@@2V0locale@2@A 00000001401a9850     libcpmt:wlocale.obj
 0003:00101858       ?id@?$money_get@GV?$istreambuf_iterator@GU?$char_traits@G@std@@@std@@@std@@2V0locale@2@A 00000001401a9858     libcpmt:wlocale.obj
 0003:00101860       ?id@?$money_put@GV?$ostreambuf_iterator@GU?$char_traits@G@std@@@std@@@std@@2V0locale@2@A 00000001401a9860     libcpmt:wlocale.obj
 0003:00101868       ?id@?$moneypunct@G$0A@@std@@2V0locale@2@A 00000001401a9868     libcpmt:wlocale.obj
 0003:00101870       ?id@?$moneypunct@G$00@std@@2V0locale@2@A 00000001401a9870     libcpmt:wlocale.obj
 0003:00101878       ?id@?$time_get@GV?$istreambuf_iterator@GU?$char_traits@G@std@@@std@@@std@@2V0locale@2@A 00000001401a9878     libcpmt:wlocale.obj
 0003:00101880       ?id@?$time_put@GV?$ostreambuf_iterator@GU?$char_traits@G@std@@@std@@@std@@2V0locale@2@A 00000001401a9880     libcpmt:wlocale.obj
 0003:00101888       ?id@?$collate@D@std@@2V0locale@2@A 00000001401a9888     libcpmt:xlocale.obj
 0003:00101890       ?id@?$messages@D@std@@2V0locale@2@A 00000001401a9890     libcpmt:xlocale.obj
 0003:00101898       ?id@?$money_get@DV?$istreambuf_iterator@DU?$char_traits@D@std@@@std@@@std@@2V0locale@2@A 00000001401a9898     libcpmt:xlocale.obj
 0003:001018a0       ?id@?$money_put@DV?$ostreambuf_iterator@DU?$char_traits@D@std@@@std@@@std@@2V0locale@2@A 00000001401a98a0     libcpmt:xlocale.obj
 0003:001018a8       ?id@?$moneypunct@D$0A@@std@@2V0locale@2@A 00000001401a98a8     libcpmt:xlocale.obj
 0003:001018b0       ?id@?$moneypunct@D$00@std@@2V0locale@2@A 00000001401a98b0     libcpmt:xlocale.obj
 0003:001018b8       ?id@?$time_get@DV?$istreambuf_iterator@DU?$char_traits@D@std@@@std@@@std@@2V0locale@2@A 00000001401a98b8     libcpmt:xlocale.obj
 0003:001018c0       ?id@?$time_put@DV?$ostreambuf_iterator@DU?$char_traits@D@std@@@std@@@std@@2V0locale@2@A 00000001401a98c0     libcpmt:xlocale.obj
 0003:001018c8       ?__WinRTOutOfMemoryExceptionCallback@@3P6APEAXXZEA 00000001401a98c8     libvcruntime:ehhelpers.obj
 0003:00101950       __pPurecall                00000001401a9950     libvcruntime:purevirt_data.obj
 0003:00101988       ?pArgList@UnDecorator@@0PEAVReplicator@@EA 00000001401a9988     libvcruntime:undname.obj
 0003:00101990       ?pZNameList@UnDecorator@@0PEAVReplicator@@EA 00000001401a9990     libvcruntime:undname.obj
 0003:00101998       ?pTemplateArgList@UnDecorator@@0PEAVReplicator@@EA 00000001401a9998     libvcruntime:undname.obj
 0003:001019a0       ?gName@UnDecorator@@0PEBDEB 00000001401a99a0     libvcruntime:undname.obj
 0003:001019a8       ?name@UnDecorator@@0PEBDEB 00000001401a99a8     libvcruntime:undname.obj
 0003:001019b0       ?disableFlags@UnDecorator@@0KA 00000001401a99b0     libvcruntime:undname.obj
 0003:001019b4       ?fExplicitTemplateParams@UnDecorator@@0_NA 00000001401a99b4     libvcruntime:undname.obj
 0003:001019b5       ?fGetTemplateArgumentList@UnDecorator@@0_NA 00000001401a99b5     libvcruntime:undname.obj
 0003:001019b8       ?m_pGetParameter@UnDecorator@@0P6APEADJ@ZEA 00000001401a99b8     libvcruntime:undname.obj
 0003:001019c0       ?m_CHPENameOffset@UnDecorator@@0KA 00000001401a99c0     libvcruntime:undname.obj
 0003:001019c4       ?m_recursionLevel@UnDecorator@@0KA 00000001401a99c4     libvcruntime:undname.obj
 0003:00101a30       _nstream                   00000001401a9a30     libucrt:_file.obj
 0003:00101a38       __piob                     00000001401a9a38     libucrt:_file.obj
 0003:00101a40       _cflush                    00000001401a9a40     libucrt:_file.obj
 0003:00101ba8       _environ_table             00000001401a9ba8     libucrt:environment_initialization.obj
 0003:00101bb0       _wenviron_table            00000001401a9bb0     libucrt:environment_initialization.obj
 0003:00101bb8       __dcrt_initial_wide_environment 00000001401a9bb8     libucrt:environment_initialization.obj
 0003:00101bc0       __dcrt_initial_narrow_environment 00000001401a9bc0     libucrt:environment_initialization.obj
 0003:00101bc8       __acrt_atexit_table        00000001401a9bc8     libucrt:onexit.obj
 0003:00101be0       __acrt_at_quick_exit_table 00000001401a9be0     libucrt:onexit.obj
 0003:00101c08       _pgmptr                    00000001401a9c08     libucrt:argv_data.obj
 0003:00101c10       __argc                     00000001401a9c10     libucrt:argv_data.obj
 0003:00101c18       __argv                     00000001401a9c18     libucrt:argv_data.obj
 0003:00101c20       __wargv                    00000001401a9c20     libucrt:argv_data.obj
 0003:00101c28       _acmdln                    00000001401a9c28     libucrt:argv_data.obj
 0003:00101c30       _wcmdln                    00000001401a9c30     libucrt:argv_data.obj
 0003:00101c38       __acrt_locale_changed_data 00000001401a9c38     libucrt:wsetlocale.obj
 0003:00101c40       _commode                   00000001401a9c40     libucrt:ncommode.obj
 0003:00101e84       __acrt_lconv_static_null   00000001401a9e84     libucrt:localeconv.obj
 0003:00101e88       __acrt_lconv_static_W_null 00000001401a9e88     libucrt:localeconv.obj
 0003:00101e90       __acrt_stdout_buffer       00000001401a9e90     libucrt:_sftbuf.obj
 0003:00101e98       __acrt_stderr_buffer       00000001401a9e98     libucrt:_sftbuf.obj
 0003:00101ea0       __acrt_current_locale_data 00000001401a9ea0     libucrt:nlsdata.obj
 0003:00102060       __pioinfo                  00000001401aa060     libucrt:ioinit.obj
 0003:00102460       _nhandle                   00000001401aa460     libucrt:ioinit.obj
 0003:00102478       ?_timezone@@3V?$dual_state_global@J@__crt_state_management@@A 00000001401aa478     libucrt:timeset.obj
 0003:0010247c       ?_daylight@@3V?$dual_state_global@H@__crt_state_management@@A 00000001401aa47c     libucrt:timeset.obj
 0003:00102480       ?_dstbias@@3V?$dual_state_global@J@__crt_state_management@@A 00000001401aa480     libucrt:timeset.obj
 0003:00102560       _mbctype                   00000001401aa560     libucrt:mbctype.obj
 0003:00102568       _mbcasemap                 00000001401aa568     libucrt:mbctype.obj
 0003:00102570       __acrt_current_multibyte_data 00000001401aa570     libucrt:mbctype.obj
 0003:00102580       __acrt_heap                00000001401aa580     libucrt:heap_handle.obj
 0003:00102588       _fmode                     00000001401aa588     libucrt:txtmode.obj
 0003:001025a0       _umaskval                  00000001401aa5a0     libucrt:umask.obj
 0003:001025a4       __fma3_is_available        00000001401aa5a4     libucrt:fma3_available.obj
 0003:001025a8       __use_fma3_lib             00000001401aa5a8     libucrt:fma3_available.obj
 0003:00102b20       __dyn_tls_dtor_callback    00000001401aab20     <common>
 0003:00102b28       __dyn_tls_init_callback    00000001401aab28     <common>
 0003:00102b30       __scrt_ucrt_dll_is_in_use  00000001401aab30     <common>

 entry point at        0001:0003a9a4

 Static symbols

 0001:00000050       ?dtor$2@?0?main@4HA        0000000140001050 f   main-e350db.o
 0001:00000620       ?dtor$16@?0???0MainApp@@QEAA@XZ@4HA 0000000140001620 f i main-e350db.o
 0001:00000660       ?dtor$19@?0???0MainApp@@QEAA@XZ@4HA 0000000140001660 f i main-e350db.o
 0001:00000690       ?dtor$20@?0???0MainApp@@QEAA@XZ@4HA 0000000140001690 f i main-e350db.o
 0001:000006c0       ?dtor$21@?0???0MainApp@@QEAA@XZ@4HA 00000001400016c0 f i main-e350db.o
 0001:000006f0       ?dtor$22@?0???0MainApp@@QEAA@XZ@4HA 00000001400016f0 f i main-e350db.o
 0001:00000720       ?dtor$23@?0???0MainApp@@QEAA@XZ@4HA 0000000140001720 f i main-e350db.o
 0001:00000750       ?dtor$24@?0???0MainApp@@QEAA@XZ@4HA 0000000140001750 f i main-e350db.o
 0001:00000780       ?dtor$25@?0???0MainApp@@QEAA@XZ@4HA 0000000140001780 f i main-e350db.o
 0001:00000930       ?dtor$4@?0???0FindFacSm@@QEAA@XZ@4HA 0000000140001930 f i main-e350db.o
 0001:00000970       ?dtor$7@?0???0FindFacSm@@QEAA@XZ@4HA 0000000140001970 f i main-e350db.o
 0001:00000b20       ?dtor$6@?0???0CrtMath@@QEAA@XZ@4HA 0000000140001b20 f i main-e350db.o
 0001:00000cf0       ?dtor$6@?0???0CrtBuf@@QEAA@XZ@4HA 0000000140001cf0 f i main-e350db.o
 0001:00000df9       $ehgcr_0_18                0000000140001df9     MainApp-2f7bab.o
 0001:00000e10       ?catch$19@?0??mainLoop@MainApp@@QEAAHXZ@4HA 0000000140001e10 f   MainApp-2f7bab.o
 0001:00000e60       ?catch$20@?0??mainLoop@MainApp@@QEAAHXZ@4HA 0000000140001e60 f   MainApp-2f7bab.o
 0001:00000fd0       ?dtor$16@?0??testTls@MainApp@@QEAAXXZ@4HA 0000000140001fd0 f   MainApp-2f7bab.o
 0001:00001000       ?dtor$19@?0??testTls@MainApp@@QEAAXXZ@4HA 0000000140002000 f   MainApp-2f7bab.o
 0001:00001030       ?dtor$27@?0??testTls@MainApp@@QEAAXXZ@4HA 0000000140002030 f   MainApp-2f7bab.o
 0001:000010b0       ?dtor$4@?0??testSockets@MainApp@@QEAAXXZ@4HA 00000001400020b0 f   MainApp-2f7bab.o
 0001:00001340       ?dtor$5@?0???0TlsMainCl@@QEAA@XZ@4HA 0000000140002340 f i MainApp-2f7bab.o
 0001:00001370       ?dtor$23@?0???0TlsMainCl@@QEAA@XZ@4HA 0000000140002370 f i MainApp-2f7bab.o
 0001:000013a0       ?dtor$26@?0???0TlsMainCl@@QEAA@XZ@4HA 00000001400023a0 f i MainApp-2f7bab.o
 0001:000013d0       ?dtor$29@?0???0TlsMainCl@@QEAA@XZ@4HA 00000001400023d0 f i MainApp-2f7bab.o
 0001:00001400       ?dtor$35@?0???0TlsMainCl@@QEAA@XZ@4HA 0000000140002400 f i MainApp-2f7bab.o
 0001:00001430       ?dtor$36@?0???0TlsMainCl@@QEAA@XZ@4HA 0000000140002430 f i MainApp-2f7bab.o
 0001:00001460       ?dtor$37@?0???0TlsMainCl@@QEAA@XZ@4HA 0000000140002460 f i MainApp-2f7bab.o
 0001:00001490       ?dtor$40@?0???0TlsMainCl@@QEAA@XZ@4HA 0000000140002490 f i MainApp-2f7bab.o
 0001:000014c0       ?dtor$43@?0???0TlsMainCl@@QEAA@XZ@4HA 00000001400024c0 f i MainApp-2f7bab.o
 0001:000014f0       ?dtor$46@?0???0TlsMainCl@@QEAA@XZ@4HA 00000001400024f0 f i MainApp-2f7bab.o
 0001:00001520       ?dtor$49@?0???0TlsMainCl@@QEAA@XZ@4HA 0000000140002520 f i MainApp-2f7bab.o
 0001:00001550       ?dtor$50@?0???0TlsMainCl@@QEAA@XZ@4HA 0000000140002550 f i MainApp-2f7bab.o
 0001:00001a00       ?dtor$29@?0???0TlsMain@@QEAA@XZ@4HA 0000000140002a00 f i MainApp-2f7bab.o
 0001:00001a30       ?dtor$32@?0???0TlsMain@@QEAA@XZ@4HA 0000000140002a30 f i MainApp-2f7bab.o
 0001:00001a60       ?dtor$35@?0???0TlsMain@@QEAA@XZ@4HA 0000000140002a60 f i MainApp-2f7bab.o
 0001:00001a90       ?dtor$38@?0???0TlsMain@@QEAA@XZ@4HA 0000000140002a90 f i MainApp-2f7bab.o
 0001:00001ac0       ?dtor$41@?0???0TlsMain@@QEAA@XZ@4HA 0000000140002ac0 f i MainApp-2f7bab.o
 0001:00001af0       ?dtor$44@?0???0TlsMain@@QEAA@XZ@4HA 0000000140002af0 f i MainApp-2f7bab.o
 0001:00001b20       ?dtor$47@?0???0TlsMain@@QEAA@XZ@4HA 0000000140002b20 f i MainApp-2f7bab.o
 0001:00001b50       ?dtor$50@?0???0TlsMain@@QEAA@XZ@4HA 0000000140002b50 f i MainApp-2f7bab.o
 0001:00001b80       ?dtor$53@?0???0TlsMain@@QEAA@XZ@4HA 0000000140002b80 f i MainApp-2f7bab.o
 0001:00001bb0       ?dtor$56@?0???0TlsMain@@QEAA@XZ@4HA 0000000140002bb0 f i MainApp-2f7bab.o
 0001:00001be0       ?dtor$59@?0???0TlsMain@@QEAA@XZ@4HA 0000000140002be0 f i MainApp-2f7bab.o
 0001:00001c10       ?dtor$62@?0???0TlsMain@@QEAA@XZ@4HA 0000000140002c10 f i MainApp-2f7bab.o
 0001:00001c40       ?dtor$65@?0???0TlsMain@@QEAA@XZ@4HA 0000000140002c40 f i MainApp-2f7bab.o
 0001:00001c70       ?dtor$68@?0???0TlsMain@@QEAA@XZ@4HA 0000000140002c70 f i MainApp-2f7bab.o
 0001:00001ca0       ?dtor$69@?0???0TlsMain@@QEAA@XZ@4HA 0000000140002ca0 f i MainApp-2f7bab.o
 0001:00001cd0       ?dtor$72@?0???0TlsMain@@QEAA@XZ@4HA 0000000140002cd0 f i MainApp-2f7bab.o
 0001:00001d00       ?dtor$75@?0???0TlsMain@@QEAA@XZ@4HA 0000000140002d00 f i MainApp-2f7bab.o
 0001:00001d30       ?dtor$78@?0???0TlsMain@@QEAA@XZ@4HA 0000000140002d30 f i MainApp-2f7bab.o
 0001:00001d60       ?dtor$81@?0???0TlsMain@@QEAA@XZ@4HA 0000000140002d60 f i MainApp-2f7bab.o
 0001:00001d90       ?dtor$84@?0???0TlsMain@@QEAA@XZ@4HA 0000000140002d90 f i MainApp-2f7bab.o
 0001:00001dc0       ?dtor$87@?0???0TlsMain@@QEAA@XZ@4HA 0000000140002dc0 f i MainApp-2f7bab.o
 0001:00001df0       ?dtor$90@?0???0TlsMain@@QEAA@XZ@4HA 0000000140002df0 f i MainApp-2f7bab.o
 0001:00001e20       ?dtor$93@?0???0TlsMain@@QEAA@XZ@4HA 0000000140002e20 f i MainApp-2f7bab.o
 0001:00001e50       ?dtor$96@?0???0TlsMain@@QEAA@XZ@4HA 0000000140002e50 f i MainApp-2f7bab.o
 0001:00001e80       ?dtor$99@?0???0TlsMain@@QEAA@XZ@4HA 0000000140002e80 f i MainApp-2f7bab.o
 0001:00001eb0       ?dtor$102@?0???0TlsMain@@QEAA@XZ@4HA 0000000140002eb0 f i MainApp-2f7bab.o
 0001:00001ee0       ?dtor$105@?0???0TlsMain@@QEAA@XZ@4HA 0000000140002ee0 f i MainApp-2f7bab.o
 0001:00002360       ?dtor$8@?0???0EncryptTls@@QEAA@XZ@4HA 0000000140003360 f i MainApp-2f7bab.o
 0001:00002390       ?dtor$11@?0???0EncryptTls@@QEAA@XZ@4HA 0000000140003390 f i MainApp-2f7bab.o
 0001:000023c0       ?dtor$14@?0???0EncryptTls@@QEAA@XZ@4HA 00000001400033c0 f i MainApp-2f7bab.o
 0001:000023f0       ?dtor$17@?0???0EncryptTls@@QEAA@XZ@4HA 00000001400033f0 f i MainApp-2f7bab.o
 0001:00002420       ?dtor$20@?0???0EncryptTls@@QEAA@XZ@4HA 0000000140003420 f i MainApp-2f7bab.o
 0001:00002450       ?dtor$23@?0???0EncryptTls@@QEAA@XZ@4HA 0000000140003450 f i MainApp-2f7bab.o
 0001:00002480       ?dtor$24@?0???0EncryptTls@@QEAA@XZ@4HA 0000000140003480 f i MainApp-2f7bab.o
 0001:00004440       ?dtor$4@?0???0Exponents@@QEAA@XZ@4HA 0000000140005440 f   Exponents-7f5d2d.o
 0001:00004610       ?dtor$7@?0???0Exponents@@QEAA@AEBV0@@Z@4HA 0000000140005610 f   Exponents-7f5d2d.o
 0001:00006230       ?dtor$12@?0??makeRandomOdd@Integer@@QEAA_NH@Z@4HA 0000000140007230 f   Integer-cd7539.o
 0001:00006270       ?dtor$29@?0??makeRandomOdd@Integer@@QEAA_NH@Z@4HA 0000000140007270 f   Integer-cd7539.o
 0001:000064e0       ?dtor$10@?0??setFromBigEndianCharBuf@Integer@@QEAAXAEBVCharBuf@@@Z@4HA 00000001400074e0 f   Integer-cd7539.o
 0001:00006510       ?dtor$33@?0??setFromBigEndianCharBuf@Integer@@QEAAXAEBVCharBuf@@@Z@4HA 0000000140007510 f   Integer-cd7539.o
 0001:00007a60       ?dtor$18@?0??setFromStr@IntegerMath@@QEAAXAEAVInteger@@AEBVCharBuf@@@Z@4HA 0000000140008a60 f   IntegerMath-44b507.o
 0001:00007da0       ?dtor$40@?0??toString10@IntegerMath@@QEAAXAEBVInteger@@AEAVCharBuf@@@Z@4HA 0000000140008da0 f   IntegerMath-44b507.o
 0001:00007de0       ?dtor$43@?0??toString10@IntegerMath@@QEAAXAEBVInteger@@AEAVCharBuf@@@Z@4HA 0000000140008de0 f   IntegerMath-44b507.o
 0001:00007e20       ?dtor$46@?0??toString10@IntegerMath@@QEAAXAEBVInteger@@AEAVCharBuf@@@Z@4HA 0000000140008e20 f   IntegerMath-44b507.o
 0001:00007e60       ?dtor$49@?0??toString10@IntegerMath@@QEAAXAEBVInteger@@AEAVCharBuf@@@Z@4HA 0000000140008e60 f   IntegerMath-44b507.o
 0001:00007ea0       ?dtor$52@?0??toString10@IntegerMath@@QEAAXAEBVInteger@@AEAVCharBuf@@@Z@4HA 0000000140008ea0 f   IntegerMath-44b507.o
 0001:00009fa0       ?dtor$2@?0???0CharBuf@@QEAA@PEBD@Z@4HA 000000014000afa0 f   CharBuf-d39804.o
 0001:0000a500       ?dtor$60@?0??setFromInt64@CharBuf@@QEAAX_J@Z@4HA 000000014000b500 f   CharBuf-d39804.o
 0001:0000a8b0       ?dtor$52@?0??setFromUint64@CharBuf@@QEAAX_K@Z@4HA 000000014000b8b0 f   CharBuf-d39804.o
 0001:0000a950       ?dtor$2@?0???0CharBuf@@QEAA@AEBV0@@Z@4HA 000000014000b950 f   CharBuf-d39804.o
 0001:0000c060       ?dtor$35@?0??reverse@CharBuf@@QEAAXXZ@4HA 000000014000d060 f   CharBuf-d39804.o
 0001:0000c5c0       ?dtor$104@?0??setFromHexTo256@CharBuf@@QEAAXAEBV1@@Z@4HA 000000014000d5c0 f   CharBuf-d39804.o
 0001:0000c600       ?dtor$105@?0??setFromHexTo256@CharBuf@@QEAAXAEBV1@@Z@4HA 000000014000d600 f   CharBuf-d39804.o
 0001:0000cb7d       $ehgcr_0_15                000000014000db7d     FileIO-8f83e6.o
 0001:0000cc10       ?dtor$10@?0??writeAll@FileIO@@SA_NPEBDAEBVCharBuf@@@Z@4HA 000000014000dc10 f   FileIO-8f83e6.o
 0001:0000cc30       ?dtor$16@?0??writeAll@FileIO@@SA_NPEBDAEBVCharBuf@@@Z@4HA 000000014000dc30 f   FileIO-8f83e6.o
 0001:0000cc60       ?dtor$17@?0??writeAll@FileIO@@SA_NPEBDAEBVCharBuf@@@Z@4HA 000000014000dc60 f   FileIO-8f83e6.o
 0001:0000cc90       ?catch$20@?0??writeAll@FileIO@@SA_NPEBDAEBVCharBuf@@@Z@4HA 000000014000dc90 f   FileIO-8f83e6.o
 0001:0000ced8       $ehgcr_4_27                000000014000ded8     FileIO-8f83e6.o
 0001:0000cfd0       ?dtor$36@?0??readAll@FileIO@@SA_NPEBDAEAVCharBuf@@@Z@4HA 000000014000dfd0 f   FileIO-8f83e6.o
 0001:0000cff0       ?dtor$37@?0??readAll@FileIO@@SA_NPEBDAEAVCharBuf@@@Z@4HA 000000014000dff0 f   FileIO-8f83e6.o
 0001:0000d020       ?dtor$38@?0??readAll@FileIO@@SA_NPEBDAEAVCharBuf@@@Z@4HA 000000014000e020 f   FileIO-8f83e6.o
 0001:0000d050       ?catch$39@?0??readAll@FileIO@@SA_NPEBDAEAVCharBuf@@@Z@4HA 000000014000e050 f   FileIO-8f83e6.o
 0001:0000d122       $ehgcr_11_3                000000014000e122     FileIO-8f83e6.o
 0001:0000d140       ?dtor$4@?0??exists@FileIO@@SA_NPEBD@Z@4HA 000000014000e140 f   FileIO-8f83e6.o
 0001:0000d160       ?catch$5@?0??exists@FileIO@@SA_NPEBD@Z@4HA 000000014000e160 f   FileIO-8f83e6.o
 0001:0000d230       ?dtor$4@?0??copy@FileIO@@SA_NPEBD0@Z@4HA 000000014000e230 f   FileIO-8f83e6.o
 0001:0000d260       ?dtor$12@?0??copy@FileIO@@SA_NPEBD0@Z@4HA 000000014000e260 f   FileIO-8f83e6.o
 0001:0000d290       ??__F_Static@?1???$_Immortalize_memcpy_image@V_Iostream_error_category2@std@@@std@@YAAEBV_Iostream_error_category2@1@XZ@YAXXZ 000000014000e290 f   FileIO-8f83e6.o
 0001:0000d550       ?dtor$13@?0???0?$basic_ofstream@DU?$char_traits@D@std@@@std@@QEAA@PEBDHH@Z@4HA 000000014000e550 f i FileIO-8f83e6.o
 0001:0000d590       ?dtor$14@?0???0?$basic_ofstream@DU?$char_traits@D@std@@@std@@QEAA@PEBDHH@Z@4HA 000000014000e590 f i FileIO-8f83e6.o
 0001:0000d5e0       ?dtor$17@?0???0?$basic_ofstream@DU?$char_traits@D@std@@@std@@QEAA@PEBDHH@Z@4HA 000000014000e5e0 f i FileIO-8f83e6.o
 0001:0000d6c9       $ehgcr_2_16                000000014000e6c9     FileIO-8f83e6.o
 0001:0000d7a0       ?dtor$7@?0??write@?$basic_ostream@DU?$char_traits@D@std@@@std@@QEAAAEAV12@PEBD_J@Z@4HA 000000014000e7a0 f i FileIO-8f83e6.o
 0001:0000d7d0       ?catch$12@?0??write@?$basic_ostream@DU?$char_traits@D@std@@@std@@QEAAAEAV12@PEBD_J@Z@4HA 000000014000e7d0 f i FileIO-8f83e6.o
 0001:0000d820       ?dtor$25@?0??write@?$basic_ostream@DU?$char_traits@D@std@@@std@@QEAAAEAV12@PEBD_J@Z@4HA 000000014000e820 f i FileIO-8f83e6.o
 0001:0000d850       ?dtor$26@?0??write@?$basic_ostream@DU?$char_traits@D@std@@@std@@QEAAAEAV12@PEBD_J@Z@4HA 000000014000e850 f i FileIO-8f83e6.o
 0001:0000d8e0       ?dtor$2@?0???_D?$basic_ofstream@DU?$char_traits@D@std@@@std@@QEAAXXZ@4HA 000000014000e8e0 f i FileIO-8f83e6.o
 0001:0000dbc0       ?dtor$13@?0???0?$basic_ifstream@DU?$char_traits@D@std@@@std@@QEAA@PEBDHH@Z@4HA 000000014000ebc0 f i FileIO-8f83e6.o
 0001:0000dc00       ?dtor$14@?0???0?$basic_ifstream@DU?$char_traits@D@std@@@std@@QEAA@PEBDHH@Z@4HA 000000014000ec00 f i FileIO-8f83e6.o
 0001:0000dc50       ?dtor$17@?0???0?$basic_ifstream@DU?$char_traits@D@std@@@std@@QEAA@PEBDHH@Z@4HA 000000014000ec50 f i FileIO-8f83e6.o
 0001:0000dd3f       $ehgcr_6_9                 000000014000ed3f     FileIO-8f83e6.o
 0001:0000de60       ?catch$12@?0??seekg@?$basic_istream@DU?$char_traits@D@std@@@std@@QEAAAEAV12@_JH@Z@4HA 000000014000ee60 f i FileIO-8f83e6.o
 0001:0000deb0       ?dtor$18@?0??seekg@?$basic_istream@DU?$char_traits@D@std@@@std@@QEAAAEAV12@_JH@Z@4HA 000000014000eeb0 f i FileIO-8f83e6.o
 0001:0000dee0       ?dtor$20@?0??seekg@?$basic_istream@DU?$char_traits@D@std@@@std@@QEAAAEAV12@_JH@Z@4HA 000000014000eee0 f i FileIO-8f83e6.o
 0001:0000df10       ?dtor$22@?0??seekg@?$basic_istream@DU?$char_traits@D@std@@@std@@QEAAAEAV12@_JH@Z@4HA 000000014000ef10 f i FileIO-8f83e6.o
 0001:0000df88       $ehgcr_7_8                 000000014000ef88     FileIO-8f83e6.o
 0001:0000dff0       ?catch$6@?0??tellg@?$basic_istream@DU?$char_traits@D@std@@@std@@QEAA?AV?$fpos@U_Mbstatet@@@2@XZ@4HA 000000014000eff0 f i FileIO-8f83e6.o
 0001:0000e040       ?dtor$12@?0??tellg@?$basic_istream@DU?$char_traits@D@std@@@std@@QEAA?AV?$fpos@U_Mbstatet@@@2@XZ@4HA 000000014000f040 f i FileIO-8f83e6.o
 0001:0000e070       ?dtor$13@?0??tellg@?$basic_istream@DU?$char_traits@D@std@@@std@@QEAA?AV?$fpos@U_Mbstatet@@@2@XZ@4HA 000000014000f070 f i FileIO-8f83e6.o
 0001:0000e0a0       ?dtor$14@?0??tellg@?$basic_istream@DU?$char_traits@D@std@@@std@@QEAA?AV?$fpos@U_Mbstatet@@@2@XZ@4HA 000000014000f0a0 f i FileIO-8f83e6.o
 0001:0000e193       $ehgcr_8_9                 000000014000f193     FileIO-8f83e6.o
 0001:0000e2b0       ?catch$12@?0??seekg@?$basic_istream@DU?$char_traits@D@std@@@std@@QEAAAEAV12@V?$fpos@U_Mbstatet@@@2@@Z@4HA 000000014000f2b0 f i FileIO-8f83e6.o
 0001:0000e300       ?dtor$18@?0??seekg@?$basic_istream@DU?$char_traits@D@std@@@std@@QEAAAEAV12@V?$fpos@U_Mbstatet@@@2@@Z@4HA 000000014000f300 f i FileIO-8f83e6.o
 0001:0000e330       ?dtor$20@?0??seekg@?$basic_istream@DU?$char_traits@D@std@@@std@@QEAAAEAV12@V?$fpos@U_Mbstatet@@@2@@Z@4HA 000000014000f330 f i FileIO-8f83e6.o
 0001:0000e360       ?dtor$22@?0??seekg@?$basic_istream@DU?$char_traits@D@std@@@std@@QEAAAEAV12@V?$fpos@U_Mbstatet@@@2@@Z@4HA 000000014000f360 f i FileIO-8f83e6.o
 0001:0000e41e       $ehgcr_9_7                 000000014000f41e     FileIO-8f83e6.o
 0001:0000e4e0       ?catch$10@?0??read@?$basic_istream@DU?$char_traits@D@std@@@std@@QEAAAEAV12@PEAD_J@Z@4HA 000000014000f4e0 f i FileIO-8f83e6.o
 0001:0000e530       ?dtor$16@?0??read@?$basic_istream@DU?$char_traits@D@std@@@std@@QEAAAEAV12@PEAD_J@Z@4HA 000000014000f530 f i FileIO-8f83e6.o
 0001:0000e560       ?dtor$17@?0??read@?$basic_istream@DU?$char_traits@D@std@@@std@@QEAAAEAV12@PEAD_J@Z@4HA 000000014000f560 f i FileIO-8f83e6.o
 0001:0000e590       ?dtor$18@?0??read@?$basic_istream@DU?$char_traits@D@std@@@std@@QEAAAEAV12@PEAD_J@Z@4HA 000000014000f590 f i FileIO-8f83e6.o
 0001:0000e620       ?dtor$2@?0???_D?$basic_ifstream@DU?$char_traits@D@std@@@std@@QEAAXXZ@4HA 000000014000f620 f i FileIO-8f83e6.o
 0001:0000e710       ?dtor$11@?0???1?$basic_filebuf@DU?$char_traits@D@std@@@std@@UEAA@XZ@4HA 000000014000f710 f i FileIO-8f83e6.o
 0001:0000e7e0       ?dtor$4@?0???_E?$basic_ofstream@DU?$char_traits@D@std@@@std@@$4PPPPPPPM@A@EAAPEAXI@Z@4HA 000000014000f7e0 f i FileIO-8f83e6.o
 0001:0000efb0       ?dtor$42@?0??uflow@?$basic_filebuf@DU?$char_traits@D@std@@@std@@MEAAHXZ@4HA 000000014000ffb0 f i FileIO-8f83e6.o
 0001:0000efe0       ?dtor$46@?0??uflow@?$basic_filebuf@DU?$char_traits@D@std@@@std@@MEAAHXZ@4HA 000000014000ffe0 f i FileIO-8f83e6.o
 0001:0000f710       ?dtor$9@?0??setbuf@?$basic_filebuf@DU?$char_traits@D@std@@@std@@MEAAPEAV?$basic_streambuf@DU?$char_traits@D@std@@@2@PEAD_J@Z@4HA 0000000140010710 f i FileIO-8f83e6.o
 0001:0000fae0       ?dtor$5@?0???1?$basic_string@DU?$char_traits@D@std@@V?$allocator@D@2@@std@@QEAA@XZ@4HA 0000000140010ae0 f i FileIO-8f83e6.o
 0001:0000fc60       ?dtor$14@?0???$_Reallocate_grow_by@V<lambda_1>@?0??push_back@?$basic_string@DU?$char_traits@D@std@@V?$allocator@D@2@@std@@QEAAXD@Z@D@?$basic_string@DU?$char_traits@D@std@@V?$allocator@D@2@@std@@AEAAAEAV01@_KV<lambda_1>@?0??push_back@01@QEAAXD@Z@D@Z@4HA 0000000140010c60 f i FileIO-8f83e6.o
 0001:0000fd30       ?dtor$2@?0???0bad_array_new_length@std@@QEAA@AEBV01@@Z@4HA 0000000140010d30 f i FileIO-8f83e6.o
 0001:0000fda0       ?dtor$2@?0???0bad_alloc@std@@QEAA@AEBV01@@Z@4HA 0000000140010da0 f i FileIO-8f83e6.o
 0001:0000fe10       ?dtor$2@?0???0exception@std@@QEAA@AEBV01@@Z@4HA 0000000140010e10 f i FileIO-8f83e6.o
 0001:0000fe80       ?dtor$4@?0???_G_System_error@std@@UEAAPEAXI@Z@4HA 0000000140010e80 f i FileIO-8f83e6.o
 0001:0000fe80       ?dtor$4@?0???_Gbad_alloc@std@@UEAAPEAXI@Z@4HA 0000000140010e80 f i FileIO-8f83e6.o
 0001:0000fe80       ?dtor$4@?0???_Gbad_array_new_length@std@@UEAAPEAXI@Z@4HA 0000000140010e80 f i FileIO-8f83e6.o
 0001:0000fe80       ?dtor$4@?0???_Gexception@std@@UEAAPEAXI@Z@4HA 0000000140010e80 f i FileIO-8f83e6.o
 0001:0000fe80       ?dtor$4@?0???_Gfailure@ios_base@std@@UEAAPEAXI@Z@4HA 0000000140010e80 f i FileIO-8f83e6.o
 0001:0000fe80       ?dtor$4@?0???_Gruntime_error@std@@UEAAPEAXI@Z@4HA 0000000140010e80 f i FileIO-8f83e6.o
 0001:0000fe80       ?dtor$4@?0???_Gsystem_error@std@@UEAAPEAXI@Z@4HA 0000000140010e80 f i FileIO-8f83e6.o
 0001:00010020       ?dtor$20@?0???$use_facet@V?$codecvt@DDU_Mbstatet@@@std@@@std@@YAAEBV?$codecvt@DDU_Mbstatet@@@0@AEBVlocale@0@@Z@4HA 0000000140011020 f i FileIO-8f83e6.o
 0001:00010050       ?dtor$22@?0???$use_facet@V?$codecvt@DDU_Mbstatet@@@std@@@std@@YAAEBV?$codecvt@DDU_Mbstatet@@@0@AEBVlocale@0@@Z@4HA 0000000140011050 f i FileIO-8f83e6.o
 0001:00010080       ?dtor$23@?0???$use_facet@V?$codecvt@DDU_Mbstatet@@@std@@@std@@YAAEBV?$codecvt@DDU_Mbstatet@@@0@AEBVlocale@0@@Z@4HA 0000000140011080 f i FileIO-8f83e6.o
 0001:00010150       ?dtor$5@?0???0_Locinfo@std@@QEAA@PEBD@Z@4HA 0000000140011150 f i FileIO-8f83e6.o
 0001:000102c0       ?dtor$14@?0???1_Locinfo@std@@QEAA@XZ@4HA 00000001400112c0 f i FileIO-8f83e6.o
 0001:00010320       initialize_environment     0000000140011320 f i libucrt:initialization.obj
 0001:00010320       initialize_global_state_isolation 0000000140011320 f i libucrt:initialization.obj
 0001:00010320       report_memory_leaks        0000000140011320 f i libucrt:initialization.obj
 0001:00010320       uninitialize_c             0000000140011320 f i libucrt:initialization.obj
 0001:00010320       uninitialize_global_state_isolation 0000000140011320 f i libucrt:initialization.obj
 0001:000103e0       ?dtor$4@?0???_G?$basic_ios@DU?$char_traits@D@std@@@std@@UEAAPEAXI@Z@4HA 00000001400113e0 f i FileIO-8f83e6.o
 0001:000103e0       ?dtor$4@?0???_Gios_base@std@@UEAAPEAXI@Z@4HA 00000001400113e0 f i FileIO-8f83e6.o
 0001:000104b0       ?dtor$4@?0???_E?$basic_ifstream@DU?$char_traits@D@std@@@std@@$4PPPPPPPM@A@EAAPEAXI@Z@4HA 00000001400114b0 f i FileIO-8f83e6.o
 0001:00010680       ?dtor$12@?0??open@?$basic_filebuf@DU?$char_traits@D@std@@@std@@QEAAPEAV12@PEBDHH@Z@4HA 0000000140011680 f i FileIO-8f83e6.o
 0001:000106d0       ?dtor$16@?0??open@?$basic_filebuf@DU?$char_traits@D@std@@@std@@QEAAPEAV12@PEBDHH@Z@4HA 00000001400116d0 f i FileIO-8f83e6.o
 0001:000108d0       ?dtor$9@?0??init@?$basic_ios@DU?$char_traits@D@std@@@std@@IEAAXPEAV?$basic_streambuf@DU?$char_traits@D@std@@@2@_N@Z@4HA 00000001400118d0 f i FileIO-8f83e6.o
 0001:00010920       ?dtor$16@?0??init@?$basic_ios@DU?$char_traits@D@std@@@std@@IEAAXPEAV?$basic_streambuf@DU?$char_traits@D@std@@@2@_N@Z@4HA 0000000140011920 f i FileIO-8f83e6.o
 0001:000109a0       ?dtor$4@?0???_E?$basic_ostream@DU?$char_traits@D@std@@@std@@$4PPPPPPPM@A@EAAPEAXI@Z@4HA 00000001400119a0 f i FileIO-8f83e6.o
 0001:00010ae0       ?dtor$2@?0???0failure@ios_base@std@@QEAA@AEBV012@@Z@4HA 0000000140011ae0 f i FileIO-8f83e6.o
 0001:00010b60       ?dtor$2@?0???0system_error@std@@QEAA@AEBV01@@Z@4HA 0000000140011b60 f i FileIO-8f83e6.o
 0001:00010be0       ?dtor$2@?0???0_System_error@std@@QEAA@AEBV01@@Z@4HA 0000000140011be0 f i FileIO-8f83e6.o
 0001:00010c50       ?dtor$2@?0???0runtime_error@std@@QEAA@AEBV01@@Z@4HA 0000000140011c50 f i FileIO-8f83e6.o
 0001:00010ca0       ?dtor$2@?0???1exception@std@@UEAA@XZ@4HA 0000000140011ca0 f i FileIO-8f83e6.o
 0001:00010fc0       ?dtor$13@?0???0system_error@std@@QEAA@Verror_code@1@PEBD@Z@4HA 0000000140011fc0 f i FileIO-8f83e6.o
 0001:00010fe0       ?dtor$17@?0???0system_error@std@@QEAA@Verror_code@1@PEBD@Z@4HA 0000000140011fe0 f i FileIO-8f83e6.o
 0001:00011190       ?dtor$17@?0???0_System_error@std@@IEAA@Verror_code@1@AEBV?$basic_string@DU?$char_traits@D@std@@V?$allocator@D@2@@1@@Z@4HA 0000000140012190 f i FileIO-8f83e6.o
 0001:000111b0       ?dtor$22@?0???0_System_error@std@@IEAA@Verror_code@1@AEBV?$basic_string@DU?$char_traits@D@std@@V?$allocator@D@2@@1@@Z@4HA 00000001400121b0 f i FileIO-8f83e6.o
 0001:00011340       ?dtor$19@?0??_Makestr@_System_error@std@@CA?AV?$basic_string@DU?$char_traits@D@std@@V?$allocator@D@2@@2@Verror_code@2@V32@@Z@4HA 0000000140012340 f i FileIO-8f83e6.o
 0001:00011360       ?dtor$23@?0??_Makestr@_System_error@std@@CA?AV?$basic_string@DU?$char_traits@D@std@@V?$allocator@D@2@@2@Verror_code@2@V32@@Z@4HA 0000000140012360 f i FileIO-8f83e6.o
 0001:00011390       ?dtor$24@?0??_Makestr@_System_error@std@@CA?AV?$basic_string@DU?$char_traits@D@std@@V?$allocator@D@2@@2@Verror_code@2@V32@@Z@4HA 0000000140012390 f i FileIO-8f83e6.o
 0001:00011540       ?dtor$14@?0???$_Reallocate_grow_by@V<lambda_1>@?0??append@?$basic_string@DU?$char_traits@D@std@@V?$allocator@D@2@@std@@QEAAAEAV34@QEBD_K@Z@PEBD_K@?$basic_string@DU?$char_traits@D@std@@V?$allocator@D@2@@std@@AEAAAEAV01@_KV<lambda_1>@?0??append@01@QEAAAEAV01@QEBD0@Z@PEBD_K@Z@4HA 0000000140012540 f i FileIO-8f83e6.o
 0001:000116d0       ?dtor$20@?0???$use_facet@V?$ctype@D@std@@@std@@YAAEBV?$ctype@D@0@AEBVlocale@0@@Z@4HA 00000001400126d0 f i FileIO-8f83e6.o
 0001:00011700       ?dtor$22@?0???$use_facet@V?$ctype@D@std@@@std@@YAAEBV?$ctype@D@0@AEBVlocale@0@@Z@4HA 0000000140012700 f i FileIO-8f83e6.o
 0001:00011730       ?dtor$23@?0???$use_facet@V?$ctype@D@std@@@std@@YAAEBV?$ctype@D@0@AEBVlocale@0@@Z@4HA 0000000140012730 f i FileIO-8f83e6.o
 0001:00011920       ?dtor$5@?0???1sentry@?$basic_ostream@DU?$char_traits@D@std@@@std@@QEAA@XZ@4HA 0000000140012920 f i FileIO-8f83e6.o
 0001:000119e5       $ehgcr_116_18              00000001400129e5     FileIO-8f83e6.o
 0001:00011ac0       ?dtor$13@?0??flush@?$basic_ostream@DU?$char_traits@D@std@@@std@@QEAAAEAV12@XZ@4HA 0000000140012ac0 f i FileIO-8f83e6.o
 0001:00011af0       ?catch$22@?0??flush@?$basic_ostream@DU?$char_traits@D@std@@@std@@QEAAAEAV12@XZ@4HA 0000000140012af0 f i FileIO-8f83e6.o
 0001:00011b40       ?dtor$24@?0??flush@?$basic_ostream@DU?$char_traits@D@std@@@std@@QEAAAEAV12@XZ@4HA 0000000140012b40 f i FileIO-8f83e6.o
 0001:00011b70       ?dtor$25@?0??flush@?$basic_ostream@DU?$char_traits@D@std@@@std@@QEAAAEAV12@XZ@4HA 0000000140012b70 f i FileIO-8f83e6.o
 0001:00011bd0       ?dtor$3@?0???1_Sentry_base@?$basic_istream@DU?$char_traits@D@std@@@std@@QEAA@XZ@4HA 0000000140012bd0 f i FileIO-8f83e6.o
 0001:00011bd0       ?dtor$3@?0???1_Sentry_base@?$basic_ostream@DU?$char_traits@D@std@@@std@@QEAA@XZ@4HA 0000000140012bd0 f i FileIO-8f83e6.o
 0001:00011c48       $ehgcr_118_9               0000000140012c48     FileIO-8f83e6.o
 0001:00011cc0       ?catch$8@?0??_Osfx@?$basic_ostream@DU?$char_traits@D@std@@@std@@QEAAXXZ@4HA 0000000140012cc0 f i FileIO-8f83e6.o
 0001:00011ce0       ?dtor$10@?0??_Osfx@?$basic_ostream@DU?$char_traits@D@std@@@std@@QEAAXXZ@4HA 0000000140012ce0 f i FileIO-8f83e6.o
 0001:00011d60       ?dtor$4@?0???_E?$basic_istream@DU?$char_traits@D@std@@@std@@$4PPPPPPPM@A@EAAPEAXI@Z@4HA 0000000140012d60 f i FileIO-8f83e6.o
 0001:00011f72       $ehgcr_121_34              0000000140012f72     FileIO-8f83e6.o
 0001:00011ff0       ?dtor$21@?0??_Ipfx@?$basic_istream@DU?$char_traits@D@std@@@std@@QEAA_N_N@Z@4HA 0000000140012ff0 f i FileIO-8f83e6.o
 0001:00012030       ?catch$32@?0??_Ipfx@?$basic_istream@DU?$char_traits@D@std@@@std@@QEAA_N_N@Z@4HA 0000000140013030 f i FileIO-8f83e6.o
 0001:000131c0       ?dtor$4@?0??parseOneExten@CertExten@@QEAA_NAEBVCharBuf@@AEAV2@@Z@4HA 00000001400141c0 f   CertExten-605d09.o
 0001:00013200       ?dtor$18@?0??parseOneExten@CertExten@@QEAA_NAEBVCharBuf@@AEAV2@@Z@4HA 0000000140014200 f   CertExten-605d09.o
 0001:00013240       ?dtor$21@?0??parseOneExten@CertExten@@QEAA_NAEBVCharBuf@@AEAV2@@Z@4HA 0000000140014240 f   CertExten-605d09.o
 0001:00013280       ?dtor$44@?0??parseOneExten@CertExten@@QEAA_NAEBVCharBuf@@AEAV2@@Z@4HA 0000000140014280 f   CertExten-605d09.o
 0001:000132c0       ?dtor$52@?0??parseOneExten@CertExten@@QEAA_NAEBVCharBuf@@AEAV2@@Z@4HA 00000001400142c0 f   CertExten-605d09.o
 0001:00013300       ?dtor$66@?0??parseOneExten@CertExten@@QEAA_NAEBVCharBuf@@AEAV2@@Z@4HA 0000000140014300 f   CertExten-605d09.o
 0001:00013340       ?dtor$83@?0??parseOneExten@CertExten@@QEAA_NAEBVCharBuf@@AEAV2@@Z@4HA 0000000140014340 f   CertExten-605d09.o
 0001:00013380       ?dtor$86@?0??parseOneExten@CertExten@@QEAA_NAEBVCharBuf@@AEAV2@@Z@4HA 0000000140014380 f   CertExten-605d09.o
 0001:000133c0       ?dtor$89@?0??parseOneExten@CertExten@@QEAA_NAEBVCharBuf@@AEAV2@@Z@4HA 00000001400143c0 f   CertExten-605d09.o
 0001:00013400       ?dtor$92@?0??parseOneExten@CertExten@@QEAA_NAEBVCharBuf@@AEAV2@@Z@4HA 0000000140014400 f   CertExten-605d09.o
 0001:000139b0       ?dtor$32@?0??parseOneCert@Certificate@@QEAAIAEBVCharBuf@@AEAVTlsMain@@@Z@4HA 00000001400149b0 f   Certificate-25f9b2.o
 0001:000139f0       ?dtor$35@?0??parseOneCert@Certificate@@QEAAIAEBVCharBuf@@AEAVTlsMain@@@Z@4HA 00000001400149f0 f   Certificate-25f9b2.o
 0001:00013a30       ?dtor$38@?0??parseOneCert@Certificate@@QEAAIAEBVCharBuf@@AEAVTlsMain@@@Z@4HA 0000000140014a30 f   Certificate-25f9b2.o
 0001:00013a70       ?dtor$41@?0??parseOneCert@Certificate@@QEAAIAEBVCharBuf@@AEAVTlsMain@@@Z@4HA 0000000140014a70 f   Certificate-25f9b2.o
 0001:00013ab0       ?dtor$44@?0??parseOneCert@Certificate@@QEAAIAEBVCharBuf@@AEAVTlsMain@@@Z@4HA 0000000140014ab0 f   Certificate-25f9b2.o
 0001:00013af0       ?dtor$47@?0??parseOneCert@Certificate@@QEAAIAEBVCharBuf@@AEAVTlsMain@@@Z@4HA 0000000140014af0 f   Certificate-25f9b2.o
 0001:00013b30       ?dtor$50@?0??parseOneCert@Certificate@@QEAAIAEBVCharBuf@@AEAVTlsMain@@@Z@4HA 0000000140014b30 f   Certificate-25f9b2.o
 0001:00013b70       ?dtor$77@?0??parseOneCert@Certificate@@QEAAIAEBVCharBuf@@AEAVTlsMain@@@Z@4HA 0000000140014b70 f   Certificate-25f9b2.o
 0001:00013bb0       ?dtor$80@?0??parseOneCert@Certificate@@QEAAIAEBVCharBuf@@AEAVTlsMain@@@Z@4HA 0000000140014bb0 f   Certificate-25f9b2.o
 0001:00013bf0       ?dtor$83@?0??parseOneCert@Certificate@@QEAAIAEBVCharBuf@@AEAVTlsMain@@@Z@4HA 0000000140014bf0 f   Certificate-25f9b2.o
 0001:00013c30       ?dtor$96@?0??parseOneCert@Certificate@@QEAAIAEBVCharBuf@@AEAVTlsMain@@@Z@4HA 0000000140014c30 f   Certificate-25f9b2.o
 0001:00013c70       ?dtor$99@?0??parseOneCert@Certificate@@QEAAIAEBVCharBuf@@AEAVTlsMain@@@Z@4HA 0000000140014c70 f   Certificate-25f9b2.o
 0001:00013cb0       ?dtor$102@?0??parseOneCert@Certificate@@QEAAIAEBVCharBuf@@AEAVTlsMain@@@Z@4HA 0000000140014cb0 f   Certificate-25f9b2.o
 0001:00013cf0       ?dtor$105@?0??parseOneCert@Certificate@@QEAAIAEBVCharBuf@@AEAVTlsMain@@@Z@4HA 0000000140014cf0 f   Certificate-25f9b2.o
 0001:000140b0       ?dtor$4@?0??parseVersion@Certificate@@QEAAHAEBVCharBuf@@@Z@4HA 00000001400150b0 f   Certificate-25f9b2.o
 0001:000140e0       ?dtor$12@?0??parseVersion@Certificate@@QEAAHAEBVCharBuf@@@Z@4HA 00000001400150e0 f   Certificate-25f9b2.o
 0001:00014110       ?dtor$34@?0??parseVersion@Certificate@@QEAAHAEBVCharBuf@@@Z@4HA 0000000140015110 f   Certificate-25f9b2.o
 0001:00014140       ?dtor$37@?0??parseVersion@Certificate@@QEAAHAEBVCharBuf@@@Z@4HA 0000000140015140 f   Certificate-25f9b2.o
 0001:00014300       ?dtor$19@?0??parseSerialNum@Certificate@@QEAAHAEBVCharBuf@@HAEAVTlsMain@@@Z@4HA 0000000140015300 f   Certificate-25f9b2.o
 0001:00014340       ?dtor$22@?0??parseSerialNum@Certificate@@QEAAHAEBVCharBuf@@HAEAVTlsMain@@@Z@4HA 0000000140015340 f   Certificate-25f9b2.o
 0001:00014380       ?dtor$25@?0??parseSerialNum@Certificate@@QEAAHAEBVCharBuf@@HAEAVTlsMain@@@Z@4HA 0000000140015380 f   Certificate-25f9b2.o
 0001:000143c0       ?dtor$28@?0??parseSerialNum@Certificate@@QEAAHAEBVCharBuf@@HAEAVTlsMain@@@Z@4HA 00000001400153c0 f   Certificate-25f9b2.o
 0001:00014400       ?dtor$31@?0??parseSerialNum@Certificate@@QEAAHAEBVCharBuf@@HAEAVTlsMain@@@Z@4HA 0000000140015400 f   Certificate-25f9b2.o
 0001:00014440       ?dtor$34@?0??parseSerialNum@Certificate@@QEAAHAEBVCharBuf@@HAEAVTlsMain@@@Z@4HA 0000000140015440 f   Certificate-25f9b2.o
 0001:00014760       ?dtor$4@?0??parseTbsSigAlgID@Certificate@@QEAAHAEBVCharBuf@@H@Z@4HA 0000000140015760 f   Certificate-25f9b2.o
 0001:000147a0       ?dtor$13@?0??parseTbsSigAlgID@Certificate@@QEAAHAEBVCharBuf@@H@Z@4HA 00000001400157a0 f   Certificate-25f9b2.o
 0001:000147d0       ?dtor$32@?0??parseTbsSigAlgID@Certificate@@QEAAHAEBVCharBuf@@H@Z@4HA 00000001400157d0 f   Certificate-25f9b2.o
 0001:00014800       ?dtor$35@?0??parseTbsSigAlgID@Certificate@@QEAAHAEBVCharBuf@@H@Z@4HA 0000000140015800 f   Certificate-25f9b2.o
 0001:00014830       ?dtor$38@?0??parseTbsSigAlgID@Certificate@@QEAAHAEBVCharBuf@@H@Z@4HA 0000000140015830 f   Certificate-25f9b2.o
 0001:00014860       ?dtor$53@?0??parseTbsSigAlgID@Certificate@@QEAAHAEBVCharBuf@@H@Z@4HA 0000000140015860 f   Certificate-25f9b2.o
 0001:00014890       ?dtor$56@?0??parseTbsSigAlgID@Certificate@@QEAAHAEBVCharBuf@@H@Z@4HA 0000000140015890 f   Certificate-25f9b2.o
 0001:000148c0       ?dtor$59@?0??parseTbsSigAlgID@Certificate@@QEAAHAEBVCharBuf@@H@Z@4HA 00000001400158c0 f   Certificate-25f9b2.o
 0001:000148f0       ?dtor$62@?0??parseTbsSigAlgID@Certificate@@QEAAHAEBVCharBuf@@H@Z@4HA 00000001400158f0 f   Certificate-25f9b2.o
 0001:00014920       ?dtor$65@?0??parseTbsSigAlgID@Certificate@@QEAAHAEBVCharBuf@@H@Z@4HA 0000000140015920 f   Certificate-25f9b2.o
 0001:00014e10       ?dtor$4@?0??parseIssuer@Certificate@@QEAAHAEBVCharBuf@@H@Z@4HA 0000000140015e10 f   Certificate-25f9b2.o
 0001:00014e50       ?dtor$13@?0??parseIssuer@Certificate@@QEAAHAEBVCharBuf@@H@Z@4HA 0000000140015e50 f   Certificate-25f9b2.o
 0001:00014e80       ?dtor$22@?0??parseIssuer@Certificate@@QEAAHAEBVCharBuf@@H@Z@4HA 0000000140015e80 f   Certificate-25f9b2.o
 0001:00014eb0       ?dtor$31@?0??parseIssuer@Certificate@@QEAAHAEBVCharBuf@@H@Z@4HA 0000000140015eb0 f   Certificate-25f9b2.o
 0001:00014ef0       ?dtor$46@?0??parseIssuer@Certificate@@QEAAHAEBVCharBuf@@H@Z@4HA 0000000140015ef0 f   Certificate-25f9b2.o
 0001:00014f20       ?dtor$49@?0??parseIssuer@Certificate@@QEAAHAEBVCharBuf@@H@Z@4HA 0000000140015f20 f   Certificate-25f9b2.o
 0001:00014f50       ?dtor$73@?0??parseIssuer@Certificate@@QEAAHAEBVCharBuf@@H@Z@4HA 0000000140015f50 f   Certificate-25f9b2.o
 0001:00014f90       ?dtor$76@?0??parseIssuer@Certificate@@QEAAHAEBVCharBuf@@H@Z@4HA 0000000140015f90 f   Certificate-25f9b2.o
 0001:00014fd0       ?dtor$79@?0??parseIssuer@Certificate@@QEAAHAEBVCharBuf@@H@Z@4HA 0000000140015fd0 f   Certificate-25f9b2.o
 0001:00015000       ?dtor$82@?0??parseIssuer@Certificate@@QEAAHAEBVCharBuf@@H@Z@4HA 0000000140016000 f   Certificate-25f9b2.o
 0001:00015030       ?dtor$85@?0??parseIssuer@Certificate@@QEAAHAEBVCharBuf@@H@Z@4HA 0000000140016030 f   Certificate-25f9b2.o
 0001:00015070       ?dtor$88@?0??parseIssuer@Certificate@@QEAAHAEBVCharBuf@@H@Z@4HA 0000000140016070 f   Certificate-25f9b2.o
 0001:000150a0       ?dtor$91@?0??parseIssuer@Certificate@@QEAAHAEBVCharBuf@@H@Z@4HA 00000001400160a0 f   Certificate-25f9b2.o
 0001:000150d0       ?dtor$94@?0??parseIssuer@Certificate@@QEAAHAEBVCharBuf@@H@Z@4HA 00000001400160d0 f   Certificate-25f9b2.o
 0001:000153c0       ?dtor$4@?0??parseValidity@Certificate@@QEAAHAEBVCharBuf@@H@Z@4HA 00000001400163c0 f   Certificate-25f9b2.o
 0001:000153f0       ?dtor$13@?0??parseValidity@Certificate@@QEAAHAEBVCharBuf@@H@Z@4HA 00000001400163f0 f   Certificate-25f9b2.o
 0001:00015420       ?dtor$25@?0??parseValidity@Certificate@@QEAAHAEBVCharBuf@@H@Z@4HA 0000000140016420 f   Certificate-25f9b2.o
 0001:00015450       ?dtor$43@?0??parseValidity@Certificate@@QEAAHAEBVCharBuf@@H@Z@4HA 0000000140016450 f   Certificate-25f9b2.o
 0001:00015480       ?dtor$46@?0??parseValidity@Certificate@@QEAAHAEBVCharBuf@@H@Z@4HA 0000000140016480 f   Certificate-25f9b2.o
 0001:000154b0       ?dtor$49@?0??parseValidity@Certificate@@QEAAHAEBVCharBuf@@H@Z@4HA 00000001400164b0 f   Certificate-25f9b2.o
 0001:000154e0       ?dtor$52@?0??parseValidity@Certificate@@QEAAHAEBVCharBuf@@H@Z@4HA 00000001400164e0 f   Certificate-25f9b2.o
 0001:00015510       ?dtor$55@?0??parseValidity@Certificate@@QEAAHAEBVCharBuf@@H@Z@4HA 0000000140016510 f   Certificate-25f9b2.o
 0001:000159b0       ?dtor$4@?0??parseSubject@Certificate@@QEAAHAEBVCharBuf@@H@Z@4HA 00000001400169b0 f   Certificate-25f9b2.o
 0001:000159f0       ?dtor$13@?0??parseSubject@Certificate@@QEAAHAEBVCharBuf@@H@Z@4HA 00000001400169f0 f   Certificate-25f9b2.o
 0001:00015a20       ?dtor$22@?0??parseSubject@Certificate@@QEAAHAEBVCharBuf@@H@Z@4HA 0000000140016a20 f   Certificate-25f9b2.o
 0001:00015a50       ?dtor$31@?0??parseSubject@Certificate@@QEAAHAEBVCharBuf@@H@Z@4HA 0000000140016a50 f   Certificate-25f9b2.o
 0001:00015a90       ?dtor$65@?0??parseSubject@Certificate@@QEAAHAEBVCharBuf@@H@Z@4HA 0000000140016a90 f   Certificate-25f9b2.o
 0001:00015ac0       ?dtor$68@?0??parseSubject@Certificate@@QEAAHAEBVCharBuf@@H@Z@4HA 0000000140016ac0 f   Certificate-25f9b2.o
 0001:00015af0       ?dtor$71@?0??parseSubject@Certificate@@QEAAHAEBVCharBuf@@H@Z@4HA 0000000140016af0 f   Certificate-25f9b2.o
 0001:00015b30       ?dtor$74@?0??parseSubject@Certificate@@QEAAHAEBVCharBuf@@H@Z@4HA 0000000140016b30 f   Certificate-25f9b2.o
 0001:00015b70       ?dtor$77@?0??parseSubject@Certificate@@QEAAHAEBVCharBuf@@H@Z@4HA 0000000140016b70 f   Certificate-25f9b2.o
 0001:00015ba0       ?dtor$80@?0??parseSubject@Certificate@@QEAAHAEBVCharBuf@@H@Z@4HA 0000000140016ba0 f   Certificate-25f9b2.o
 0001:00015bd0       ?dtor$83@?0??parseSubject@Certificate@@QEAAHAEBVCharBuf@@H@Z@4HA 0000000140016bd0 f   Certificate-25f9b2.o
 0001:00015c10       ?dtor$86@?0??parseSubject@Certificate@@QEAAHAEBVCharBuf@@H@Z@4HA 0000000140016c10 f   Certificate-25f9b2.o
 0001:00015c40       ?dtor$89@?0??parseSubject@Certificate@@QEAAHAEBVCharBuf@@H@Z@4HA 0000000140016c40 f   Certificate-25f9b2.o
 0001:00015c70       ?dtor$92@?0??parseSubject@Certificate@@QEAAHAEBVCharBuf@@H@Z@4HA 0000000140016c70 f   Certificate-25f9b2.o
 0001:00016220       ?dtor$7@?0??parseSubjectPubKey@Certificate@@QEAAHAEBVCharBuf@@HAEAVTlsMain@@@Z@4HA 0000000140017220 f   Certificate-25f9b2.o
 0001:00016260       ?dtor$18@?0??parseSubjectPubKey@Certificate@@QEAAHAEBVCharBuf@@HAEAVTlsMain@@@Z@4HA 0000000140017260 f   Certificate-25f9b2.o
 0001:000162a0       ?dtor$27@?0??parseSubjectPubKey@Certificate@@QEAAHAEBVCharBuf@@HAEAVTlsMain@@@Z@4HA 00000001400172a0 f   Certificate-25f9b2.o
 0001:000162e0       ?dtor$42@?0??parseSubjectPubKey@Certificate@@QEAAHAEBVCharBuf@@HAEAVTlsMain@@@Z@4HA 00000001400172e0 f   Certificate-25f9b2.o
 0001:00016320       ?dtor$45@?0??parseSubjectPubKey@Certificate@@QEAAHAEBVCharBuf@@HAEAVTlsMain@@@Z@4HA 0000000140017320 f   Certificate-25f9b2.o
 0001:00016360       ?dtor$54@?0??parseSubjectPubKey@Certificate@@QEAAHAEBVCharBuf@@HAEAVTlsMain@@@Z@4HA 0000000140017360 f   Certificate-25f9b2.o
 0001:000163a0       ?dtor$85@?0??parseSubjectPubKey@Certificate@@QEAAHAEBVCharBuf@@HAEAVTlsMain@@@Z@4HA 00000001400173a0 f   Certificate-25f9b2.o
 0001:000163e0       ?dtor$88@?0??parseSubjectPubKey@Certificate@@QEAAHAEBVCharBuf@@HAEAVTlsMain@@@Z@4HA 00000001400173e0 f   Certificate-25f9b2.o
 0001:00016420       ?dtor$91@?0??parseSubjectPubKey@Certificate@@QEAAHAEBVCharBuf@@HAEAVTlsMain@@@Z@4HA 0000000140017420 f   Certificate-25f9b2.o
 0001:00016460       ?dtor$94@?0??parseSubjectPubKey@Certificate@@QEAAHAEBVCharBuf@@HAEAVTlsMain@@@Z@4HA 0000000140017460 f   Certificate-25f9b2.o
 0001:000164a0       ?dtor$97@?0??parseSubjectPubKey@Certificate@@QEAAHAEBVCharBuf@@HAEAVTlsMain@@@Z@4HA 00000001400174a0 f   Certificate-25f9b2.o
 0001:000164e0       ?dtor$100@?0??parseSubjectPubKey@Certificate@@QEAAHAEBVCharBuf@@HAEAVTlsMain@@@Z@4HA 00000001400174e0 f   Certificate-25f9b2.o
 0001:00016520       ?dtor$103@?0??parseSubjectPubKey@Certificate@@QEAAHAEBVCharBuf@@HAEAVTlsMain@@@Z@4HA 0000000140017520 f   Certificate-25f9b2.o
 0001:00016560       ?dtor$106@?0??parseSubjectPubKey@Certificate@@QEAAHAEBVCharBuf@@HAEAVTlsMain@@@Z@4HA 0000000140017560 f   Certificate-25f9b2.o
 0001:000165a0       ?dtor$109@?0??parseSubjectPubKey@Certificate@@QEAAHAEBVCharBuf@@HAEAVTlsMain@@@Z@4HA 00000001400175a0 f   Certificate-25f9b2.o
 0001:000165e0       ?dtor$112@?0??parseSubjectPubKey@Certificate@@QEAAHAEBVCharBuf@@HAEAVTlsMain@@@Z@4HA 00000001400175e0 f   Certificate-25f9b2.o
 0001:00016850       ?dtor$16@?0??parseUniqueID@Certificate@@QEAAHAEBVCharBuf@@H@Z@4HA 0000000140017850 f   Certificate-25f9b2.o
 0001:00016880       ?dtor$34@?0??parseUniqueID@Certificate@@QEAAHAEBVCharBuf@@H@Z@4HA 0000000140017880 f   Certificate-25f9b2.o
 0001:00016cf0       ?dtor$17@?0??parseExtensions@Certificate@@QEAAHAEBVCharBuf@@H@Z@4HA 0000000140017cf0 f   Certificate-25f9b2.o
 0001:00016d30       ?dtor$39@?0??parseExtensions@Certificate@@QEAAHAEBVCharBuf@@H@Z@4HA 0000000140017d30 f   Certificate-25f9b2.o
 0001:00016d70       ?dtor$42@?0??parseExtensions@Certificate@@QEAAHAEBVCharBuf@@H@Z@4HA 0000000140017d70 f   Certificate-25f9b2.o
 0001:00016db0       ?dtor$59@?0??parseExtensions@Certificate@@QEAAHAEBVCharBuf@@H@Z@4HA 0000000140017db0 f   Certificate-25f9b2.o
 0001:00016df0       ?dtor$65@?0??parseExtensions@Certificate@@QEAAHAEBVCharBuf@@H@Z@4HA 0000000140017df0 f   Certificate-25f9b2.o
 0001:00016e30       ?dtor$68@?0??parseExtensions@Certificate@@QEAAHAEBVCharBuf@@H@Z@4HA 0000000140017e30 f   Certificate-25f9b2.o
 0001:00016e70       ?dtor$69@?0??parseExtensions@Certificate@@QEAAHAEBVCharBuf@@H@Z@4HA 0000000140017e70 f   Certificate-25f9b2.o
 0001:00016eb0       ?dtor$72@?0??parseExtensions@Certificate@@QEAAHAEBVCharBuf@@H@Z@4HA 0000000140017eb0 f   Certificate-25f9b2.o
 0001:00016ef0       ?dtor$75@?0??parseExtensions@Certificate@@QEAAHAEBVCharBuf@@H@Z@4HA 0000000140017ef0 f   Certificate-25f9b2.o
 0001:00017230       ?dtor$24@?0???0CertExten@@QEAA@XZ@4HA 0000000140018230 f i Certificate-25f9b2.o
 0001:00017270       ?dtor$27@?0???0CertExten@@QEAA@XZ@4HA 0000000140018270 f i Certificate-25f9b2.o
 0001:000172b0       ?dtor$30@?0???0CertExten@@QEAA@XZ@4HA 00000001400182b0 f i Certificate-25f9b2.o
 0001:000172f0       ?dtor$33@?0???0CertExten@@QEAA@XZ@4HA 00000001400182f0 f i Certificate-25f9b2.o
 0001:00017330       ?dtor$36@?0???0CertExten@@QEAA@XZ@4HA 0000000140018330 f i Certificate-25f9b2.o
 0001:00017370       ?dtor$39@?0???0CertExten@@QEAA@XZ@4HA 0000000140018370 f i Certificate-25f9b2.o
 0001:000173b0       ?dtor$42@?0???0CertExten@@QEAA@XZ@4HA 00000001400183b0 f i Certificate-25f9b2.o
 0001:000173f0       ?dtor$45@?0???0CertExten@@QEAA@XZ@4HA 00000001400183f0 f i Certificate-25f9b2.o
 0001:00017430       ?dtor$48@?0???0CertExten@@QEAA@XZ@4HA 0000000140018430 f i Certificate-25f9b2.o
 0001:00017470       ?dtor$51@?0???0CertExten@@QEAA@XZ@4HA 0000000140018470 f i Certificate-25f9b2.o
 0001:000174b0       ?dtor$54@?0???0CertExten@@QEAA@XZ@4HA 00000001400184b0 f i Certificate-25f9b2.o
 0001:000174f0       ?dtor$57@?0???0CertExten@@QEAA@XZ@4HA 00000001400184f0 f i Certificate-25f9b2.o
 0001:00017530       ?dtor$60@?0???0CertExten@@QEAA@XZ@4HA 0000000140018530 f i Certificate-25f9b2.o
 0001:00017570       ?dtor$63@?0???0CertExten@@QEAA@XZ@4HA 0000000140018570 f i Certificate-25f9b2.o
 0001:000175b0       ?dtor$66@?0???0CertExten@@QEAA@XZ@4HA 00000001400185b0 f i Certificate-25f9b2.o
 0001:000175f0       ?dtor$69@?0???0CertExten@@QEAA@XZ@4HA 00000001400185f0 f i Certificate-25f9b2.o
 0001:00017e00       ?dtor$38@?0??parseCertMsg@CertMesg@@QEAAIAEBVCharBuf@@AEAVTlsMain@@@Z@4HA 0000000140018e00 f   CertMesg-a4ef86.o
 0001:00017e40       ?dtor$41@?0??parseCertMsg@CertMesg@@QEAAIAEBVCharBuf@@AEAVTlsMain@@@Z@4HA 0000000140018e40 f   CertMesg-a4ef86.o
 0001:00017e80       ?dtor$111@?0??parseCertMsg@CertMesg@@QEAAIAEBVCharBuf@@AEAVTlsMain@@@Z@4HA 0000000140018e80 f   CertMesg-a4ef86.o
 0001:00017ec0       ?dtor$114@?0??parseCertMsg@CertMesg@@QEAAIAEBVCharBuf@@AEAVTlsMain@@@Z@4HA 0000000140018ec0 f   CertMesg-a4ef86.o
 0001:00017fd0       ?dtor$2@?0???0ClientHello@@QEAA@XZ@4HA 0000000140018fd0 f   ClientHello-c57bea.o
 0001:00018090       ?dtor$3@?0???0ClientHello@@QEAA@AEBV0@@Z@4HA 0000000140019090 f   ClientHello-c57bea.o
 0001:000180c0       ?dtor$6@?0???0ClientHello@@QEAA@AEBV0@@Z@4HA 00000001400190c0 f   ClientHello-c57bea.o
 0001:0001843a       $ehgcr_3_35                000000014001943a     ClientHello-c57bea.o
 0001:00018750       ?dtor$10@?0??parseBuffer@ClientHello@@QEAAIAEBVCharBuf@@AEAVTlsMain@@AEAVEncryptTls@@@Z@4HA 0000000140019750 f   ClientHello-c57bea.o
 0001:00018790       ?dtor$43@?0??parseBuffer@ClientHello@@QEAAIAEBVCharBuf@@AEAVTlsMain@@AEAVEncryptTls@@@Z@4HA 0000000140019790 f   ClientHello-c57bea.o
 0001:000187d0       ?dtor$120@?0??parseBuffer@ClientHello@@QEAAIAEBVCharBuf@@AEAVTlsMain@@AEAVEncryptTls@@@Z@4HA 00000001400197d0 f   ClientHello-c57bea.o
 0001:00018810       ?dtor$123@?0??parseBuffer@ClientHello@@QEAAIAEBVCharBuf@@AEAVTlsMain@@AEAVEncryptTls@@@Z@4HA 0000000140019810 f   ClientHello-c57bea.o
 0001:00018850       ?catch$126@?0??parseBuffer@ClientHello@@QEAAIAEBVCharBuf@@AEAVTlsMain@@AEAVEncryptTls@@@Z@4HA 0000000140019850 f   ClientHello-c57bea.o
 0001:000188a0       ?catch$127@?0??parseBuffer@ClientHello@@QEAAIAEBVCharBuf@@AEAVTlsMain@@AEAVEncryptTls@@@Z@4HA 00000001400198a0 f   ClientHello-c57bea.o
 0001:00018f10       ?dtor$42@?0??makeHelloBuf@ClientHello@@QEAAXAEAVCharBuf@@AEAVTlsMain@@AEAVEncryptTls@@@Z@4HA 0000000140019f10 f   ClientHello-c57bea.o
 0001:00018f50       ?dtor$45@?0??makeHelloBuf@ClientHello@@QEAAXAEAVCharBuf@@AEAVTlsMain@@AEAVEncryptTls@@@Z@4HA 0000000140019f50 f   ClientHello-c57bea.o
 0001:00018f90       ?dtor$65@?0??makeHelloBuf@ClientHello@@QEAAXAEAVCharBuf@@AEAVTlsMain@@AEAVEncryptTls@@@Z@4HA 0000000140019f90 f   ClientHello-c57bea.o
 0001:00018fd0       ?dtor$85@?0??makeHelloBuf@ClientHello@@QEAAXAEAVCharBuf@@AEAVTlsMain@@AEAVEncryptTls@@@Z@4HA 0000000140019fd0 f   ClientHello-c57bea.o
 0001:00019010       ?dtor$88@?0??makeHelloBuf@ClientHello@@QEAAXAEAVCharBuf@@AEAVTlsMain@@AEAVEncryptTls@@@Z@4HA 000000014001a010 f   ClientHello-c57bea.o
 0001:00019050       ?dtor$91@?0??makeHelloBuf@ClientHello@@QEAAXAEAVCharBuf@@AEAVTlsMain@@AEAVEncryptTls@@@Z@4HA 000000014001a050 f   ClientHello-c57bea.o
 0001:00019090       ?dtor$94@?0??makeHelloBuf@ClientHello@@QEAAXAEAVCharBuf@@AEAVTlsMain@@AEAVEncryptTls@@@Z@4HA 000000014001a090 f   ClientHello-c57bea.o
 0001:000190d0       ?dtor$97@?0??makeHelloBuf@ClientHello@@QEAAXAEAVCharBuf@@AEAVTlsMain@@AEAVEncryptTls@@@Z@4HA 000000014001a0d0 f   ClientHello-c57bea.o
 0001:00019110       ?dtor$100@?0??makeHelloBuf@ClientHello@@QEAAXAEAVCharBuf@@AEAVTlsMain@@AEAVEncryptTls@@@Z@4HA 000000014001a110 f   ClientHello-c57bea.o
 0001:00019150       ?dtor$103@?0??makeHelloBuf@ClientHello@@QEAAXAEAVCharBuf@@AEAVTlsMain@@AEAVEncryptTls@@@Z@4HA 000000014001a150 f   ClientHello-c57bea.o
 0001:000191f2       $ehgcr_2_5                 000000014001a1f2     ClientTls-8977a0.o
 0001:00019200       ?catch$6@?0??processData@ClientTls@@QEAAHXZ@4HA 000000014001a200 f   ClientTls-8977a0.o
 0001:00019240       ?catch$7@?0??processData@ClientTls@@QEAAHXZ@4HA 000000014001a240 f   ClientTls-8977a0.o
 0001:000199a0       ?dtor$9@?0??readOneTag@DerEncode@@QEAAHAEBVCharBuf@@HAEA_NAEAV2@H@Z@4HA 000000014001a9a0 f   DerEncode-6ee611.o
 0001:000199e0       ?dtor$123@?0??readOneTag@DerEncode@@QEAAHAEBVCharBuf@@HAEA_NAEAV2@H@Z@4HA 000000014001a9e0 f   DerEncode-6ee611.o
 0001:00019ce0       ?dtor$14@?0??showTag@DerEncode@@QEAAXIIAEAVCharBuf@@@Z@4HA 000000014001ace0 f   DerEncode-6ee611.o
 0001:00019d10       ?dtor$17@?0??showTag@DerEncode@@QEAAXIIAEAVCharBuf@@@Z@4HA 000000014001ad10 f   DerEncode-6ee611.o
 0001:00019f80       ?dtor$9@?0??readAllTags@DerEncodeLoop@@QEAAHAEBVCharBuf@@HAEAV2@H@Z@4HA 000000014001af80 f   DerEncodeLoop-71fc1e.o
 0001:00019fc0       ?dtor$20@?0??readAllTags@DerEncodeLoop@@QEAAHAEBVCharBuf@@HAEAV2@H@Z@4HA 000000014001afc0 f   DerEncodeLoop-71fc1e.o
 0001:0001a000       ?dtor$27@?0??readAllTags@DerEncodeLoop@@QEAAHAEBVCharBuf@@HAEAV2@H@Z@4HA 000000014001b000 f   DerEncodeLoop-71fc1e.o
 0001:0001a040       ?dtor$30@?0??readAllTags@DerEncodeLoop@@QEAAHAEBVCharBuf@@HAEAV2@H@Z@4HA 000000014001b040 f   DerEncodeLoop-71fc1e.o
 0001:0001a5c0       ?dtor$85@?0??makeFromCharBuf@DerObjID@@SAXAEBVCharBuf@@AEAV2@@Z@4HA 000000014001b5c0 f   DerObjID-cf3353.o
 0001:0001a600       ?dtor$88@?0??makeFromCharBuf@DerObjID@@SAXAEBVCharBuf@@AEAV2@@Z@4HA 000000014001b600 f   DerObjID-cf3353.o
 0001:0001a640       ?dtor$91@?0??makeFromCharBuf@DerObjID@@SAXAEBVCharBuf@@AEAV2@@Z@4HA 000000014001b640 f   DerObjID-cf3353.o
 0001:0001a680       ?dtor$94@?0??makeFromCharBuf@DerObjID@@SAXAEBVCharBuf@@AEAV2@@Z@4HA 000000014001b680 f   DerObjID-cf3353.o
 0001:0001a6c0       ?dtor$97@?0??makeFromCharBuf@DerObjID@@SAXAEBVCharBuf@@AEAV2@@Z@4HA 000000014001b6c0 f   DerObjID-cf3353.o
 0001:0001a700       ?dtor$100@?0??makeFromCharBuf@DerObjID@@SAXAEBVCharBuf@@AEAV2@@Z@4HA 000000014001b700 f   DerObjID-cf3353.o
 0001:0001a740       ?dtor$103@?0??makeFromCharBuf@DerObjID@@SAXAEBVCharBuf@@AEAV2@@Z@4HA 000000014001b740 f   DerObjID-cf3353.o
 0001:0001a780       ?dtor$106@?0??makeFromCharBuf@DerObjID@@SAXAEBVCharBuf@@AEAV2@@Z@4HA 000000014001b780 f   DerObjID-cf3353.o
 0001:0001aab0       ?dtor$8@?0??expand@EncryptTls@@AEAAXAEAVCharBuf@@AEBV2@1@Z@4HA 000000014001bab0 f   EncryptTls-97e3d9.o
 0001:0001aae0       ?dtor$11@?0??expand@EncryptTls@@AEAAXAEAVCharBuf@@AEBV2@1@Z@4HA 000000014001bae0 f   EncryptTls-97e3d9.o
 0001:0001ac90       ?dtor$6@?0??hkdfExpandLabel@EncryptTls@@AEAAXAEAVCharBuf@@AEBV2@11H@Z@4HA 000000014001bc90 f   EncryptTls-97e3d9.o
 0001:0001acd0       ?dtor$23@?0??hkdfExpandLabel@EncryptTls@@AEAAXAEAVCharBuf@@AEBV2@11H@Z@4HA 000000014001bcd0 f   EncryptTls-97e3d9.o
 0001:0001ad10       ?dtor$26@?0??hkdfExpandLabel@EncryptTls@@AEAAXAEAVCharBuf@@AEBV2@11H@Z@4HA 000000014001bd10 f   EncryptTls-97e3d9.o
 0001:0001ad50       ?dtor$29@?0??hkdfExpandLabel@EncryptTls@@AEAAXAEAVCharBuf@@AEBV2@11H@Z@4HA 000000014001bd50 f   EncryptTls-97e3d9.o
 0001:0001ae60       ?dtor$10@?0??deriveSecret@EncryptTls@@AEAAXAEAVCharBuf@@AEBV2@11@Z@4HA 000000014001be60 f   EncryptTls-97e3d9.o
 0001:0001aea0       ?dtor$13@?0??deriveSecret@EncryptTls@@AEAAXAEAVCharBuf@@AEBV2@11@Z@4HA 000000014001bea0 f   EncryptTls-97e3d9.o
 0001:0001bb0e       $ehgcr_4_232               000000014001cb0e     EncryptTls-97e3d9.o
 0001:0001bba0       ?dtor$102@?0??setHandshakeKeys@EncryptTls@@QEAAXAEAVTlsMain@@AEAVInteger@@@Z@4HA 000000014001cba0 f   EncryptTls-97e3d9.o
 0001:0001bbe0       ?dtor$105@?0??setHandshakeKeys@EncryptTls@@QEAAXAEAVTlsMain@@AEAVInteger@@@Z@4HA 000000014001cbe0 f   EncryptTls-97e3d9.o
 0001:0001bc20       ?dtor$108@?0??setHandshakeKeys@EncryptTls@@QEAAXAEAVTlsMain@@AEAVInteger@@@Z@4HA 000000014001cc20 f   EncryptTls-97e3d9.o
 0001:0001bc60       ?dtor$111@?0??setHandshakeKeys@EncryptTls@@QEAAXAEAVTlsMain@@AEAVInteger@@@Z@4HA 000000014001cc60 f   EncryptTls-97e3d9.o
 0001:0001bca0       ?dtor$114@?0??setHandshakeKeys@EncryptTls@@QEAAXAEAVTlsMain@@AEAVInteger@@@Z@4HA 000000014001cca0 f   EncryptTls-97e3d9.o
 0001:0001bce0       ?dtor$117@?0??setHandshakeKeys@EncryptTls@@QEAAXAEAVTlsMain@@AEAVInteger@@@Z@4HA 000000014001cce0 f   EncryptTls-97e3d9.o
 0001:0001bd20       ?dtor$120@?0??setHandshakeKeys@EncryptTls@@QEAAXAEAVTlsMain@@AEAVInteger@@@Z@4HA 000000014001cd20 f   EncryptTls-97e3d9.o
 0001:0001bd60       ?dtor$123@?0??setHandshakeKeys@EncryptTls@@QEAAXAEAVTlsMain@@AEAVInteger@@@Z@4HA 000000014001cd60 f   EncryptTls-97e3d9.o
 0001:0001bda0       ?dtor$126@?0??setHandshakeKeys@EncryptTls@@QEAAXAEAVTlsMain@@AEAVInteger@@@Z@4HA 000000014001cda0 f   EncryptTls-97e3d9.o
 0001:0001bde0       ?dtor$129@?0??setHandshakeKeys@EncryptTls@@QEAAXAEAVTlsMain@@AEAVInteger@@@Z@4HA 000000014001cde0 f   EncryptTls-97e3d9.o
 0001:0001be20       ?dtor$132@?0??setHandshakeKeys@EncryptTls@@QEAAXAEAVTlsMain@@AEAVInteger@@@Z@4HA 000000014001ce20 f   EncryptTls-97e3d9.o
 0001:0001be60       ?dtor$135@?0??setHandshakeKeys@EncryptTls@@QEAAXAEAVTlsMain@@AEAVInteger@@@Z@4HA 000000014001ce60 f   EncryptTls-97e3d9.o
 0001:0001bea0       ?dtor$154@?0??setHandshakeKeys@EncryptTls@@QEAAXAEAVTlsMain@@AEAVInteger@@@Z@4HA 000000014001cea0 f   EncryptTls-97e3d9.o
 0001:0001bee0       ?dtor$173@?0??setHandshakeKeys@EncryptTls@@QEAAXAEAVTlsMain@@AEAVInteger@@@Z@4HA 000000014001cee0 f   EncryptTls-97e3d9.o
 0001:0001bf20       ?dtor$191@?0??setHandshakeKeys@EncryptTls@@QEAAXAEAVTlsMain@@AEAVInteger@@@Z@4HA 000000014001cf20 f   EncryptTls-97e3d9.o
 0001:0001bf60       ?dtor$233@?0??setHandshakeKeys@EncryptTls@@QEAAXAEAVTlsMain@@AEAVInteger@@@Z@4HA 000000014001cf60 f   EncryptTls-97e3d9.o
 0001:0001bfa0       ?dtor$236@?0??setHandshakeKeys@EncryptTls@@QEAAXAEAVTlsMain@@AEAVInteger@@@Z@4HA 000000014001cfa0 f   EncryptTls-97e3d9.o
 0001:0001bfe0       ?dtor$239@?0??setHandshakeKeys@EncryptTls@@QEAAXAEAVTlsMain@@AEAVInteger@@@Z@4HA 000000014001cfe0 f   EncryptTls-97e3d9.o
 0001:0001c020       ?dtor$242@?0??setHandshakeKeys@EncryptTls@@QEAAXAEAVTlsMain@@AEAVInteger@@@Z@4HA 000000014001d020 f   EncryptTls-97e3d9.o
 0001:0001c060       ?dtor$245@?0??setHandshakeKeys@EncryptTls@@QEAAXAEAVTlsMain@@AEAVInteger@@@Z@4HA 000000014001d060 f   EncryptTls-97e3d9.o
 0001:0001c0a0       ?dtor$248@?0??setHandshakeKeys@EncryptTls@@QEAAXAEAVTlsMain@@AEAVInteger@@@Z@4HA 000000014001d0a0 f   EncryptTls-97e3d9.o
 0001:0001c0e0       ?dtor$251@?0??setHandshakeKeys@EncryptTls@@QEAAXAEAVTlsMain@@AEAVInteger@@@Z@4HA 000000014001d0e0 f   EncryptTls-97e3d9.o
 0001:0001c120       ?dtor$254@?0??setHandshakeKeys@EncryptTls@@QEAAXAEAVTlsMain@@AEAVInteger@@@Z@4HA 000000014001d120 f   EncryptTls-97e3d9.o
 0001:0001c160       ?dtor$257@?0??setHandshakeKeys@EncryptTls@@QEAAXAEAVTlsMain@@AEAVInteger@@@Z@4HA 000000014001d160 f   EncryptTls-97e3d9.o
 0001:0001c1a0       ?dtor$260@?0??setHandshakeKeys@EncryptTls@@QEAAXAEAVTlsMain@@AEAVInteger@@@Z@4HA 000000014001d1a0 f   EncryptTls-97e3d9.o
 0001:0001c1e0       ?dtor$263@?0??setHandshakeKeys@EncryptTls@@QEAAXAEAVTlsMain@@AEAVInteger@@@Z@4HA 000000014001d1e0 f   EncryptTls-97e3d9.o
 0001:0001c220       ?dtor$266@?0??setHandshakeKeys@EncryptTls@@QEAAXAEAVTlsMain@@AEAVInteger@@@Z@4HA 000000014001d220 f   EncryptTls-97e3d9.o
 0001:0001c260       ?dtor$269@?0??setHandshakeKeys@EncryptTls@@QEAAXAEAVTlsMain@@AEAVInteger@@@Z@4HA 000000014001d260 f   EncryptTls-97e3d9.o
 0001:0001c2a0       ?dtor$272@?0??setHandshakeKeys@EncryptTls@@QEAAXAEAVTlsMain@@AEAVInteger@@@Z@4HA 000000014001d2a0 f   EncryptTls-97e3d9.o
 0001:0001c2e0       ?dtor$275@?0??setHandshakeKeys@EncryptTls@@QEAAXAEAVTlsMain@@AEAVInteger@@@Z@4HA 000000014001d2e0 f   EncryptTls-97e3d9.o
 0001:0001c320       ?dtor$278@?0??setHandshakeKeys@EncryptTls@@QEAAXAEAVTlsMain@@AEAVInteger@@@Z@4HA 000000014001d320 f   EncryptTls-97e3d9.o
 0001:0001c360       ?dtor$281@?0??setHandshakeKeys@EncryptTls@@QEAAXAEAVTlsMain@@AEAVInteger@@@Z@4HA 000000014001d360 f   EncryptTls-97e3d9.o
 0001:0001c3a0       ?dtor$284@?0??setHandshakeKeys@EncryptTls@@QEAAXAEAVTlsMain@@AEAVInteger@@@Z@4HA 000000014001d3a0 f   EncryptTls-97e3d9.o
 0001:0001c3e0       ?dtor$287@?0??setHandshakeKeys@EncryptTls@@QEAAXAEAVTlsMain@@AEAVInteger@@@Z@4HA 000000014001d3e0 f   EncryptTls-97e3d9.o
 0001:0001c420       ?dtor$290@?0??setHandshakeKeys@EncryptTls@@QEAAXAEAVTlsMain@@AEAVInteger@@@Z@4HA 000000014001d420 f   EncryptTls-97e3d9.o
 0001:0001c460       ?dtor$293@?0??setHandshakeKeys@EncryptTls@@QEAAXAEAVTlsMain@@AEAVInteger@@@Z@4HA 000000014001d460 f   EncryptTls-97e3d9.o
 0001:0001c4a0       ?dtor$296@?0??setHandshakeKeys@EncryptTls@@QEAAXAEAVTlsMain@@AEAVInteger@@@Z@4HA 000000014001d4a0 f   EncryptTls-97e3d9.o
 0001:0001c4e0       ?dtor$299@?0??setHandshakeKeys@EncryptTls@@QEAAXAEAVTlsMain@@AEAVInteger@@@Z@4HA 000000014001d4e0 f   EncryptTls-97e3d9.o
 0001:0001c520       ?dtor$302@?0??setHandshakeKeys@EncryptTls@@QEAAXAEAVTlsMain@@AEAVInteger@@@Z@4HA 000000014001d520 f   EncryptTls-97e3d9.o
 0001:0001c560       ?dtor$305@?0??setHandshakeKeys@EncryptTls@@QEAAXAEAVTlsMain@@AEAVInteger@@@Z@4HA 000000014001d560 f   EncryptTls-97e3d9.o
 0001:0001c5a0       ?dtor$308@?0??setHandshakeKeys@EncryptTls@@QEAAXAEAVTlsMain@@AEAVInteger@@@Z@4HA 000000014001d5a0 f   EncryptTls-97e3d9.o
 0001:0001c5e0       ?dtor$311@?0??setHandshakeKeys@EncryptTls@@QEAAXAEAVTlsMain@@AEAVInteger@@@Z@4HA 000000014001d5e0 f   EncryptTls-97e3d9.o
 0001:0001c620       ?dtor$314@?0??setHandshakeKeys@EncryptTls@@QEAAXAEAVTlsMain@@AEAVInteger@@@Z@4HA 000000014001d620 f   EncryptTls-97e3d9.o
 0001:0001c660       ?catch$317@?0??setHandshakeKeys@EncryptTls@@QEAAXAEAVTlsMain@@AEAVInteger@@@Z@4HA 000000014001d660 f   EncryptTls-97e3d9.o
 0001:0001c6b0       ?catch$318@?0??setHandshakeKeys@EncryptTls@@QEAAXAEAVTlsMain@@AEAVInteger@@@Z@4HA 000000014001d6b0 f   EncryptTls-97e3d9.o
 0001:0001cac0       ?dtor$52@?0??makeMsgTranscript2@EncryptTls@@AEAAXAEAVCharBuf@@AEAVTlsMain@@@Z@4HA 000000014001dac0 f   EncryptTls-97e3d9.o
 0001:0001caf0       ?dtor$55@?0??makeMsgTranscript2@EncryptTls@@AEAAXAEAVCharBuf@@AEAVTlsMain@@@Z@4HA 000000014001daf0 f   EncryptTls-97e3d9.o
 0001:0001cb20       ?dtor$58@?0??makeMsgTranscript2@EncryptTls@@AEAAXAEAVCharBuf@@AEAVTlsMain@@@Z@4HA 000000014001db20 f   EncryptTls-97e3d9.o
 0001:0001cb50       ?dtor$61@?0??makeMsgTranscript2@EncryptTls@@AEAAXAEAVCharBuf@@AEAVTlsMain@@@Z@4HA 000000014001db50 f   EncryptTls-97e3d9.o
 0001:0001cb80       ?dtor$64@?0??makeMsgTranscript2@EncryptTls@@AEAAXAEAVCharBuf@@AEAVTlsMain@@@Z@4HA 000000014001db80 f   EncryptTls-97e3d9.o
 0001:0001cbb0       ?dtor$67@?0??makeMsgTranscript2@EncryptTls@@AEAAXAEAVCharBuf@@AEAVTlsMain@@@Z@4HA 000000014001dbb0 f   EncryptTls-97e3d9.o
 0001:0001cbe0       ?dtor$70@?0??makeMsgTranscript2@EncryptTls@@AEAAXAEAVCharBuf@@AEAVTlsMain@@@Z@4HA 000000014001dbe0 f   EncryptTls-97e3d9.o
 0001:0001cc10       ?dtor$73@?0??makeMsgTranscript2@EncryptTls@@AEAAXAEAVCharBuf@@AEAVTlsMain@@@Z@4HA 000000014001dc10 f   EncryptTls-97e3d9.o
 0001:0001cc40       ?dtor$76@?0??makeMsgTranscript2@EncryptTls@@AEAAXAEAVCharBuf@@AEAVTlsMain@@@Z@4HA 000000014001dc40 f   EncryptTls-97e3d9.o
 0001:0001cc70       ?dtor$79@?0??makeMsgTranscript2@EncryptTls@@AEAAXAEAVCharBuf@@AEAVTlsMain@@@Z@4HA 000000014001dc70 f   EncryptTls-97e3d9.o
 0001:0001cca0       ?dtor$82@?0??makeMsgTranscript2@EncryptTls@@AEAAXAEAVCharBuf@@AEAVTlsMain@@@Z@4HA 000000014001dca0 f   EncryptTls-97e3d9.o
 0001:0001ccd0       ?dtor$85@?0??makeMsgTranscript2@EncryptTls@@AEAAXAEAVCharBuf@@AEAVTlsMain@@@Z@4HA 000000014001dcd0 f   EncryptTls-97e3d9.o
 0001:0001cd00       ?dtor$88@?0??makeMsgTranscript2@EncryptTls@@AEAAXAEAVCharBuf@@AEAVTlsMain@@@Z@4HA 000000014001dd00 f   EncryptTls-97e3d9.o
 0001:0001cd30       ?dtor$91@?0??makeMsgTranscript2@EncryptTls@@AEAAXAEAVCharBuf@@AEAVTlsMain@@@Z@4HA 000000014001dd30 f   EncryptTls-97e3d9.o
 0001:0001cd60       ?dtor$94@?0??makeMsgTranscript2@EncryptTls@@AEAAXAEAVCharBuf@@AEAVTlsMain@@@Z@4HA 000000014001dd60 f   EncryptTls-97e3d9.o
 0001:0001cd90       ?dtor$97@?0??makeMsgTranscript2@EncryptTls@@AEAAXAEAVCharBuf@@AEAVTlsMain@@@Z@4HA 000000014001dd90 f   EncryptTls-97e3d9.o
 0001:0001cdc0       ?dtor$100@?0??makeMsgTranscript2@EncryptTls@@AEAAXAEAVCharBuf@@AEAVTlsMain@@@Z@4HA 000000014001ddc0 f   EncryptTls-97e3d9.o
 0001:0001cdf0       ?dtor$103@?0??makeMsgTranscript2@EncryptTls@@AEAAXAEAVCharBuf@@AEAVTlsMain@@@Z@4HA 000000014001ddf0 f   EncryptTls-97e3d9.o
 0001:0001d512       $ehgcr_6_142               000000014001e512     EncryptTls-97e3d9.o
 0001:0001d5a0       ?dtor$44@?0??setAppDataKeys@EncryptTls@@QEAAXAEAVTlsMain@@@Z@4HA 000000014001e5a0 f   EncryptTls-97e3d9.o
 0001:0001d5d0       ?dtor$47@?0??setAppDataKeys@EncryptTls@@QEAAXAEAVTlsMain@@@Z@4HA 000000014001e5d0 f   EncryptTls-97e3d9.o
 0001:0001d600       ?dtor$50@?0??setAppDataKeys@EncryptTls@@QEAAXAEAVTlsMain@@@Z@4HA 000000014001e600 f   EncryptTls-97e3d9.o
 0001:0001d630       ?dtor$53@?0??setAppDataKeys@EncryptTls@@QEAAXAEAVTlsMain@@@Z@4HA 000000014001e630 f   EncryptTls-97e3d9.o
 0001:0001d670       ?dtor$56@?0??setAppDataKeys@EncryptTls@@QEAAXAEAVTlsMain@@@Z@4HA 000000014001e670 f   EncryptTls-97e3d9.o
 0001:0001d6b0       ?dtor$59@?0??setAppDataKeys@EncryptTls@@QEAAXAEAVTlsMain@@@Z@4HA 000000014001e6b0 f   EncryptTls-97e3d9.o
 0001:0001d6f0       ?dtor$78@?0??setAppDataKeys@EncryptTls@@QEAAXAEAVTlsMain@@@Z@4HA 000000014001e6f0 f   EncryptTls-97e3d9.o
 0001:0001d730       ?dtor$97@?0??setAppDataKeys@EncryptTls@@QEAAXAEAVTlsMain@@@Z@4HA 000000014001e730 f   EncryptTls-97e3d9.o
 0001:0001d770       ?dtor$115@?0??setAppDataKeys@EncryptTls@@QEAAXAEAVTlsMain@@@Z@4HA 000000014001e770 f   EncryptTls-97e3d9.o
 0001:0001d7b0       ?dtor$143@?0??setAppDataKeys@EncryptTls@@QEAAXAEAVTlsMain@@@Z@4HA 000000014001e7b0 f   EncryptTls-97e3d9.o
 0001:0001d7f0       ?dtor$146@?0??setAppDataKeys@EncryptTls@@QEAAXAEAVTlsMain@@@Z@4HA 000000014001e7f0 f   EncryptTls-97e3d9.o
 0001:0001d830       ?dtor$149@?0??setAppDataKeys@EncryptTls@@QEAAXAEAVTlsMain@@@Z@4HA 000000014001e830 f   EncryptTls-97e3d9.o
 0001:0001d870       ?dtor$152@?0??setAppDataKeys@EncryptTls@@QEAAXAEAVTlsMain@@@Z@4HA 000000014001e870 f   EncryptTls-97e3d9.o
 0001:0001d8b0       ?dtor$155@?0??setAppDataKeys@EncryptTls@@QEAAXAEAVTlsMain@@@Z@4HA 000000014001e8b0 f   EncryptTls-97e3d9.o
 0001:0001d8f0       ?dtor$158@?0??setAppDataKeys@EncryptTls@@QEAAXAEAVTlsMain@@@Z@4HA 000000014001e8f0 f   EncryptTls-97e3d9.o
 0001:0001d930       ?dtor$161@?0??setAppDataKeys@EncryptTls@@QEAAXAEAVTlsMain@@@Z@4HA 000000014001e930 f   EncryptTls-97e3d9.o
 0001:0001d960       ?dtor$164@?0??setAppDataKeys@EncryptTls@@QEAAXAEAVTlsMain@@@Z@4HA 000000014001e960 f   EncryptTls-97e3d9.o
 0001:0001d9a0       ?dtor$167@?0??setAppDataKeys@EncryptTls@@QEAAXAEAVTlsMain@@@Z@4HA 000000014001e9a0 f   EncryptTls-97e3d9.o
 0001:0001d9d0       ?dtor$170@?0??setAppDataKeys@EncryptTls@@QEAAXAEAVTlsMain@@@Z@4HA 000000014001e9d0 f   EncryptTls-97e3d9.o
 0001:0001da00       ?dtor$173@?0??setAppDataKeys@EncryptTls@@QEAAXAEAVTlsMain@@@Z@4HA 000000014001ea00 f   EncryptTls-97e3d9.o
 0001:0001da40       ?dtor$176@?0??setAppDataKeys@EncryptTls@@QEAAXAEAVTlsMain@@@Z@4HA 000000014001ea40 f   EncryptTls-97e3d9.o
 0001:0001da80       ?dtor$179@?0??setAppDataKeys@EncryptTls@@QEAAXAEAVTlsMain@@@Z@4HA 000000014001ea80 f   EncryptTls-97e3d9.o
 0001:0001dac0       ?dtor$182@?0??setAppDataKeys@EncryptTls@@QEAAXAEAVTlsMain@@@Z@4HA 000000014001eac0 f   EncryptTls-97e3d9.o
 0001:0001db00       ?dtor$185@?0??setAppDataKeys@EncryptTls@@QEAAXAEAVTlsMain@@@Z@4HA 000000014001eb00 f   EncryptTls-97e3d9.o
 0001:0001db40       ?dtor$188@?0??setAppDataKeys@EncryptTls@@QEAAXAEAVTlsMain@@@Z@4HA 000000014001eb40 f   EncryptTls-97e3d9.o
 0001:0001db80       ?dtor$191@?0??setAppDataKeys@EncryptTls@@QEAAXAEAVTlsMain@@@Z@4HA 000000014001eb80 f   EncryptTls-97e3d9.o
 0001:0001dbb0       ?dtor$194@?0??setAppDataKeys@EncryptTls@@QEAAXAEAVTlsMain@@@Z@4HA 000000014001ebb0 f   EncryptTls-97e3d9.o
 0001:0001dbe0       ?dtor$197@?0??setAppDataKeys@EncryptTls@@QEAAXAEAVTlsMain@@@Z@4HA 000000014001ebe0 f   EncryptTls-97e3d9.o
 0001:0001dc10       ?catch$200@?0??setAppDataKeys@EncryptTls@@QEAAXAEAVTlsMain@@@Z@4HA 000000014001ec10 f   EncryptTls-97e3d9.o
 0001:0001dc50       ?catch$201@?0??setAppDataKeys@EncryptTls@@QEAAXAEAVTlsMain@@@Z@4HA 000000014001ec50 f   EncryptTls-97e3d9.o
 0001:0001de10       ?dtor$16@?0??setDiffHelmOnClient@EncryptTls@@QEAAXAEAVTlsMain@@AEAVInteger@@@Z@4HA 000000014001ee10 f   EncryptTls-97e3d9.o
 0001:0001de50       ?dtor$19@?0??setDiffHelmOnClient@EncryptTls@@QEAAXAEAVTlsMain@@AEAVInteger@@@Z@4HA 000000014001ee50 f   EncryptTls-97e3d9.o
 0001:0001de90       ?dtor$22@?0??setDiffHelmOnClient@EncryptTls@@QEAAXAEAVTlsMain@@AEAVInteger@@@Z@4HA 000000014001ee90 f   EncryptTls-97e3d9.o
 0001:0001e050       ?dtor$16@?0??setDiffHelmOnServer@EncryptTls@@QEAAXAEAVTlsMain@@AEAVInteger@@@Z@4HA 000000014001f050 f   EncryptTls-97e3d9.o
 0001:0001e090       ?dtor$19@?0??setDiffHelmOnServer@EncryptTls@@QEAAXAEAVTlsMain@@AEAVInteger@@@Z@4HA 000000014001f090 f   EncryptTls-97e3d9.o
 0001:0001e0d0       ?dtor$22@?0??setDiffHelmOnServer@EncryptTls@@QEAAXAEAVTlsMain@@AEAVInteger@@@Z@4HA 000000014001f0d0 f   EncryptTls-97e3d9.o
 0001:0001e300       ?dtor$7@?0??srvWriteDecryptCharBuf@EncryptTls@@QEAAXAEBVCharBuf@@AEAV2@@Z@4HA 000000014001f300 f   EncryptTls-97e3d9.o
 0001:0001e340       ?dtor$29@?0??srvWriteDecryptCharBuf@EncryptTls@@QEAAXAEBVCharBuf@@AEAV2@@Z@4HA 000000014001f340 f   EncryptTls-97e3d9.o
 0001:0001e380       ?dtor$32@?0??srvWriteDecryptCharBuf@EncryptTls@@QEAAXAEBVCharBuf@@AEAV2@@Z@4HA 000000014001f380 f   EncryptTls-97e3d9.o
 0001:0001e3c0       ?dtor$35@?0??srvWriteDecryptCharBuf@EncryptTls@@QEAAXAEBVCharBuf@@AEAV2@@Z@4HA 000000014001f3c0 f   EncryptTls-97e3d9.o
 0001:0001e400       ?dtor$38@?0??srvWriteDecryptCharBuf@EncryptTls@@QEAAXAEBVCharBuf@@AEAV2@@Z@4HA 000000014001f400 f   EncryptTls-97e3d9.o
 0001:0001e440       ?dtor$41@?0??srvWriteDecryptCharBuf@EncryptTls@@QEAAXAEBVCharBuf@@AEAV2@@Z@4HA 000000014001f440 f   EncryptTls-97e3d9.o
 0001:0001e670       ?dtor$7@?0??clWriteDecryptCharBuf@EncryptTls@@QEAAXAEBVCharBuf@@AEAV2@@Z@4HA 000000014001f670 f   EncryptTls-97e3d9.o
 0001:0001e6b0       ?dtor$29@?0??clWriteDecryptCharBuf@EncryptTls@@QEAAXAEBVCharBuf@@AEAV2@@Z@4HA 000000014001f6b0 f   EncryptTls-97e3d9.o
 0001:0001e6f0       ?dtor$32@?0??clWriteDecryptCharBuf@EncryptTls@@QEAAXAEBVCharBuf@@AEAV2@@Z@4HA 000000014001f6f0 f   EncryptTls-97e3d9.o
 0001:0001e730       ?dtor$35@?0??clWriteDecryptCharBuf@EncryptTls@@QEAAXAEBVCharBuf@@AEAV2@@Z@4HA 000000014001f730 f   EncryptTls-97e3d9.o
 0001:0001e770       ?dtor$38@?0??clWriteDecryptCharBuf@EncryptTls@@QEAAXAEBVCharBuf@@AEAV2@@Z@4HA 000000014001f770 f   EncryptTls-97e3d9.o
 0001:0001e7b0       ?dtor$41@?0??clWriteDecryptCharBuf@EncryptTls@@QEAAXAEBVCharBuf@@AEAV2@@Z@4HA 000000014001f7b0 f   EncryptTls-97e3d9.o
 0001:0001ec14       $ehgcr_0_3                 000000014001fc14     ExtenList-52deab.o
 0001:0001ee50       ?dtor$32@?0??setFromMsg@ExtenList@@QEAAIAEBVCharBuf@@HAEAVTlsMain@@_NAEAVEncryptTls@@@Z@4HA 000000014001fe50 f   ExtenList-52deab.o
 0001:0001ee90       ?dtor$52@?0??setFromMsg@ExtenList@@QEAAIAEBVCharBuf@@HAEAVTlsMain@@_NAEAVEncryptTls@@@Z@4HA 000000014001fe90 f   ExtenList-52deab.o
 0001:0001eed0       ?dtor$106@?0??setFromMsg@ExtenList@@QEAAIAEBVCharBuf@@HAEAVTlsMain@@_NAEAVEncryptTls@@@Z@4HA 000000014001fed0 f   ExtenList-52deab.o
 0001:0001ef10       ?dtor$109@?0??setFromMsg@ExtenList@@QEAAIAEBVCharBuf@@HAEAVTlsMain@@_NAEAVEncryptTls@@@Z@4HA 000000014001ff10 f   ExtenList-52deab.o
 0001:0001ef50       ?catch$112@?0??setFromMsg@ExtenList@@QEAAIAEBVCharBuf@@HAEAVTlsMain@@_NAEAVEncryptTls@@@Z@4HA 000000014001ff50 f   ExtenList-52deab.o
 0001:0001efa0       ?catch$113@?0??setFromMsg@ExtenList@@QEAAIAEBVCharBuf@@HAEAVTlsMain@@_NAEAVEncryptTls@@@Z@4HA 000000014001ffa0 f   ExtenList-52deab.o
 0001:0001f7a0       ?dtor$10@?0??makeClHelloBuf@ExtenList@@QEAA_NAEAVCharBuf@@AEAVTlsMain@@AEAVEncryptTls@@@Z@4HA 00000001400207a0 f   ExtenList-52deab.o
 0001:0001f7e0       ?dtor$74@?0??makeClHelloBuf@ExtenList@@QEAA_NAEAVCharBuf@@AEAVTlsMain@@AEAVEncryptTls@@@Z@4HA 00000001400207e0 f   ExtenList-52deab.o
 0001:0001f820       ?dtor$77@?0??makeClHelloBuf@ExtenList@@QEAA_NAEAVCharBuf@@AEAVTlsMain@@AEAVEncryptTls@@@Z@4HA 0000000140020820 f   ExtenList-52deab.o
 0001:0001fb10       ?dtor$23@?0??makeSrvHelloBuf@ExtenList@@QEAA_NAEAVCharBuf@@AEAVTlsMain@@AEAVEncryptTls@@@Z@4HA 0000000140020b10 f   ExtenList-52deab.o
 0001:0001fe10       ?dtor$22@?0??serverName@Extension@@QEAAIAEBVCharBuf@@AEAVTlsMain@@@Z@4HA 0000000140020e10 f   Extension-75d7f9.o
 0001:0001fe50       ?dtor$44@?0??serverName@Extension@@QEAAIAEBVCharBuf@@AEAVTlsMain@@@Z@4HA 0000000140020e50 f   Extension-75d7f9.o
 0001:000208b0       ?dtor$58@?0??keyShare@Extension@@QEAAIAEBVCharBuf@@AEAVTlsMain@@_NAEAVEncryptTls@@@Z@4HA 00000001400218b0 f   Extension-75d7f9.o
 0001:00020aa0       ?dtor$5@?0???0HandshakeCl@@QEAA@XZ@4HA 0000000140021aa0 f   HandshakeCl-e7316f.o
 0001:00020ad0       ?dtor$8@?0???0HandshakeCl@@QEAA@XZ@4HA 0000000140021ad0 f   HandshakeCl-e7316f.o
 0001:00020b00       ?dtor$23@?0???0HandshakeCl@@QEAA@XZ@4HA 0000000140021b00 f   HandshakeCl-e7316f.o
 0001:00020b30       ?dtor$24@?0???0HandshakeCl@@QEAA@XZ@4HA 0000000140021b30 f   HandshakeCl-e7316f.o
 0001:00020b60       ?dtor$25@?0???0HandshakeCl@@QEAA@XZ@4HA 0000000140021b60 f   HandshakeCl-e7316f.o
 0001:00020b90       ?dtor$28@?0???0HandshakeCl@@QEAA@XZ@4HA 0000000140021b90 f   HandshakeCl-e7316f.o
 0001:00020ce0       ?dtor$5@?0???0HandshakeCl@@QEAA@AEBV0@@Z@4HA 0000000140021ce0 f   HandshakeCl-e7316f.o
 0001:00020d10       ?dtor$8@?0???0HandshakeCl@@QEAA@AEBV0@@Z@4HA 0000000140021d10 f   HandshakeCl-e7316f.o
 0001:00020d40       ?dtor$16@?0???0HandshakeCl@@QEAA@AEBV0@@Z@4HA 0000000140021d40 f   HandshakeCl-e7316f.o
 0001:00020d70       ?dtor$17@?0???0HandshakeCl@@QEAA@AEBV0@@Z@4HA 0000000140021d70 f   HandshakeCl-e7316f.o
 0001:00020da0       ?dtor$18@?0???0HandshakeCl@@QEAA@AEBV0@@Z@4HA 0000000140021da0 f   HandshakeCl-e7316f.o
 0001:00020dd0       ?dtor$21@?0???0HandshakeCl@@QEAA@AEBV0@@Z@4HA 0000000140021dd0 f   HandshakeCl-e7316f.o
 0001:000214b0       ?dtor$52@?0??parseMessage@HandshakeCl@@AEAAIAEAVTlsMain@@AEAEAEAVEncryptTls@@@Z@4HA 00000001400224b0 f   HandshakeCl-e7316f.o
 0001:000214f0       ?dtor$55@?0??parseMessage@HandshakeCl@@AEAAIAEAVTlsMain@@AEAEAEAVEncryptTls@@@Z@4HA 00000001400224f0 f   HandshakeCl-e7316f.o
 0001:00021a00       ?dtor$5@?0??makeClHelloBuf@HandshakeCl@@QEAAXAEAVCharBuf@@AEAVTlsMain@@AEAVEncryptTls@@@Z@4HA 0000000140022a00 f   HandshakeCl-e7316f.o
 0001:00021a30       ?dtor$32@?0??makeClHelloBuf@HandshakeCl@@QEAAXAEAVCharBuf@@AEAVTlsMain@@AEAVEncryptTls@@@Z@4HA 0000000140022a30 f   HandshakeCl-e7316f.o
 0001:00021bc0       ?dtor$5@?0???0HandshakeSrv@@QEAA@XZ@4HA 0000000140022bc0 f   HandshakeSrv-eaa349.o
 0001:00021bf0       ?dtor$8@?0???0HandshakeSrv@@QEAA@XZ@4HA 0000000140022bf0 f   HandshakeSrv-eaa349.o
 0001:00021c20       ?dtor$23@?0???0HandshakeSrv@@QEAA@XZ@4HA 0000000140022c20 f   HandshakeSrv-eaa349.o
 0001:00021c50       ?dtor$24@?0???0HandshakeSrv@@QEAA@XZ@4HA 0000000140022c50 f   HandshakeSrv-eaa349.o
 0001:00021c80       ?dtor$25@?0???0HandshakeSrv@@QEAA@XZ@4HA 0000000140022c80 f   HandshakeSrv-eaa349.o
 0001:00021cb0       ?dtor$28@?0???0HandshakeSrv@@QEAA@XZ@4HA 0000000140022cb0 f   HandshakeSrv-eaa349.o
 0001:00021e00       ?dtor$5@?0???0HandshakeSrv@@QEAA@AEBV0@@Z@4HA 0000000140022e00 f   HandshakeSrv-eaa349.o
 0001:00021e30       ?dtor$8@?0???0HandshakeSrv@@QEAA@AEBV0@@Z@4HA 0000000140022e30 f   HandshakeSrv-eaa349.o
 0001:00021e60       ?dtor$16@?0???0HandshakeSrv@@QEAA@AEBV0@@Z@4HA 0000000140022e60 f   HandshakeSrv-eaa349.o
 0001:00021e90       ?dtor$17@?0???0HandshakeSrv@@QEAA@AEBV0@@Z@4HA 0000000140022e90 f   HandshakeSrv-eaa349.o
 0001:00021ec0       ?dtor$18@?0???0HandshakeSrv@@QEAA@AEBV0@@Z@4HA 0000000140022ec0 f   HandshakeSrv-eaa349.o
 0001:00021ef0       ?dtor$21@?0???0HandshakeSrv@@QEAA@AEBV0@@Z@4HA 0000000140022ef0 f   HandshakeSrv-eaa349.o
 0001:000228e0       ?dtor$5@?0??makeSrvHelloBuf@HandshakeSrv@@QEAAXAEAVCharBuf@@AEAVTlsMain@@AEAVEncryptTls@@@Z@4HA 00000001400238e0 f   HandshakeSrv-eaa349.o
 0001:00022910       ?dtor$32@?0??makeSrvHelloBuf@HandshakeSrv@@QEAAXAEAVCharBuf@@AEAVTlsMain@@AEAVEncryptTls@@@Z@4HA 0000000140023910 f   HandshakeSrv-eaa349.o
 0001:000229f0       ?dtor$4@?0???1NetClient@@QEAA@XZ@4HA 00000001400239f0 f   NetClient-bca97d.o
 0001:00022e10       ?dtor$4@?0???0Server@@QEAA@AEBV0@@Z@4HA 0000000140023e10 f   Server-6b994e.o
 0001:00022fa0       ?dtor$2@?0???0ServerHello@@QEAA@XZ@4HA 0000000140023fa0 f   ServerHello-92682c.o
 0001:00023060       ?dtor$3@?0???0ServerHello@@QEAA@AEBV0@@Z@4HA 0000000140024060 f   ServerHello-92682c.o
 0001:00023090       ?dtor$6@?0???0ServerHello@@QEAA@AEBV0@@Z@4HA 0000000140024090 f   ServerHello-92682c.o
 0001:000233b9       $ehgcr_3_87                00000001400243b9     ServerHello-92682c.o
 0001:00023560       ?dtor$9@?0??parseBuffer@ServerHello@@QEAAIAEBVCharBuf@@AEAVTlsMain@@AEAVEncryptTls@@@Z@4HA 0000000140024560 f   ServerHello-92682c.o
 0001:000235a0       ?dtor$37@?0??parseBuffer@ServerHello@@QEAAIAEBVCharBuf@@AEAVTlsMain@@AEAVEncryptTls@@@Z@4HA 00000001400245a0 f   ServerHello-92682c.o
 0001:000235e0       ?dtor$88@?0??parseBuffer@ServerHello@@QEAAIAEBVCharBuf@@AEAVTlsMain@@AEAVEncryptTls@@@Z@4HA 00000001400245e0 f   ServerHello-92682c.o
 0001:00023620       ?dtor$91@?0??parseBuffer@ServerHello@@QEAAIAEBVCharBuf@@AEAVTlsMain@@AEAVEncryptTls@@@Z@4HA 0000000140024620 f   ServerHello-92682c.o
 0001:00023660       ?catch$94@?0??parseBuffer@ServerHello@@QEAAIAEBVCharBuf@@AEAVTlsMain@@AEAVEncryptTls@@@Z@4HA 0000000140024660 f   ServerHello-92682c.o
 0001:000236b0       ?catch$95@?0??parseBuffer@ServerHello@@QEAAIAEBVCharBuf@@AEAVTlsMain@@AEAVEncryptTls@@@Z@4HA 00000001400246b0 f   ServerHello-92682c.o
 0001:00023c20       ?dtor$12@?0??makeHelloBuf@ServerHello@@QEAAXAEAVCharBuf@@AEAVTlsMain@@AEAVEncryptTls@@@Z@4HA 0000000140024c20 f   ServerHello-92682c.o
 0001:00023c60       ?dtor$15@?0??makeHelloBuf@ServerHello@@QEAAXAEAVCharBuf@@AEAVTlsMain@@AEAVEncryptTls@@@Z@4HA 0000000140024c60 f   ServerHello-92682c.o
 0001:00023ca0       ?dtor$69@?0??makeHelloBuf@ServerHello@@QEAAXAEAVCharBuf@@AEAVTlsMain@@AEAVEncryptTls@@@Z@4HA 0000000140024ca0 f   ServerHello-92682c.o
 0001:00023ce0       ?dtor$72@?0??makeHelloBuf@ServerHello@@QEAAXAEAVCharBuf@@AEAVTlsMain@@AEAVEncryptTls@@@Z@4HA 0000000140024ce0 f   ServerHello-92682c.o
 0001:00023d20       ?dtor$75@?0??makeHelloBuf@ServerHello@@QEAAXAEAVCharBuf@@AEAVTlsMain@@AEAVEncryptTls@@@Z@4HA 0000000140024d20 f   ServerHello-92682c.o
 0001:00023d60       ?dtor$78@?0??makeHelloBuf@ServerHello@@QEAAXAEAVCharBuf@@AEAVTlsMain@@AEAVEncryptTls@@@Z@4HA 0000000140024d60 f   ServerHello-92682c.o
 0001:00023da0       ?dtor$81@?0??makeHelloBuf@ServerHello@@QEAAXAEAVCharBuf@@AEAVTlsMain@@AEAVEncryptTls@@@Z@4HA 0000000140024da0 f   ServerHello-92682c.o
 0001:00023de0       ?dtor$84@?0??makeHelloBuf@ServerHello@@QEAAXAEAVCharBuf@@AEAVTlsMain@@AEAVEncryptTls@@@Z@4HA 0000000140024de0 f   ServerHello-92682c.o
 0001:00023ea0       ?dtor$4@?0???0ServerTls@@QEAA@AEBV0@@Z@4HA 0000000140024ea0 f   ServerTls-6fd03c.o
 0001:00024020       ?dtor$16@?0??mainLoop@ServerTls@@QEAAXXZ@4HA 0000000140025020 f   ServerTls-6fd03c.o
 0001:00024060       ?dtor$22@?0??mainLoop@ServerTls@@QEAAXXZ@4HA 0000000140025060 f   ServerTls-6fd03c.o
 0001:000240a0       ?dtor$24@?0??mainLoop@ServerTls@@QEAAXXZ@4HA 00000001400250a0 f   ServerTls-6fd03c.o
 0001:00024130       ?dtor$4@?0???1SocketGetAddress@@QEAA@XZ@4HA 0000000140025130 f   SocketsApiWin-7e7fe5.o
 0001:00024290       ?dtor$20@?0??getAddressInfo@SocketGetAddress@@QEAA_NAEBVCharBuf@@0_N1@Z@4HA 0000000140025290 f   SocketsApiWin-7e7fe5.o
 0001:000242d0       ?dtor$23@?0??getAddressInfo@SocketGetAddress@@QEAA_NAEBVCharBuf@@0_N1@Z@4HA 00000001400252d0 f   SocketsApiWin-7e7fe5.o
 0001:00024490       ?dtor$21@?0??getAddressBuf@SocketGetAddress@@SA_NAEAVCharBuf@@PEAUsockaddr@@@Z@4HA 0000000140025490 f   SocketsApiWin-7e7fe5.o
 0001:000244d0       ?dtor$24@?0??getAddressBuf@SocketGetAddress@@SA_NAEAVCharBuf@@PEAUsockaddr@@@Z@4HA 00000001400254d0 f   SocketsApiWin-7e7fe5.o
 0001:000245c0       ?dtor$2@?0???1SocketsApi@@QEAA@XZ@4HA 00000001400255c0 f   SocketsApiWin-7e7fe5.o
 0001:000249b0       ?dtor$15@?0??connectClient@SocketsApi@@SA_KAEBVCharBuf@@0@Z@4HA 00000001400259b0 f   SocketsApiWin-7e7fe5.o
 0001:000249f0       ?dtor$57@?0??connectClient@SocketsApi@@SA_KAEBVCharBuf@@0@Z@4HA 00000001400259f0 f   SocketsApiWin-7e7fe5.o
 0001:00024a30       ?dtor$76@?0??connectClient@SocketsApi@@SA_KAEBVCharBuf@@0@Z@4HA 0000000140025a30 f   SocketsApiWin-7e7fe5.o
 0001:00024a70       ?dtor$78@?0??connectClient@SocketsApi@@SA_KAEBVCharBuf@@0@Z@4HA 0000000140025a70 f   SocketsApiWin-7e7fe5.o
 0001:00024dc0       ?dtor$12@?0??openServer@SocketsApi@@SA_KPEBD0_N@Z@4HA 0000000140025dc0 f   SocketsApiWin-7e7fe5.o
 0001:00024df0       ?dtor$15@?0??openServer@SocketsApi@@SA_KPEBD0_N@Z@4HA 0000000140025df0 f   SocketsApiWin-7e7fe5.o
 0001:00024e20       ?dtor$22@?0??openServer@SocketsApi@@SA_KPEBD0_N@Z@4HA 0000000140025e20 f   SocketsApiWin-7e7fe5.o
 0001:00024e50       ?dtor$63@?0??openServer@SocketsApi@@SA_KPEBD0_N@Z@4HA 0000000140025e50 f   SocketsApiWin-7e7fe5.o
 0001:00024e80       ?dtor$66@?0??openServer@SocketsApi@@SA_KPEBD0_N@Z@4HA 0000000140025e80 f   SocketsApiWin-7e7fe5.o
 0001:00024ea0       ?dtor$67@?0??openServer@SocketsApi@@SA_KPEBD0_N@Z@4HA 0000000140025ea0 f   SocketsApiWin-7e7fe5.o
 0001:00024ff0       ?dtor$4@?0??acceptConnect@SocketsApi@@SA_K_KAEAVCharBuf@@@Z@4HA 0000000140025ff0 f   SocketsApiWin-7e7fe5.o
 0001:00025020       ?dtor$17@?0??acceptConnect@SocketsApi@@SA_K_KAEAVCharBuf@@@Z@4HA 0000000140026020 f   SocketsApiWin-7e7fe5.o
 0001:0002512b       $ehgcr_14_17               000000014002612b     SocketsApiWin-7e7fe5.o
 0001:00025140       ?dtor$18@?0??sendCharBuf@SocketsApi@@SAH_KAEBVCharBuf@@@Z@4HA 0000000140026140 f   SocketsApiWin-7e7fe5.o
 0001:00025170       ?catch$21@?0??sendCharBuf@SocketsApi@@SAH_KAEBVCharBuf@@@Z@4HA 0000000140026170 f   SocketsApiWin-7e7fe5.o
 0001:000251b0       ?catch$22@?0??sendCharBuf@SocketsApi@@SAH_KAEBVCharBuf@@@Z@4HA 00000001400261b0 f   SocketsApiWin-7e7fe5.o
 0001:0002527a       $ehgcr_15_3                000000014002627a     SocketsApiWin-7e7fe5.o
 0001:000252e0       ?catch$19@?0??receiveCharBuf@SocketsApi@@SA_N_KAEAVCharBuf@@@Z@4HA 00000001400262e0 f   SocketsApiWin-7e7fe5.o
 0001:00025460       ?dtor$5@?0???1SrvClient@@UEAA@XZ@4HA 0000000140026460 f   SrvClient-d45776.o
 0001:00025590       ?dtor$7@?0???_GSrvClient@@UEAAPEAXI@Z@4HA 0000000140026590 f i SrvClient-d45776.o
 0001:00025620       ?dtor$5@?0???0SrvClTls@@IEAA@XZ@4HA 0000000140026620 f   SrvClTls-58f311.o
 0001:00025640       ?dtor$6@?0???0SrvClTls@@IEAA@XZ@4HA 0000000140026640 f   SrvClTls-58f311.o
 0001:00025660       ?dtor$7@?0???0SrvClTls@@IEAA@XZ@4HA 0000000140026660 f   SrvClTls-58f311.o
 0001:00025700       ?dtor$5@?0???0SrvClTls@@QEAA@_K@Z@4HA 0000000140026700 f   SrvClTls-58f311.o
 0001:00025730       ?dtor$6@?0???0SrvClTls@@QEAA@_K@Z@4HA 0000000140026730 f   SrvClTls-58f311.o
 0001:00025760       ?dtor$7@?0???0SrvClTls@@QEAA@_K@Z@4HA 0000000140026760 f   SrvClTls-58f311.o
 0001:000257e0       ?dtor$2@?0???1SrvClTls@@UEAA@XZ@4HA 00000001400267e0 f   SrvClTls-58f311.o
 0001:00025943       $ehgcr_7_28                0000000140026943     SrvClTls-58f311.o
 0001:00025960       ?dtor$9@?0??processData@SrvClTls@@UEAAHXZ@4HA 0000000140026960 f   SrvClTls-58f311.o
 0001:00025990       ?dtor$31@?0??processData@SrvClTls@@UEAAHXZ@4HA 0000000140026990 f   SrvClTls-58f311.o
 0001:000259c0       ?dtor$34@?0??processData@SrvClTls@@UEAAHXZ@4HA 00000001400269c0 f   SrvClTls-58f311.o
 0001:000259f0       ?dtor$37@?0??processData@SrvClTls@@UEAAHXZ@4HA 00000001400269f0 f   SrvClTls-58f311.o
 0001:00025a20       ?catch$40@?0??processData@SrvClTls@@UEAAHXZ@4HA 0000000140026a20 f   SrvClTls-58f311.o
 0001:00025a60       ?catch$41@?0??processData@SrvClTls@@UEAAHXZ@4HA 0000000140026a60 f   SrvClTls-58f311.o
 0001:00025c90       ?dtor$3@?0???0TlsMainSrv@@QEAA@XZ@4HA 0000000140026c90 f i SrvClTls-58f311.o
 0001:00025cc0       ?dtor$21@?0???0TlsMainSrv@@QEAA@XZ@4HA 0000000140026cc0 f i SrvClTls-58f311.o
 0001:00025cf0       ?dtor$24@?0???0TlsMainSrv@@QEAA@XZ@4HA 0000000140026cf0 f i SrvClTls-58f311.o
 0001:00025d20       ?dtor$27@?0???0TlsMainSrv@@QEAA@XZ@4HA 0000000140026d20 f i SrvClTls-58f311.o
 0001:00025d50       ?dtor$33@?0???0TlsMainSrv@@QEAA@XZ@4HA 0000000140026d50 f i SrvClTls-58f311.o
 0001:00025d80       ?dtor$34@?0???0TlsMainSrv@@QEAA@XZ@4HA 0000000140026d80 f i SrvClTls-58f311.o
 0001:00025db0       ?dtor$35@?0???0TlsMainSrv@@QEAA@XZ@4HA 0000000140026db0 f i SrvClTls-58f311.o
 0001:00025de0       ?dtor$38@?0???0TlsMainSrv@@QEAA@XZ@4HA 0000000140026de0 f i SrvClTls-58f311.o
 0001:00025e10       ?dtor$41@?0???0TlsMainSrv@@QEAA@XZ@4HA 0000000140026e10 f i SrvClTls-58f311.o
 0001:00025e40       ?dtor$44@?0???0TlsMainSrv@@QEAA@XZ@4HA 0000000140026e40 f i SrvClTls-58f311.o
 0001:00025f90       ?dtor$4@?0???_GSrvClTls@@UEAAPEAXI@Z@4HA 0000000140026f90 f i SrvClTls-58f311.o
 0001:00026070       ?dtor$4@?0??processOutgoing@TlsMainCl@@QEAAHXZ@4HA 0000000140027070 f   TlsMainCl-89780c.o
 0001:000260a0       ?dtor$13@?0??processOutgoing@TlsMainCl@@QEAAHXZ@4HA 00000001400270a0 f   TlsMainCl-89780c.o
 0001:000266c0       ?dtor$8@?0??processIncoming@TlsMainCl@@QEAAHXZ@4HA 00000001400276c0 f   TlsMainCl-89780c.o
 0001:00026700       ?dtor$94@?0??processIncoming@TlsMainCl@@QEAAHXZ@4HA 0000000140027700 f   TlsMainCl-89780c.o
 0001:00026740       ?dtor$97@?0??processIncoming@TlsMainCl@@QEAAHXZ@4HA 0000000140027740 f   TlsMainCl-89780c.o
 0001:00026780       ?dtor$108@?0??processIncoming@TlsMainCl@@QEAAHXZ@4HA 0000000140027780 f   TlsMainCl-89780c.o
 0001:00026b40       ?dtor$10@?0??processHandshake@TlsMainCl@@QEAAHAEBVCharBuf@@@Z@4HA 0000000140027b40 f   TlsMainCl-89780c.o
 0001:00026b80       ?dtor$45@?0??processHandshake@TlsMainCl@@QEAAHAEBVCharBuf@@@Z@4HA 0000000140027b80 f   TlsMainCl-89780c.o
 0001:00026ec0       ?dtor$4@?0??processAppData@TlsMainCl@@QEAAHAEBVCharBuf@@@Z@4HA 0000000140027ec0 f   TlsMainCl-89780c.o
 0001:00026ef0       ?dtor$49@?0??processAppData@TlsMainCl@@QEAAHAEBVCharBuf@@@Z@4HA 0000000140027ef0 f   TlsMainCl-89780c.o
 0001:000270a0       ?dtor$24@?0??sendTestVecFinished@TlsMainCl@@QEAA_NXZ@4HA 00000001400280a0 f   TlsMainCl-89780c.o
 0001:000270d0       ?dtor$27@?0??sendTestVecFinished@TlsMainCl@@QEAA_NXZ@4HA 00000001400280d0 f   TlsMainCl-89780c.o
 0001:00027100       ?dtor$30@?0??sendTestVecFinished@TlsMainCl@@QEAA_NXZ@4HA 0000000140028100 f   TlsMainCl-89780c.o
 0001:00027130       ?dtor$33@?0??sendTestVecFinished@TlsMainCl@@QEAA_NXZ@4HA 0000000140028130 f   TlsMainCl-89780c.o
 0001:00027160       ?dtor$36@?0??sendTestVecFinished@TlsMainCl@@QEAA_NXZ@4HA 0000000140028160 f   TlsMainCl-89780c.o
 0001:00027190       ?dtor$39@?0??sendTestVecFinished@TlsMainCl@@QEAA_NXZ@4HA 0000000140028190 f   TlsMainCl-89780c.o
 0001:00027820       ?dtor$28@?0??startTestVecHandshake@TlsMainCl@@QEAA_NAEBVCharBuf@@0@Z@4HA 0000000140028820 f   TlsMainCl-89780c.o
 0001:00027860       ?dtor$31@?0??startTestVecHandshake@TlsMainCl@@QEAA_NAEBVCharBuf@@0@Z@4HA 0000000140028860 f   TlsMainCl-89780c.o
 0001:000278a0       ?dtor$34@?0??startTestVecHandshake@TlsMainCl@@QEAA_NAEBVCharBuf@@0@Z@4HA 00000001400288a0 f   TlsMainCl-89780c.o
 0001:000278e0       ?dtor$83@?0??startTestVecHandshake@TlsMainCl@@QEAA_NAEBVCharBuf@@0@Z@4HA 00000001400288e0 f   TlsMainCl-89780c.o
 0001:00027920       ?dtor$86@?0??startTestVecHandshake@TlsMainCl@@QEAA_NAEBVCharBuf@@0@Z@4HA 0000000140028920 f   TlsMainCl-89780c.o
 0001:00027960       ?dtor$89@?0??startTestVecHandshake@TlsMainCl@@QEAA_NAEBVCharBuf@@0@Z@4HA 0000000140028960 f   TlsMainCl-89780c.o
 0001:000279a0       ?dtor$92@?0??startTestVecHandshake@TlsMainCl@@QEAA_NAEBVCharBuf@@0@Z@4HA 00000001400289a0 f   TlsMainCl-89780c.o
 0001:000279e0       ?dtor$95@?0??startTestVecHandshake@TlsMainCl@@QEAA_NAEBVCharBuf@@0@Z@4HA 00000001400289e0 f   TlsMainCl-89780c.o
 0001:00027a20       ?dtor$98@?0??startTestVecHandshake@TlsMainCl@@QEAA_NAEBVCharBuf@@0@Z@4HA 0000000140028a20 f   TlsMainCl-89780c.o
 0001:00027a60       ?dtor$101@?0??startTestVecHandshake@TlsMainCl@@QEAA_NAEBVCharBuf@@0@Z@4HA 0000000140028a60 f   TlsMainCl-89780c.o
 0001:00027aa0       ?dtor$104@?0??startTestVecHandshake@TlsMainCl@@QEAA_NAEBVCharBuf@@0@Z@4HA 0000000140028aa0 f   TlsMainCl-89780c.o
 0001:00027ae0       ?dtor$107@?0??startTestVecHandshake@TlsMainCl@@QEAA_NAEBVCharBuf@@0@Z@4HA 0000000140028ae0 f   TlsMainCl-89780c.o
 0001:00027b20       ?dtor$110@?0??startTestVecHandshake@TlsMainCl@@QEAA_NAEBVCharBuf@@0@Z@4HA 0000000140028b20 f   TlsMainCl-89780c.o
 0001:00027b60       ?dtor$113@?0??startTestVecHandshake@TlsMainCl@@QEAA_NAEBVCharBuf@@0@Z@4HA 0000000140028b60 f   TlsMainCl-89780c.o
 0001:00027ba0       ?dtor$116@?0??startTestVecHandshake@TlsMainCl@@QEAA_NAEBVCharBuf@@0@Z@4HA 0000000140028ba0 f   TlsMainCl-89780c.o
 0001:00027be0       ?dtor$119@?0??startTestVecHandshake@TlsMainCl@@QEAA_NAEBVCharBuf@@0@Z@4HA 0000000140028be0 f   TlsMainCl-89780c.o
 0001:00027e40       ?dtor$3@?0??startHandshake@TlsMainCl@@QEAA_NAEBVCharBuf@@0@Z@4HA 0000000140028e40 f   TlsMainCl-89780c.o
 0001:00027e70       ?dtor$19@?0??startHandshake@TlsMainCl@@QEAA_NAEBVCharBuf@@0@Z@4HA 0000000140028e70 f   TlsMainCl-89780c.o
 0001:00027ea0       ?dtor$22@?0??startHandshake@TlsMainCl@@QEAA_NAEBVCharBuf@@0@Z@4HA 0000000140028ea0 f   TlsMainCl-89780c.o
 0001:00027ed0       ?dtor$39@?0??startHandshake@TlsMainCl@@QEAA_NAEBVCharBuf@@0@Z@4HA 0000000140028ed0 f   TlsMainCl-89780c.o
 0001:00027f00       ?dtor$42@?0??startHandshake@TlsMainCl@@QEAA_NAEBVCharBuf@@0@Z@4HA 0000000140028f00 f   TlsMainCl-89780c.o
 0001:00027f30       ?dtor$45@?0??startHandshake@TlsMainCl@@QEAA_NAEBVCharBuf@@0@Z@4HA 0000000140028f30 f   TlsMainCl-89780c.o
 0001:00028410       ?dtor$11@?0??setTestVecServerCertOnly@TlsMainSrv@@QEAAXAEAVCharBuf@@@Z@4HA 0000000140029410 f   TlsMainSrv-bbf05b.o
 0001:00028440       ?dtor$14@?0??setTestVecServerCertOnly@TlsMainSrv@@QEAAXAEAVCharBuf@@@Z@4HA 0000000140029440 f   TlsMainSrv-bbf05b.o
 0001:00028470       ?dtor$17@?0??setTestVecServerCertOnly@TlsMainSrv@@QEAAXAEAVCharBuf@@@Z@4HA 0000000140029470 f   TlsMainSrv-bbf05b.o
 0001:00028a70       ?dtor$28@?0??setTestVecServerHello@TlsMainSrv@@QEAAXAEAVCharBuf@@AEAVTlsMain@@@Z@4HA 0000000140029a70 f   TlsMainSrv-bbf05b.o
 0001:00028ab0       ?dtor$31@?0??setTestVecServerHello@TlsMainSrv@@QEAAXAEAVCharBuf@@AEAVTlsMain@@@Z@4HA 0000000140029ab0 f   TlsMainSrv-bbf05b.o
 0001:00028af0       ?dtor$34@?0??setTestVecServerHello@TlsMainSrv@@QEAAXAEAVCharBuf@@AEAVTlsMain@@@Z@4HA 0000000140029af0 f   TlsMainSrv-bbf05b.o
 0001:00028b30       ?dtor$74@?0??setTestVecServerHello@TlsMainSrv@@QEAAXAEAVCharBuf@@AEAVTlsMain@@@Z@4HA 0000000140029b30 f   TlsMainSrv-bbf05b.o
 0001:00028b70       ?dtor$77@?0??setTestVecServerHello@TlsMainSrv@@QEAAXAEAVCharBuf@@AEAVTlsMain@@@Z@4HA 0000000140029b70 f   TlsMainSrv-bbf05b.o
 0001:00028bb0       ?dtor$80@?0??setTestVecServerHello@TlsMainSrv@@QEAAXAEAVCharBuf@@AEAVTlsMain@@@Z@4HA 0000000140029bb0 f   TlsMainSrv-bbf05b.o
 0001:00028bf0       ?dtor$83@?0??setTestVecServerHello@TlsMainSrv@@QEAAXAEAVCharBuf@@AEAVTlsMain@@@Z@4HA 0000000140029bf0 f   TlsMainSrv-bbf05b.o
 0001:00028c30       ?dtor$86@?0??setTestVecServerHello@TlsMainSrv@@QEAAXAEAVCharBuf@@AEAVTlsMain@@@Z@4HA 0000000140029c30 f   TlsMainSrv-bbf05b.o
 0001:00028c70       ?dtor$89@?0??setTestVecServerHello@TlsMainSrv@@QEAAXAEAVCharBuf@@AEAVTlsMain@@@Z@4HA 0000000140029c70 f   TlsMainSrv-bbf05b.o
 0001:00028cb0       ?dtor$92@?0??setTestVecServerHello@TlsMainSrv@@QEAAXAEAVCharBuf@@AEAVTlsMain@@@Z@4HA 0000000140029cb0 f   TlsMainSrv-bbf05b.o
 0001:00028cf0       ?dtor$95@?0??setTestVecServerHello@TlsMainSrv@@QEAAXAEAVCharBuf@@AEAVTlsMain@@@Z@4HA 0000000140029cf0 f   TlsMainSrv-bbf05b.o
 0001:00028d30       ?dtor$98@?0??setTestVecServerHello@TlsMainSrv@@QEAAXAEAVCharBuf@@AEAVTlsMain@@@Z@4HA 0000000140029d30 f   TlsMainSrv-bbf05b.o
 0001:00028d70       ?dtor$101@?0??setTestVecServerHello@TlsMainSrv@@QEAAXAEAVCharBuf@@AEAVTlsMain@@@Z@4HA 0000000140029d70 f   TlsMainSrv-bbf05b.o
 0001:00028db0       ?dtor$104@?0??setTestVecServerHello@TlsMainSrv@@QEAAXAEAVCharBuf@@AEAVTlsMain@@@Z@4HA 0000000140029db0 f   TlsMainSrv-bbf05b.o
 0001:00028df0       ?dtor$107@?0??setTestVecServerHello@TlsMainSrv@@QEAAXAEAVCharBuf@@AEAVTlsMain@@@Z@4HA 0000000140029df0 f   TlsMainSrv-bbf05b.o
 0001:00029250       ?dtor$44@?0??processIncoming@TlsMainSrv@@QEAAHAEBVCharBuf@@AEAVTlsMain@@@Z@4HA 000000014002a250 f   TlsMainSrv-bbf05b.o
 0001:00029290       ?dtor$52@?0??processIncoming@TlsMainSrv@@QEAAHAEBVCharBuf@@AEAVTlsMain@@@Z@4HA 000000014002a290 f   TlsMainSrv-bbf05b.o
 0001:00029850       ?dtor$10@?0??processHandshake@TlsMainSrv@@QEAAHAEBVCharBuf@@AEAVTlsMain@@@Z@4HA 000000014002a850 f   TlsMainSrv-bbf05b.o
 0001:00029890       ?dtor$70@?0??processHandshake@TlsMainSrv@@QEAAHAEBVCharBuf@@AEAVTlsMain@@@Z@4HA 000000014002a890 f   TlsMainSrv-bbf05b.o
 0001:000298d0       ?dtor$73@?0??processHandshake@TlsMainSrv@@QEAAHAEBVCharBuf@@AEAVTlsMain@@@Z@4HA 000000014002a8d0 f   TlsMainSrv-bbf05b.o
 0001:00029910       ?dtor$76@?0??processHandshake@TlsMainSrv@@QEAAHAEBVCharBuf@@AEAVTlsMain@@@Z@4HA 000000014002a910 f   TlsMainSrv-bbf05b.o
 0001:00029950       ?dtor$79@?0??processHandshake@TlsMainSrv@@QEAAHAEBVCharBuf@@AEAVTlsMain@@@Z@4HA 000000014002a950 f   TlsMainSrv-bbf05b.o
 0001:00029990       ?dtor$89@?0??processHandshake@TlsMainSrv@@QEAAHAEBVCharBuf@@AEAVTlsMain@@@Z@4HA 000000014002a990 f   TlsMainSrv-bbf05b.o
 0001:00029c70       ?dtor$4@?0??processAppData@TlsMainSrv@@QEAAHAEBVCharBuf@@AEAVTlsMain@@@Z@4HA 000000014002ac70 f   TlsMainSrv-bbf05b.o
 0001:00029ca0       ?dtor$49@?0??processAppData@TlsMainSrv@@QEAAHAEBVCharBuf@@AEAVTlsMain@@@Z@4HA 000000014002aca0 f   TlsMainSrv-bbf05b.o
 0001:00029e10       ?dtor$12@?0??setTestVecServerCertOuter@TlsMainSrv@@QEAAXAEAVCharBuf@@@Z@4HA 000000014002ae10 f   TlsMainSrv-bbf05b.o
 0001:00029e40       ?dtor$15@?0??setTestVecServerCertOuter@TlsMainSrv@@QEAAXAEAVCharBuf@@@Z@4HA 000000014002ae40 f   TlsMainSrv-bbf05b.o
 0001:00029e70       ?dtor$18@?0??setTestVecServerCertOuter@TlsMainSrv@@QEAAXAEAVCharBuf@@@Z@4HA 000000014002ae70 f   TlsMainSrv-bbf05b.o
 0001:00029f60       ?dtor$11@?0??setTestVecServerEncExten@TlsMainSrv@@QEAAXAEAVCharBuf@@@Z@4HA 000000014002af60 f   TlsMainSrv-bbf05b.o
 0001:00029f90       ?dtor$14@?0??setTestVecServerEncExten@TlsMainSrv@@QEAAXAEAVCharBuf@@@Z@4HA 000000014002af90 f   TlsMainSrv-bbf05b.o
 0001:00029fc0       ?dtor$17@?0??setTestVecServerEncExten@TlsMainSrv@@QEAAXAEAVCharBuf@@@Z@4HA 000000014002afc0 f   TlsMainSrv-bbf05b.o
 0001:0002a0b0       ?dtor$11@?0??setTestVecServerCertVerify@TlsMainSrv@@QEAAXAEAVCharBuf@@@Z@4HA 000000014002b0b0 f   TlsMainSrv-bbf05b.o
 0001:0002a0e0       ?dtor$14@?0??setTestVecServerCertVerify@TlsMainSrv@@QEAAXAEAVCharBuf@@@Z@4HA 000000014002b0e0 f   TlsMainSrv-bbf05b.o
 0001:0002a110       ?dtor$17@?0??setTestVecServerCertVerify@TlsMainSrv@@QEAAXAEAVCharBuf@@@Z@4HA 000000014002b110 f   TlsMainSrv-bbf05b.o
 0001:0002a200       ?dtor$11@?0??setTestVecServerFinished@TlsMainSrv@@QEAAXAEAVCharBuf@@@Z@4HA 000000014002b200 f   TlsMainSrv-bbf05b.o
 0001:0002a230       ?dtor$14@?0??setTestVecServerFinished@TlsMainSrv@@QEAAXAEAVCharBuf@@@Z@4HA 000000014002b230 f   TlsMainSrv-bbf05b.o
 0001:0002a260       ?dtor$17@?0??setTestVecServerFinished@TlsMainSrv@@QEAAXAEAVCharBuf@@@Z@4HA 000000014002b260 f   TlsMainSrv-bbf05b.o
 0001:0002a350       ?dtor$11@?0??setTestVecNewSessionTicket@TlsMainSrv@@QEAAXAEAVCharBuf@@@Z@4HA 000000014002b350 f   TlsMainSrv-bbf05b.o
 0001:0002a380       ?dtor$14@?0??setTestVecNewSessionTicket@TlsMainSrv@@QEAAXAEAVCharBuf@@@Z@4HA 000000014002b380 f   TlsMainSrv-bbf05b.o
 0001:0002a3b0       ?dtor$17@?0??setTestVecNewSessionTicket@TlsMainSrv@@QEAAXAEAVCharBuf@@@Z@4HA 000000014002b3b0 f   TlsMainSrv-bbf05b.o
 0001:0002b8f0       ?dtor$69@?0??encryptTest@Aes@@QEAAXXZ@4HA 000000014002c8f0 f   Aes-9fcd55.o
 0001:0002b920       ?dtor$72@?0??encryptTest@Aes@@QEAAXXZ@4HA 000000014002c920 f   Aes-9fcd55.o
 0001:0002b950       ?dtor$75@?0??encryptTest@Aes@@QEAAXXZ@4HA 000000014002c950 f   Aes-9fcd55.o
 0001:0002b980       ?dtor$88@?0??encryptTest@Aes@@QEAAXXZ@4HA 000000014002c980 f   Aes-9fcd55.o
 0001:0002b9b0       ?dtor$91@?0??encryptTest@Aes@@QEAAXXZ@4HA 000000014002c9b0 f   Aes-9fcd55.o
 0001:0002b9e0       ?dtor$94@?0??encryptTest@Aes@@QEAAXXZ@4HA 000000014002c9e0 f   Aes-9fcd55.o
 0001:0002c1a0       ?dtor$20@?0??encryptTest@AesGalois@@QEAAXXZ@4HA 000000014002d1a0 f   AesGalois-eee68e.o
 0001:0002c1d0       ?dtor$56@?0??encryptTest@AesGalois@@QEAAXXZ@4HA 000000014002d1d0 f   AesGalois-eee68e.o
 0001:0002c200       ?dtor$59@?0??encryptTest@AesGalois@@QEAAXXZ@4HA 000000014002d200 f   AesGalois-eee68e.o
 0001:0002c230       ?dtor$62@?0??encryptTest@AesGalois@@QEAAXXZ@4HA 000000014002d230 f   AesGalois-eee68e.o
 0001:0002c260       ?dtor$65@?0??encryptTest@AesGalois@@QEAAXXZ@4HA 000000014002d260 f   AesGalois-eee68e.o
 0001:0002c290       ?dtor$68@?0??encryptTest@AesGalois@@QEAAXXZ@4HA 000000014002d290 f   AesGalois-eee68e.o
 0001:0002c2c0       ?dtor$71@?0??encryptTest@AesGalois@@QEAAXXZ@4HA 000000014002d2c0 f   AesGalois-eee68e.o
 0001:0002c2f0       ?dtor$74@?0??encryptTest@AesGalois@@QEAAXXZ@4HA 000000014002d2f0 f   AesGalois-eee68e.o
 0001:0002c320       ?dtor$77@?0??encryptTest@AesGalois@@QEAAXXZ@4HA 000000014002d320 f   AesGalois-eee68e.o
 0001:0002c4a0       ?dtor$6@?0??encryptCharBuf@AesGalois@@QEAAXAEBVCharBuf@@00AEAV2@@Z@4HA 000000014002d4a0 f   AesGalois-eee68e.o
 0001:0002c4d0       ?dtor$9@?0??encryptCharBuf@AesGalois@@QEAAXAEBVCharBuf@@00AEAV2@@Z@4HA 000000014002d4d0 f   AesGalois-eee68e.o
 0001:0002c7c0       ?dtor$9@?0??decryptCharBuf@AesGalois@@QEAAXAEBVCharBuf@@00AEAV2@@Z@4HA 000000014002d7c0 f   AesGalois-eee68e.o
 0001:0002c800       ?dtor$12@?0??decryptCharBuf@AesGalois@@QEAAXAEBVCharBuf@@00AEAV2@@Z@4HA 000000014002d800 f   AesGalois-eee68e.o
 0001:0002c840       ?dtor$39@?0??decryptCharBuf@AesGalois@@QEAAXAEBVCharBuf@@00AEAV2@@Z@4HA 000000014002d840 f   AesGalois-eee68e.o
 0001:0002c880       ?dtor$50@?0??decryptCharBuf@AesGalois@@QEAAXAEBVCharBuf@@00AEAV2@@Z@4HA 000000014002d880 f   AesGalois-eee68e.o
 0001:0002c8c0       ?dtor$53@?0??decryptCharBuf@AesGalois@@QEAAXAEBVCharBuf@@00AEAV2@@Z@4HA 000000014002d8c0 f   AesGalois-eee68e.o
 0001:0002c900       ?dtor$56@?0??decryptCharBuf@AesGalois@@QEAAXAEBVCharBuf@@00AEAV2@@Z@4HA 000000014002d900 f   AesGalois-eee68e.o
 0001:0002cbd0       ?dtor$16@?0??setJ0fromIV@AesGalois@@AEAAXAEBVCharBuf@@AEAVPolynom128@@@Z@4HA 000000014002dbd0 f   AesGalois-eee68e.o
 0001:0002cc10       ?dtor$35@?0??setJ0fromIV@AesGalois@@AEAAXAEBVCharBuf@@AEAVPolynom128@@@Z@4HA 000000014002dc10 f   AesGalois-eee68e.o
 0001:0002dcd0       ?dtor$11@?0??makeAuthTag@AesGalois@@AEAAXAEBVCharBuf@@0AEBVPolynom128@@AEAV2@@Z@4HA 000000014002ecd0 f   AesGalois-eee68e.o
 0001:0002dd10       ?dtor$36@?0??makeAuthTag@AesGalois@@AEAAXAEBVCharBuf@@0AEBVPolynom128@@AEAV2@@Z@4HA 000000014002ed10 f   AesGalois-eee68e.o
 0001:0002dd50       ?dtor$39@?0??makeAuthTag@AesGalois@@AEAAXAEBVCharBuf@@0AEBVPolynom128@@AEAV2@@Z@4HA 000000014002ed50 f   AesGalois-eee68e.o
 0001:0002dd90       ?dtor$42@?0??makeAuthTag@AesGalois@@AEAAXAEBVCharBuf@@0AEBVPolynom128@@AEAV2@@Z@4HA 000000014002ed90 f   AesGalois-eee68e.o
 0001:0002ef10       ?dtor$15@?0??test@Base64@@QEAAXXZ@4HA 000000014002ff10 f   Base64-ae634d.o
 0001:0002ef40       ?dtor$18@?0??test@Base64@@QEAAXXZ@4HA 000000014002ff40 f   Base64-ae634d.o
 0001:0002ef70       ?dtor$21@?0??test@Base64@@QEAAXXZ@4HA 000000014002ff70 f   Base64-ae634d.o
 0001:0002efa0       ?dtor$24@?0??test@Base64@@QEAAXXZ@4HA 000000014002ffa0 f   Base64-ae634d.o
 0001:0002efd0       ?dtor$38@?0??test@Base64@@QEAAXXZ@4HA 000000014002ffd0 f   Base64-ae634d.o
 0001:0002f000       ?dtor$41@?0??test@Base64@@QEAAXXZ@4HA 0000000140030000 f   Base64-ae634d.o
 0001:0002f030       ?dtor$44@?0??test@Base64@@QEAAXXZ@4HA 0000000140030030 f   Base64-ae634d.o
 0001:0002f060       ?dtor$47@?0??test@Base64@@QEAAXXZ@4HA 0000000140030060 f   Base64-ae634d.o
 0001:00031e5d       $ehgcr_3_74                0000000140032e5d     MCurve-538f45.o
 0001:00031ee0       ?catch$71@?0??montLadder1@MCurve@@QEAA_NAEAVInteger@@AEBV2@1AEAVIntegerMath@@AEAVMod@@@Z@4HA 0000000140032ee0 f   MCurve-538f45.o
 0001:00031f40       ?catch$72@?0??montLadder1@MCurve@@QEAA_NAEAVInteger@@AEBV2@1AEAVIntegerMath@@AEAVMod@@@Z@4HA 0000000140032f40 f   MCurve-538f45.o
 0001:00032050       ?dtor$7@?0??makeRandExponentK@MCurve@@QEAAXAEAVInteger@@AEAVCharBuf@@@Z@4HA 0000000140033050 f   MCurve-538f45.o
 0001:00032190       ?dtor$5@?0??makeRandom32Bytes@MCurve@@QEAAXAEAVByteArray@@@Z@4HA 0000000140033190 f   MCurve-538f45.o
 0001:000321c0       ?dtor$21@?0??makeRandom32Bytes@MCurve@@QEAAXAEAVByteArray@@@Z@4HA 00000001400331c0 f   MCurve-538f45.o
 0001:000325a0       ?dtor$10@?0??makeThePrime@MCurve@@QEAAXAEAVIntegerMath@@@Z@4HA 00000001400335a0 f   MCurve-538f45.o
 0001:000325d0       ?dtor$18@?0??makeThePrime@MCurve@@QEAAXAEAVIntegerMath@@@Z@4HA 00000001400335d0 f   MCurve-538f45.o
 0001:00032600       ?dtor$21@?0??makeThePrime@MCurve@@QEAAXAEAVIntegerMath@@@Z@4HA 0000000140033600 f   MCurve-538f45.o
 0001:00033be0       ?dtor$4@?0???0QuadRes@@QEAA@XZ@4HA 0000000140034be0 f   QuadRes-65cbe1.o
 0001:00033ce0       ?dtor$5@?0???0QuadRes@@QEAA@AEBV0@@Z@4HA 0000000140034ce0 f   QuadRes-65cbe1.o
 0001:00034aa0       ?dtor$15@?0??makeKeys@Rsa@@QEAA_NAEBVInteger@@0AEAVIntegerMath@@AEAVMod@@AEAVSPrimes@@AEAVFindFacSm@@AEBVMultInv@@AEBVCrtMath@@AEAVGarnerCrt@@@Z@4HA 0000000140035aa0 f   Rsa-1b4059.o
 0001:00034ae0       ?dtor$56@?0??makeKeys@Rsa@@QEAA_NAEBVInteger@@0AEAVIntegerMath@@AEAVMod@@AEAVSPrimes@@AEAVFindFacSm@@AEBVMultInv@@AEBVCrtMath@@AEAVGarnerCrt@@@Z@4HA 0000000140035ae0 f   Rsa-1b4059.o
 0001:00034b20       ?dtor$57@?0??makeKeys@Rsa@@QEAA_NAEBVInteger@@0AEAVIntegerMath@@AEAVMod@@AEAVSPrimes@@AEAVFindFacSm@@AEBVMultInv@@AEBVCrtMath@@AEAVGarnerCrt@@@Z@4HA 0000000140035b20 f   Rsa-1b4059.o
 0001:00034b60       ?dtor$60@?0??makeKeys@Rsa@@QEAA_NAEBVInteger@@0AEAVIntegerMath@@AEAVMod@@AEAVSPrimes@@AEAVFindFacSm@@AEBVMultInv@@AEBVCrtMath@@AEAVGarnerCrt@@@Z@4HA 0000000140035b60 f   Rsa-1b4059.o
 0001:00035440       ?dtor$6@?0???0Crt@@QEAA@XZ@4HA 0000000140036440 f i Rsa-1b4059.o
 0001:00035550       ?dtor$12@?0???0Crt3@@QEAA@XZ@4HA 0000000140036550 f i Rsa-1b4059.o
 0001:00035580       ?dtor$15@?0???0Crt3@@QEAA@XZ@4HA 0000000140036580 f i Rsa-1b4059.o
 0001:00035860       ?dtor$22@?0??test@RsaTest@@QEAAXAEAVRsa@@AEAVMod@@AEAVSPrimes@@AEAVIntegerMath@@AEAVFindFacSm@@AEBVMultInv@@AEBVCrtMath@@AEAVGarnerCrt@@@Z@4HA 0000000140036860 f   RsaTest-5dc46d.o
 0001:000358a0       ?dtor$25@?0??test@RsaTest@@QEAAXAEAVRsa@@AEAVMod@@AEAVSPrimes@@AEAVIntegerMath@@AEAVFindFacSm@@AEBVMultInv@@AEBVCrtMath@@AEAVGarnerCrt@@@Z@4HA 00000001400368a0 f   RsaTest-5dc46d.o
 0001:000358e0       ?dtor$28@?0??test@RsaTest@@QEAAXAEAVRsa@@AEAVMod@@AEAVSPrimes@@AEAVIntegerMath@@AEAVFindFacSm@@AEBVMultInv@@AEBVCrtMath@@AEAVGarnerCrt@@@Z@4HA 00000001400368e0 f   RsaTest-5dc46d.o
 0001:00035c60       ?dtor$10@?0??processAllBlocks@Sha256@@QEAAXAEBVCharBuf@@@Z@4HA 0000000140036c60 f   Sha256-24ff28.o
 0001:00035c90       ?dtor$16@?0??processAllBlocks@Sha256@@QEAAXAEBVCharBuf@@@Z@4HA 0000000140036c90 f   Sha256-24ff28.o
 0001:00036190       ?dtor$8@?0??showHash@Sha256@@QEAAXXZ@4HA 0000000140037190 f   Sha256-24ff28.o
 0001:000361c0       ?dtor$22@?0??showHash@Sha256@@QEAAXXZ@4HA 00000001400371c0 f   Sha256-24ff28.o
 0001:00036680       ?dtor$14@?0??hMac@Sha256@@QEAAXAEAVCharBuf@@AEBV2@1@Z@4HA 0000000140037680 f   Sha256-24ff28.o
 0001:000366c0       ?dtor$17@?0??hMac@Sha256@@QEAAXAEAVCharBuf@@AEBV2@1@Z@4HA 00000001400376c0 f   Sha256-24ff28.o
 0001:00036700       ?dtor$37@?0??hMac@Sha256@@QEAAXAEAVCharBuf@@AEBV2@1@Z@4HA 0000000140037700 f   Sha256-24ff28.o
 0001:00036740       ?dtor$61@?0??hMac@Sha256@@QEAAXAEAVCharBuf@@AEBV2@1@Z@4HA 0000000140037740 f   Sha256-24ff28.o
 0001:00036780       ?dtor$69@?0??hMac@Sha256@@QEAAXAEAVCharBuf@@AEBV2@1@Z@4HA 0000000140037780 f   Sha256-24ff28.o
 0001:000367c0       ?dtor$72@?0??hMac@Sha256@@QEAAXAEAVCharBuf@@AEBV2@1@Z@4HA 00000001400377c0 f   Sha256-24ff28.o
 0001:00036800       ?dtor$75@?0??hMac@Sha256@@QEAAXAEAVCharBuf@@AEBV2@1@Z@4HA 0000000140037800 f   Sha256-24ff28.o
 0001:00036840       ?dtor$78@?0??hMac@Sha256@@QEAAXAEAVCharBuf@@AEBV2@1@Z@4HA 0000000140037840 f   Sha256-24ff28.o
 0001:00038910       ?dtor$10@?0??testCrt@Garner@@QEAAXAEBVInteger@@AEAVIntegerMath@@AEBVSPrimes@@AEBVMultInv@@AEBVCrtMath@@@Z@4HA 0000000140039910 f   Garner-e5c102.o
 0001:00038d90       ?dtor$3@?0??setUpConstants@GarnerCrt@@QEAAXAEBVSPrimes@@AEAVIntegerMath@@@Z@4HA 0000000140039d90 f   GarnerCrt-d733a2.o
 0001:00038dd0       ?dtor$35@?0??setUpConstants@GarnerCrt@@QEAAXAEBVSPrimes@@AEAVIntegerMath@@@Z@4HA 0000000140039dd0 f   GarnerCrt-d733a2.o
 0001:000390c0       ?dtor$4@?0???0GoodX@@QEAA@XZ@4HA 000000014003a0c0 f   GoodX-3a7b51.o
 0001:000391c0       ?dtor$5@?0???0GoodX@@QEAA@AEBV0@@Z@4HA 000000014003a1c0 f   GoodX-3a7b51.o
 0001:000394b0       ?dtor$4@?0???0MultInv@@QEAA@XZ@4HA 000000014003a4b0 f   MultInv-eb6499.o
 0001:000395b0       ?dtor$5@?0???0MultInv@@QEAA@AEBV0@@Z@4HA 000000014003a5b0 f   MultInv-eb6499.o
 0001:0003a150       ?dtor$27@?0??timeCBuf@TimeApi@@QEAAXAEAVCharBuf@@@Z@4HA 000000014003b150 f   TimeApiWin-5d41be.o
 0001:0003a180       ?dtor$30@?0??timeCBuf@TimeApi@@QEAAXAEAVCharBuf@@@Z@4HA 000000014003b180 f   TimeApiWin-5d41be.o
 0001:0003a1b0       ?dtor$33@?0??timeCBuf@TimeApi@@QEAAXAEAVCharBuf@@@Z@4HA 000000014003b1b0 f   TimeApiWin-5d41be.o
 0001:0003a1e0       ?dtor$36@?0??timeCBuf@TimeApi@@QEAAXAEAVCharBuf@@@Z@4HA 000000014003b1e0 f   TimeApiWin-5d41be.o
 0001:0003a210       ?dtor$39@?0??timeCBuf@TimeApi@@QEAAXAEAVCharBuf@@@Z@4HA 000000014003b210 f   TimeApiWin-5d41be.o
 0001:0003a240       ?dtor$42@?0??timeCBuf@TimeApi@@QEAAXAEAVCharBuf@@@Z@4HA 000000014003b240 f   TimeApiWin-5d41be.o
 0001:0003a270       ?dtor$45@?0??timeCBuf@TimeApi@@QEAAXAEAVCharBuf@@@Z@4HA 000000014003b270 f   TimeApiWin-5d41be.o
 0001:0003a2a0       ?dtor$48@?0??timeCBuf@TimeApi@@QEAAXAEAVCharBuf@@@Z@4HA 000000014003b2a0 f   TimeApiWin-5d41be.o
 0001:0003a2cc       ??__Eclassic_locale@std@@YAXXZ 000000014003b2cc f   libcpmt:locale0.obj
 0001:0003a2d8       ??__F_Fac_tidy_reg@std@@YAXXZ 000000014003b2d8 f   libcpmt:locale0.obj
 0001:0003a2e4       ??__Einitlocks@std@@YAXXZ  000000014003b2e4 f   libcpmt:xlock.obj
 0001:0003a304       ??__Einitlocks@std@@YAXXZ  000000014003b304 f   libcpmt:iosptrs.obj
 0001:0003a324       ??__Finit_atexit@@YAXXZ    000000014003b324 f   libcpmt:iosptrs.obj
 0001:0003a340       $$000000                   000000014003b340     libcmt:chkstk.obj
 0001:0003a744       ?pre_c_initialization@@YAHXZ 000000014003b744 f   libcmt:exe_main.obj
 0001:0003a7fc       ?post_pgo_initialization@@YAHXZ 000000014003b7fc f   libcmt:exe_main.obj
 0001:0003a80c       ?pre_cpp_initialization@@YAXXZ 000000014003b80c f   libcmt:exe_main.obj
 0001:0003a828       ?__scrt_common_main_seh@@YAHXZ 000000014003b828 f   libcmt:exe_main.obj
 0001:0003ad5c       no_op_initialize           000000014003bd5c f   libucrt:wsetlocale.obj
 0001:0003b544       tidy_global                000000014003c544 f   libcpmt:locale0.obj
 0001:0003c09c       ?initialize_pointers@@YAHXZ 000000014003d09c f   libcpmt:winapisupp.obj
 0001:0003d71c       ??$BuildCatchObjectHelperInternal@V__FrameHandler3@@@@YAHPEAUEHExceptionRecord@@PEAXPEBU_s_HandlerType@@PEBU_s_CatchableType@@@Z 000000014003e71c f   libvcruntime:frame.obj
 0001:0003d91c       ??$BuildCatchObjectHelperInternal@V__FrameHandler4@@@@YAHPEAUEHExceptionRecord@@PEAXPEAUHandlerType4@FH4@@PEBU_s_CatchableType@@@Z 000000014003e91c f   libvcruntime:frame.obj
 0001:0003db20       ??$BuildCatchObjectInternal@V__FrameHandler3@@@@YAXPEAUEHExceptionRecord@@PEAXPEBU_s_HandlerType@@PEBU_s_CatchableType@@@Z 000000014003eb20 f   libvcruntime:frame.obj
 0001:0003dbe0       ??$BuildCatchObjectInternal@V__FrameHandler4@@@@YAXPEAUEHExceptionRecord@@PEAXPEAUHandlerType4@FH4@@PEBU_s_CatchableType@@@Z 000000014003ebe0 f   libvcruntime:frame.obj
 0001:0003dca4       ??$CatchIt@V__FrameHandler3@@@@YAXPEAUEHExceptionRecord@@PEA_KPEAU_CONTEXT@@PEAU_xDISPATCHER_CONTEXT@@PEBU_s_FuncInfo@@PEBU_s_HandlerType@@PEBU_s_CatchableType@@PEBU_s_TryBlockMapEntry@@H1EE@Z 000000014003eca4 f   libvcruntime:frame.obj
 0001:0003dd78       ??$CatchIt@V__FrameHandler4@@@@YAXPEAUEHExceptionRecord@@PEA_KPEAU_CONTEXT@@PEAU_xDISPATCHER_CONTEXT@@PEAUFuncInfo4@FH4@@PEAUHandlerType4@4@PEBU_s_CatchableType@@PEAUTryBlockMapEntry4@4@H1EE@Z 000000014003ed78 f   libvcruntime:frame.obj
 0001:0003de4c       ??$FindHandler@V__FrameHandler3@@@@YAXPEAUEHExceptionRecord@@PEA_KPEAU_CONTEXT@@PEAU_xDISPATCHER_CONTEXT@@PEBU_s_FuncInfo@@EH1@Z 000000014003ee4c f   libvcruntime:frame.obj
 0001:0003e31c       ??$FindHandler@V__FrameHandler4@@@@YAXPEAUEHExceptionRecord@@PEA_KPEAU_CONTEXT@@PEAU_xDISPATCHER_CONTEXT@@PEAUFuncInfo4@FH4@@EH1@Z 000000014003f31c f   libvcruntime:frame.obj
 0001:0003e820       ??$FindHandlerForForeignException@V__FrameHandler3@@@@YAXPEAUEHExceptionRecord@@PEA_KPEAU_CONTEXT@@PEAU_xDISPATCHER_CONTEXT@@PEBU_s_FuncInfo@@HH1@Z 000000014003f820 f   libvcruntime:frame.obj
 0001:0003ea90       ??$FindHandlerForForeignException@V__FrameHandler4@@@@YAXPEAUEHExceptionRecord@@PEA_KPEAU_CONTEXT@@PEAU_xDISPATCHER_CONTEXT@@PEAUFuncInfo4@FH4@@HH1@Z 000000014003fa90 f   libvcruntime:frame.obj
 0001:0003fcc4       ?ExFilterRethrow@@YAHPEAU_EXCEPTION_POINTERS@@PEAUEHExceptionRecord@@PEAH@Z 0000000140040cc4 f   libvcruntime:frame.obj
 0001:0003fd48       ?ExFilterRethrowFH4@@YAHPEAU_EXCEPTION_POINTERS@@PEAUEHExceptionRecord@@HPEAH@Z 0000000140040d48 f   libvcruntime:frame.obj
 0001:000402a4       ?IsInExceptionSpec@@YAEPEAUEHExceptionRecord@@PEBU_s_ESTypeList@@@Z 00000001400412a4 f   libvcruntime:frame.obj
 0001:00040394       ?Is_bad_exception_allowed@@YAEPEBU_s_ESTypeList@@@Z 0000000140041394 f   libvcruntime:frame.obj
 0001:00040710       $$000000                   0000000140041710     libvcruntime:notify.obj
 0001:00040730       $$000000                   0000000140041730     libvcruntime:notify.obj
 0001:00040740       $$000000                   0000000140041740     libvcruntime:notify.obj
 0001:0004077c       ?try_get_function@@YAPEAXW4function_id@?A0x14174aea@@QEBDQEBW4module_id@2@2@Z 000000014004177c f   libvcruntime:winapi_downlevel.obj
 0001:00040aa0       $$000000                   0000000140041aa0     libvcruntime:handlers.obj
 0001:00040ae0       $$000000                   0000000140041ae0     libvcruntime:handlers.obj
 0001:00040b10       $$000000                   0000000140041b10     libvcruntime:handlers.obj
 0001:00040b40       $$000000                   0000000140041b40     libvcruntime:handlers.obj
